
Grease_Ver2.elf:     file format elf32-littlearm

Sections:
Idx Name          Size      VMA       LMA       File off  Algn
  0 .isr_vector   00000188  08000000  08000000  00001000  2**0
                  CONTENTS, ALLOC, LOAD, READONLY, DATA
  1 .text         00008b50  08000190  08000190  00001190  2**4
                  CONTENTS, ALLOC, LOAD, READONLY, CODE
  2 .rodata       0000056c  08008ce0  08008ce0  00009ce0  2**2
                  CONTENTS, ALLOC, LOAD, READONLY, DATA
  3 .ARM.extab    00000000  0800924c  0800924c  0000b47c  2**0
                  CONTENTS, READONLY
  4 .ARM          00000008  0800924c  0800924c  0000a24c  2**2
                  CONTENTS, ALLOC, LOAD, READONLY, DATA
  5 .preinit_array 00000000  08009254  08009254  0000b47c  2**0
                  CONTENTS, ALLOC, LOAD, DATA
  6 .init_array   00000004  08009254  08009254  0000a254  2**2
                  CONTENTS, ALLOC, LOAD, READONLY, DATA
  7 .fini_array   00000004  08009258  08009258  0000a258  2**2
                  CONTENTS, ALLOC, LOAD, READONLY, DATA
  8 .data         0000047c  20000000  0800925c  0000b000  2**2
                  CONTENTS, ALLOC, LOAD, DATA
  9 .ccmram       00000000  10000000  10000000  0000b47c  2**0
                  CONTENTS
 10 .bss          00008fac  2000047c  2000047c  0000b47c  2**2
                  ALLOC
 11 ._user_heap_stack 00000600  20009428  20009428  0000b47c  2**0
                  ALLOC
 12 .ARM.attributes 00000030  00000000  00000000  0000b47c  2**0
                  CONTENTS, READONLY
 13 .comment      00000043  00000000  00000000  0000b4ac  2**0
                  CONTENTS, READONLY
 14 .debug_frame  00000ee8  00000000  00000000  0000b4f0  2**2
                  CONTENTS, READONLY, DEBUGGING, OCTETS

Disassembly of section .text:

08000190 <__do_global_dtors_aux>:
 8000190:	b510      	push	{r4, lr}
 8000192:	4c05      	ldr	r4, [pc, #20]	@ (80001a8 <__do_global_dtors_aux+0x18>)
 8000194:	7823      	ldrb	r3, [r4, #0]
 8000196:	b933      	cbnz	r3, 80001a6 <__do_global_dtors_aux+0x16>
 8000198:	4b04      	ldr	r3, [pc, #16]	@ (80001ac <__do_global_dtors_aux+0x1c>)
 800019a:	b113      	cbz	r3, 80001a2 <__do_global_dtors_aux+0x12>
 800019c:	4804      	ldr	r0, [pc, #16]	@ (80001b0 <__do_global_dtors_aux+0x20>)
 800019e:	f3af 8000 	nop.w
 80001a2:	2301      	movs	r3, #1
 80001a4:	7023      	strb	r3, [r4, #0]
 80001a6:	bd10      	pop	{r4, pc}
 80001a8:	2000047c 	.word	0x2000047c
 80001ac:	00000000 	.word	0x00000000
 80001b0:	08008cc8 	.word	0x08008cc8

080001b4 <frame_dummy>:
 80001b4:	b508      	push	{r3, lr}
 80001b6:	4b03      	ldr	r3, [pc, #12]	@ (80001c4 <frame_dummy+0x10>)
 80001b8:	b11b      	cbz	r3, 80001c2 <frame_dummy+0xe>
 80001ba:	4903      	ldr	r1, [pc, #12]	@ (80001c8 <frame_dummy+0x14>)
 80001bc:	4803      	ldr	r0, [pc, #12]	@ (80001cc <frame_dummy+0x18>)
 80001be:	f3af 8000 	nop.w
 80001c2:	bd08      	pop	{r3, pc}
 80001c4:	00000000 	.word	0x00000000
 80001c8:	20000480 	.word	0x20000480
 80001cc:	08008cc8 	.word	0x08008cc8

080001d0 <strcmp>:
 80001d0:	f810 2b01 	ldrb.w	r2, [r0], #1
 80001d4:	f811 3b01 	ldrb.w	r3, [r1], #1
 80001d8:	2a01      	cmp	r2, #1
 80001da:	bf28      	it	cs
 80001dc:	429a      	cmpcs	r2, r3
 80001de:	d0f7      	beq.n	80001d0 <strcmp>
 80001e0:	1ad0      	subs	r0, r2, r3
 80001e2:	4770      	bx	lr

080001e4 <strlen>:
 80001e4:	4603      	mov	r3, r0
 80001e6:	f813 2b01 	ldrb.w	r2, [r3], #1
 80001ea:	2a00      	cmp	r2, #0
 80001ec:	d1fb      	bne.n	80001e6 <strlen+0x2>
 80001ee:	1a18      	subs	r0, r3, r0
 80001f0:	3801      	subs	r0, #1
 80001f2:	4770      	bx	lr
	...

08000200 <memchr>:
 8000200:	f001 01ff 	and.w	r1, r1, #255	@ 0xff
 8000204:	2a10      	cmp	r2, #16
 8000206:	db2b      	blt.n	8000260 <memchr+0x60>
 8000208:	f010 0f07 	tst.w	r0, #7
 800020c:	d008      	beq.n	8000220 <memchr+0x20>
 800020e:	f810 3b01 	ldrb.w	r3, [r0], #1
 8000212:	3a01      	subs	r2, #1
 8000214:	428b      	cmp	r3, r1
 8000216:	d02d      	beq.n	8000274 <memchr+0x74>
 8000218:	f010 0f07 	tst.w	r0, #7
 800021c:	b342      	cbz	r2, 8000270 <memchr+0x70>
 800021e:	d1f6      	bne.n	800020e <memchr+0xe>
 8000220:	b4f0      	push	{r4, r5, r6, r7}
 8000222:	ea41 2101 	orr.w	r1, r1, r1, lsl #8
 8000226:	ea41 4101 	orr.w	r1, r1, r1, lsl #16
 800022a:	f022 0407 	bic.w	r4, r2, #7
 800022e:	f07f 0700 	mvns.w	r7, #0
 8000232:	2300      	movs	r3, #0
 8000234:	e8f0 5602 	ldrd	r5, r6, [r0], #8
 8000238:	3c08      	subs	r4, #8
 800023a:	ea85 0501 	eor.w	r5, r5, r1
 800023e:	ea86 0601 	eor.w	r6, r6, r1
 8000242:	fa85 f547 	uadd8	r5, r5, r7
 8000246:	faa3 f587 	sel	r5, r3, r7
 800024a:	fa86 f647 	uadd8	r6, r6, r7
 800024e:	faa5 f687 	sel	r6, r5, r7
 8000252:	b98e      	cbnz	r6, 8000278 <memchr+0x78>
 8000254:	d1ee      	bne.n	8000234 <memchr+0x34>
 8000256:	bcf0      	pop	{r4, r5, r6, r7}
 8000258:	f001 01ff 	and.w	r1, r1, #255	@ 0xff
 800025c:	f002 0207 	and.w	r2, r2, #7
 8000260:	b132      	cbz	r2, 8000270 <memchr+0x70>
 8000262:	f810 3b01 	ldrb.w	r3, [r0], #1
 8000266:	3a01      	subs	r2, #1
 8000268:	ea83 0301 	eor.w	r3, r3, r1
 800026c:	b113      	cbz	r3, 8000274 <memchr+0x74>
 800026e:	d1f8      	bne.n	8000262 <memchr+0x62>
 8000270:	2000      	movs	r0, #0
 8000272:	4770      	bx	lr
 8000274:	3801      	subs	r0, #1
 8000276:	4770      	bx	lr
 8000278:	2d00      	cmp	r5, #0
 800027a:	bf06      	itte	eq
 800027c:	4635      	moveq	r5, r6
 800027e:	3803      	subeq	r0, #3
 8000280:	3807      	subne	r0, #7
 8000282:	f015 0f01 	tst.w	r5, #1
 8000286:	d107      	bne.n	8000298 <memchr+0x98>
 8000288:	3001      	adds	r0, #1
 800028a:	f415 7f80 	tst.w	r5, #256	@ 0x100
 800028e:	bf02      	ittt	eq
 8000290:	3001      	addeq	r0, #1
 8000292:	f415 3fc0 	tsteq.w	r5, #98304	@ 0x18000
 8000296:	3001      	addeq	r0, #1
 8000298:	bcf0      	pop	{r4, r5, r6, r7}
 800029a:	3801      	subs	r0, #1
 800029c:	4770      	bx	lr
 800029e:	bf00      	nop

080002a0 <__aeabi_uldivmod>:
 80002a0:	b953      	cbnz	r3, 80002b8 <__aeabi_uldivmod+0x18>
 80002a2:	b94a      	cbnz	r2, 80002b8 <__aeabi_uldivmod+0x18>
 80002a4:	2900      	cmp	r1, #0
 80002a6:	bf08      	it	eq
 80002a8:	2800      	cmpeq	r0, #0
 80002aa:	bf1c      	itt	ne
 80002ac:	f04f 31ff 	movne.w	r1, #4294967295
 80002b0:	f04f 30ff 	movne.w	r0, #4294967295
 80002b4:	f000 b988 	b.w	80005c8 <__aeabi_idiv0>
 80002b8:	f1ad 0c08 	sub.w	ip, sp, #8
 80002bc:	e96d ce04 	strd	ip, lr, [sp, #-16]!
 80002c0:	f000 f806 	bl	80002d0 <__udivmoddi4>
 80002c4:	f8dd e004 	ldr.w	lr, [sp, #4]
 80002c8:	e9dd 2302 	ldrd	r2, r3, [sp, #8]
 80002cc:	b004      	add	sp, #16
 80002ce:	4770      	bx	lr

080002d0 <__udivmoddi4>:
 80002d0:	e92d 47f0 	stmdb	sp!, {r4, r5, r6, r7, r8, r9, sl, lr}
 80002d4:	9d08      	ldr	r5, [sp, #32]
 80002d6:	468e      	mov	lr, r1
 80002d8:	4604      	mov	r4, r0
 80002da:	4688      	mov	r8, r1
 80002dc:	2b00      	cmp	r3, #0
 80002de:	d14a      	bne.n	8000376 <__udivmoddi4+0xa6>
 80002e0:	428a      	cmp	r2, r1
 80002e2:	4617      	mov	r7, r2
 80002e4:	d962      	bls.n	80003ac <__udivmoddi4+0xdc>
 80002e6:	fab2 f682 	clz	r6, r2
 80002ea:	b14e      	cbz	r6, 8000300 <__udivmoddi4+0x30>
 80002ec:	f1c6 0320 	rsb	r3, r6, #32
 80002f0:	fa01 f806 	lsl.w	r8, r1, r6
 80002f4:	fa20 f303 	lsr.w	r3, r0, r3
 80002f8:	40b7      	lsls	r7, r6
 80002fa:	ea43 0808 	orr.w	r8, r3, r8
 80002fe:	40b4      	lsls	r4, r6
 8000300:	ea4f 4e17 	mov.w	lr, r7, lsr #16
 8000304:	fa1f fc87 	uxth.w	ip, r7
 8000308:	fbb8 f1fe 	udiv	r1, r8, lr
 800030c:	0c23      	lsrs	r3, r4, #16
 800030e:	fb0e 8811 	mls	r8, lr, r1, r8
 8000312:	ea43 4308 	orr.w	r3, r3, r8, lsl #16
 8000316:	fb01 f20c 	mul.w	r2, r1, ip
 800031a:	429a      	cmp	r2, r3
 800031c:	d909      	bls.n	8000332 <__udivmoddi4+0x62>
 800031e:	18fb      	adds	r3, r7, r3
 8000320:	f101 30ff 	add.w	r0, r1, #4294967295
 8000324:	f080 80ea 	bcs.w	80004fc <__udivmoddi4+0x22c>
 8000328:	429a      	cmp	r2, r3
 800032a:	f240 80e7 	bls.w	80004fc <__udivmoddi4+0x22c>
 800032e:	3902      	subs	r1, #2
 8000330:	443b      	add	r3, r7
 8000332:	1a9a      	subs	r2, r3, r2
 8000334:	b2a3      	uxth	r3, r4
 8000336:	fbb2 f0fe 	udiv	r0, r2, lr
 800033a:	fb0e 2210 	mls	r2, lr, r0, r2
 800033e:	ea43 4302 	orr.w	r3, r3, r2, lsl #16
 8000342:	fb00 fc0c 	mul.w	ip, r0, ip
 8000346:	459c      	cmp	ip, r3
 8000348:	d909      	bls.n	800035e <__udivmoddi4+0x8e>
 800034a:	18fb      	adds	r3, r7, r3
 800034c:	f100 32ff 	add.w	r2, r0, #4294967295
 8000350:	f080 80d6 	bcs.w	8000500 <__udivmoddi4+0x230>
 8000354:	459c      	cmp	ip, r3
 8000356:	f240 80d3 	bls.w	8000500 <__udivmoddi4+0x230>
 800035a:	443b      	add	r3, r7
 800035c:	3802      	subs	r0, #2
 800035e:	ea40 4001 	orr.w	r0, r0, r1, lsl #16
 8000362:	eba3 030c 	sub.w	r3, r3, ip
 8000366:	2100      	movs	r1, #0
 8000368:	b11d      	cbz	r5, 8000372 <__udivmoddi4+0xa2>
 800036a:	40f3      	lsrs	r3, r6
 800036c:	2200      	movs	r2, #0
 800036e:	e9c5 3200 	strd	r3, r2, [r5]
 8000372:	e8bd 87f0 	ldmia.w	sp!, {r4, r5, r6, r7, r8, r9, sl, pc}
 8000376:	428b      	cmp	r3, r1
 8000378:	d905      	bls.n	8000386 <__udivmoddi4+0xb6>
 800037a:	b10d      	cbz	r5, 8000380 <__udivmoddi4+0xb0>
 800037c:	e9c5 0100 	strd	r0, r1, [r5]
 8000380:	2100      	movs	r1, #0
 8000382:	4608      	mov	r0, r1
 8000384:	e7f5      	b.n	8000372 <__udivmoddi4+0xa2>
 8000386:	fab3 f183 	clz	r1, r3
 800038a:	2900      	cmp	r1, #0
 800038c:	d146      	bne.n	800041c <__udivmoddi4+0x14c>
 800038e:	4573      	cmp	r3, lr
 8000390:	d302      	bcc.n	8000398 <__udivmoddi4+0xc8>
 8000392:	4282      	cmp	r2, r0
 8000394:	f200 8105 	bhi.w	80005a2 <__udivmoddi4+0x2d2>
 8000398:	1a84      	subs	r4, r0, r2
 800039a:	eb6e 0203 	sbc.w	r2, lr, r3
 800039e:	2001      	movs	r0, #1
 80003a0:	4690      	mov	r8, r2
 80003a2:	2d00      	cmp	r5, #0
 80003a4:	d0e5      	beq.n	8000372 <__udivmoddi4+0xa2>
 80003a6:	e9c5 4800 	strd	r4, r8, [r5]
 80003aa:	e7e2      	b.n	8000372 <__udivmoddi4+0xa2>
 80003ac:	2a00      	cmp	r2, #0
 80003ae:	f000 8090 	beq.w	80004d2 <__udivmoddi4+0x202>
 80003b2:	fab2 f682 	clz	r6, r2
 80003b6:	2e00      	cmp	r6, #0
 80003b8:	f040 80a4 	bne.w	8000504 <__udivmoddi4+0x234>
 80003bc:	1a8a      	subs	r2, r1, r2
 80003be:	0c03      	lsrs	r3, r0, #16
 80003c0:	ea4f 4e17 	mov.w	lr, r7, lsr #16
 80003c4:	b280      	uxth	r0, r0
 80003c6:	b2bc      	uxth	r4, r7
 80003c8:	2101      	movs	r1, #1
 80003ca:	fbb2 fcfe 	udiv	ip, r2, lr
 80003ce:	fb0e 221c 	mls	r2, lr, ip, r2
 80003d2:	ea43 4302 	orr.w	r3, r3, r2, lsl #16
 80003d6:	fb04 f20c 	mul.w	r2, r4, ip
 80003da:	429a      	cmp	r2, r3
 80003dc:	d907      	bls.n	80003ee <__udivmoddi4+0x11e>
 80003de:	18fb      	adds	r3, r7, r3
 80003e0:	f10c 38ff 	add.w	r8, ip, #4294967295
 80003e4:	d202      	bcs.n	80003ec <__udivmoddi4+0x11c>
 80003e6:	429a      	cmp	r2, r3
 80003e8:	f200 80e0 	bhi.w	80005ac <__udivmoddi4+0x2dc>
 80003ec:	46c4      	mov	ip, r8
 80003ee:	1a9b      	subs	r3, r3, r2
 80003f0:	fbb3 f2fe 	udiv	r2, r3, lr
 80003f4:	fb0e 3312 	mls	r3, lr, r2, r3
 80003f8:	ea40 4303 	orr.w	r3, r0, r3, lsl #16
 80003fc:	fb02 f404 	mul.w	r4, r2, r4
 8000400:	429c      	cmp	r4, r3
 8000402:	d907      	bls.n	8000414 <__udivmoddi4+0x144>
 8000404:	18fb      	adds	r3, r7, r3
 8000406:	f102 30ff 	add.w	r0, r2, #4294967295
 800040a:	d202      	bcs.n	8000412 <__udivmoddi4+0x142>
 800040c:	429c      	cmp	r4, r3
 800040e:	f200 80ca 	bhi.w	80005a6 <__udivmoddi4+0x2d6>
 8000412:	4602      	mov	r2, r0
 8000414:	1b1b      	subs	r3, r3, r4
 8000416:	ea42 400c 	orr.w	r0, r2, ip, lsl #16
 800041a:	e7a5      	b.n	8000368 <__udivmoddi4+0x98>
 800041c:	f1c1 0620 	rsb	r6, r1, #32
 8000420:	408b      	lsls	r3, r1
 8000422:	fa22 f706 	lsr.w	r7, r2, r6
 8000426:	431f      	orrs	r7, r3
 8000428:	fa0e f401 	lsl.w	r4, lr, r1
 800042c:	fa20 f306 	lsr.w	r3, r0, r6
 8000430:	fa2e fe06 	lsr.w	lr, lr, r6
 8000434:	ea4f 4917 	mov.w	r9, r7, lsr #16
 8000438:	4323      	orrs	r3, r4
 800043a:	fa00 f801 	lsl.w	r8, r0, r1
 800043e:	fa1f fc87 	uxth.w	ip, r7
 8000442:	fbbe f0f9 	udiv	r0, lr, r9
 8000446:	0c1c      	lsrs	r4, r3, #16
 8000448:	fb09 ee10 	mls	lr, r9, r0, lr
 800044c:	ea44 440e 	orr.w	r4, r4, lr, lsl #16
 8000450:	fb00 fe0c 	mul.w	lr, r0, ip
 8000454:	45a6      	cmp	lr, r4
 8000456:	fa02 f201 	lsl.w	r2, r2, r1
 800045a:	d909      	bls.n	8000470 <__udivmoddi4+0x1a0>
 800045c:	193c      	adds	r4, r7, r4
 800045e:	f100 3aff 	add.w	sl, r0, #4294967295
 8000462:	f080 809c 	bcs.w	800059e <__udivmoddi4+0x2ce>
 8000466:	45a6      	cmp	lr, r4
 8000468:	f240 8099 	bls.w	800059e <__udivmoddi4+0x2ce>
 800046c:	3802      	subs	r0, #2
 800046e:	443c      	add	r4, r7
 8000470:	eba4 040e 	sub.w	r4, r4, lr
 8000474:	fa1f fe83 	uxth.w	lr, r3
 8000478:	fbb4 f3f9 	udiv	r3, r4, r9
 800047c:	fb09 4413 	mls	r4, r9, r3, r4
 8000480:	ea4e 4404 	orr.w	r4, lr, r4, lsl #16
 8000484:	fb03 fc0c 	mul.w	ip, r3, ip
 8000488:	45a4      	cmp	ip, r4
 800048a:	d908      	bls.n	800049e <__udivmoddi4+0x1ce>
 800048c:	193c      	adds	r4, r7, r4
 800048e:	f103 3eff 	add.w	lr, r3, #4294967295
 8000492:	f080 8082 	bcs.w	800059a <__udivmoddi4+0x2ca>
 8000496:	45a4      	cmp	ip, r4
 8000498:	d97f      	bls.n	800059a <__udivmoddi4+0x2ca>
 800049a:	3b02      	subs	r3, #2
 800049c:	443c      	add	r4, r7
 800049e:	ea43 4000 	orr.w	r0, r3, r0, lsl #16
 80004a2:	eba4 040c 	sub.w	r4, r4, ip
 80004a6:	fba0 ec02 	umull	lr, ip, r0, r2
 80004aa:	4564      	cmp	r4, ip
 80004ac:	4673      	mov	r3, lr
 80004ae:	46e1      	mov	r9, ip
 80004b0:	d362      	bcc.n	8000578 <__udivmoddi4+0x2a8>
 80004b2:	d05f      	beq.n	8000574 <__udivmoddi4+0x2a4>
 80004b4:	b15d      	cbz	r5, 80004ce <__udivmoddi4+0x1fe>
 80004b6:	ebb8 0203 	subs.w	r2, r8, r3
 80004ba:	eb64 0409 	sbc.w	r4, r4, r9
 80004be:	fa04 f606 	lsl.w	r6, r4, r6
 80004c2:	fa22 f301 	lsr.w	r3, r2, r1
 80004c6:	431e      	orrs	r6, r3
 80004c8:	40cc      	lsrs	r4, r1
 80004ca:	e9c5 6400 	strd	r6, r4, [r5]
 80004ce:	2100      	movs	r1, #0
 80004d0:	e74f      	b.n	8000372 <__udivmoddi4+0xa2>
 80004d2:	fbb1 fcf2 	udiv	ip, r1, r2
 80004d6:	0c01      	lsrs	r1, r0, #16
 80004d8:	ea41 410e 	orr.w	r1, r1, lr, lsl #16
 80004dc:	b280      	uxth	r0, r0
 80004de:	ea40 4201 	orr.w	r2, r0, r1, lsl #16
 80004e2:	463b      	mov	r3, r7
 80004e4:	4638      	mov	r0, r7
 80004e6:	463c      	mov	r4, r7
 80004e8:	46b8      	mov	r8, r7
 80004ea:	46be      	mov	lr, r7
 80004ec:	2620      	movs	r6, #32
 80004ee:	fbb1 f1f7 	udiv	r1, r1, r7
 80004f2:	eba2 0208 	sub.w	r2, r2, r8
 80004f6:	ea41 410c 	orr.w	r1, r1, ip, lsl #16
 80004fa:	e766      	b.n	80003ca <__udivmoddi4+0xfa>
 80004fc:	4601      	mov	r1, r0
 80004fe:	e718      	b.n	8000332 <__udivmoddi4+0x62>
 8000500:	4610      	mov	r0, r2
 8000502:	e72c      	b.n	800035e <__udivmoddi4+0x8e>
 8000504:	f1c6 0220 	rsb	r2, r6, #32
 8000508:	fa2e f302 	lsr.w	r3, lr, r2
 800050c:	40b7      	lsls	r7, r6
 800050e:	40b1      	lsls	r1, r6
 8000510:	fa20 f202 	lsr.w	r2, r0, r2
 8000514:	ea4f 4e17 	mov.w	lr, r7, lsr #16
 8000518:	430a      	orrs	r2, r1
 800051a:	fbb3 f8fe 	udiv	r8, r3, lr
 800051e:	b2bc      	uxth	r4, r7
 8000520:	fb0e 3318 	mls	r3, lr, r8, r3
 8000524:	0c11      	lsrs	r1, r2, #16
 8000526:	ea41 4103 	orr.w	r1, r1, r3, lsl #16
 800052a:	fb08 f904 	mul.w	r9, r8, r4
 800052e:	40b0      	lsls	r0, r6
 8000530:	4589      	cmp	r9, r1
 8000532:	ea4f 4310 	mov.w	r3, r0, lsr #16
 8000536:	b280      	uxth	r0, r0
 8000538:	d93e      	bls.n	80005b8 <__udivmoddi4+0x2e8>
 800053a:	1879      	adds	r1, r7, r1
 800053c:	f108 3cff 	add.w	ip, r8, #4294967295
 8000540:	d201      	bcs.n	8000546 <__udivmoddi4+0x276>
 8000542:	4589      	cmp	r9, r1
 8000544:	d81f      	bhi.n	8000586 <__udivmoddi4+0x2b6>
 8000546:	eba1 0109 	sub.w	r1, r1, r9
 800054a:	fbb1 f9fe 	udiv	r9, r1, lr
 800054e:	fb09 f804 	mul.w	r8, r9, r4
 8000552:	fb0e 1119 	mls	r1, lr, r9, r1
 8000556:	b292      	uxth	r2, r2
 8000558:	ea42 4201 	orr.w	r2, r2, r1, lsl #16
 800055c:	4542      	cmp	r2, r8
 800055e:	d229      	bcs.n	80005b4 <__udivmoddi4+0x2e4>
 8000560:	18ba      	adds	r2, r7, r2
 8000562:	f109 31ff 	add.w	r1, r9, #4294967295
 8000566:	d2c4      	bcs.n	80004f2 <__udivmoddi4+0x222>
 8000568:	4542      	cmp	r2, r8
 800056a:	d2c2      	bcs.n	80004f2 <__udivmoddi4+0x222>
 800056c:	f1a9 0102 	sub.w	r1, r9, #2
 8000570:	443a      	add	r2, r7
 8000572:	e7be      	b.n	80004f2 <__udivmoddi4+0x222>
 8000574:	45f0      	cmp	r8, lr
 8000576:	d29d      	bcs.n	80004b4 <__udivmoddi4+0x1e4>
 8000578:	ebbe 0302 	subs.w	r3, lr, r2
 800057c:	eb6c 0c07 	sbc.w	ip, ip, r7
 8000580:	3801      	subs	r0, #1
 8000582:	46e1      	mov	r9, ip
 8000584:	e796      	b.n	80004b4 <__udivmoddi4+0x1e4>
 8000586:	eba7 0909 	sub.w	r9, r7, r9
 800058a:	4449      	add	r1, r9
 800058c:	f1a8 0c02 	sub.w	ip, r8, #2
 8000590:	fbb1 f9fe 	udiv	r9, r1, lr
 8000594:	fb09 f804 	mul.w	r8, r9, r4
 8000598:	e7db      	b.n	8000552 <__udivmoddi4+0x282>
 800059a:	4673      	mov	r3, lr
 800059c:	e77f      	b.n	800049e <__udivmoddi4+0x1ce>
 800059e:	4650      	mov	r0, sl
 80005a0:	e766      	b.n	8000470 <__udivmoddi4+0x1a0>
 80005a2:	4608      	mov	r0, r1
 80005a4:	e6fd      	b.n	80003a2 <__udivmoddi4+0xd2>
 80005a6:	443b      	add	r3, r7
 80005a8:	3a02      	subs	r2, #2
 80005aa:	e733      	b.n	8000414 <__udivmoddi4+0x144>
 80005ac:	f1ac 0c02 	sub.w	ip, ip, #2
 80005b0:	443b      	add	r3, r7
 80005b2:	e71c      	b.n	80003ee <__udivmoddi4+0x11e>
 80005b4:	4649      	mov	r1, r9
 80005b6:	e79c      	b.n	80004f2 <__udivmoddi4+0x222>
 80005b8:	eba1 0109 	sub.w	r1, r1, r9
 80005bc:	46c4      	mov	ip, r8
 80005be:	fbb1 f9fe 	udiv	r9, r1, lr
 80005c2:	fb09 f804 	mul.w	r8, r9, r4
 80005c6:	e7c4      	b.n	8000552 <__udivmoddi4+0x282>

080005c8 <__aeabi_idiv0>:
 80005c8:	4770      	bx	lr
 80005ca:	bf00      	nop

080005cc <eqStatusMonitor>:
 80005cc:	b508      	push	{r3, lr}
 80005ce:	4b13      	ldr	r3, [pc, #76]	@ (800061c <eqStatusMonitor+0x50>)
 80005d0:	f8b3 1064 	ldrh.w	r1, [r3, #100]	@ 0x64
 80005d4:	6e18      	ldr	r0, [r3, #96]	@ 0x60
 80005d6:	f001 fe35 	bl	8002244 <HAL_GPIO_ReadPin>
 80005da:	b128      	cbz	r0, 80005e8 <eqStatusMonitor+0x1c>
 80005dc:	4910      	ldr	r1, [pc, #64]	@ (8000620 <eqStatusMonitor+0x54>)
 80005de:	4811      	ldr	r0, [pc, #68]	@ (8000624 <eqStatusMonitor+0x58>)
 80005e0:	e8bd 4008 	ldmia.w	sp!, {r3, lr}
 80005e4:	f006 bf15 	b.w	8007412 <strcpy>
 80005e8:	4b0f      	ldr	r3, [pc, #60]	@ (8000628 <eqStatusMonitor+0x5c>)
 80005ea:	f8b3 1064 	ldrh.w	r1, [r3, #100]	@ 0x64
 80005ee:	6e18      	ldr	r0, [r3, #96]	@ 0x60
 80005f0:	f001 fe28 	bl	8002244 <HAL_GPIO_ReadPin>
 80005f4:	b120      	cbz	r0, 8000600 <eqStatusMonitor+0x34>
 80005f6:	4b0d      	ldr	r3, [pc, #52]	@ (800062c <eqStatusMonitor+0x60>)
 80005f8:	490d      	ldr	r1, [pc, #52]	@ (8000630 <eqStatusMonitor+0x64>)
 80005fa:	2201      	movs	r2, #1
 80005fc:	701a      	strb	r2, [r3, #0]
 80005fe:	e7ee      	b.n	80005de <eqStatusMonitor+0x12>
 8000600:	4b0c      	ldr	r3, [pc, #48]	@ (8000634 <eqStatusMonitor+0x68>)
 8000602:	f8b3 1064 	ldrh.w	r1, [r3, #100]	@ 0x64
 8000606:	6e18      	ldr	r0, [r3, #96]	@ 0x60
 8000608:	f001 fe1c 	bl	8002244 <HAL_GPIO_ReadPin>
 800060c:	b120      	cbz	r0, 8000618 <eqStatusMonitor+0x4c>
 800060e:	4b07      	ldr	r3, [pc, #28]	@ (800062c <eqStatusMonitor+0x60>)
 8000610:	4909      	ldr	r1, [pc, #36]	@ (8000638 <eqStatusMonitor+0x6c>)
 8000612:	2201      	movs	r2, #1
 8000614:	701a      	strb	r2, [r3, #0]
 8000616:	e7e2      	b.n	80005de <eqStatusMonitor+0x12>
 8000618:	bd08      	pop	{r3, pc}
 800061a:	bf00      	nop
 800061c:	20000204 	.word	0x20000204
 8000620:	08008cec 	.word	0x08008cec
 8000624:	20000498 	.word	0x20000498
 8000628:	20000104 	.word	0x20000104
 800062c:	20000c98 	.word	0x20000c98
 8000630:	08008cf5 	.word	0x08008cf5
 8000634:	20000004 	.word	0x20000004
 8000638:	08008cfe 	.word	0x08008cfe

0800063c <eqHandleStatus>:
 800063c:	f7ff bfc6 	b.w	80005cc <eqStatusMonitor>

08000640 <eqControl>:
 8000640:	4770      	bx	lr
	...

08000644 <sendButtonStateChange>:
 8000644:	b507      	push	{r0, r1, r2, lr}
 8000646:	4603      	mov	r3, r0
 8000648:	4a07      	ldr	r2, [pc, #28]	@ (8000668 <sendButtonStateChange+0x24>)
 800064a:	4808      	ldr	r0, [pc, #32]	@ (800066c <sendButtonStateChange+0x28>)
 800064c:	2900      	cmp	r1, #0
 800064e:	bf18      	it	ne
 8000650:	4602      	movne	r2, r0
 8000652:	9200      	str	r2, [sp, #0]
 8000654:	f44f 6100 	mov.w	r1, #2048	@ 0x800
 8000658:	4a05      	ldr	r2, [pc, #20]	@ (8000670 <sendButtonStateChange+0x2c>)
 800065a:	4806      	ldr	r0, [pc, #24]	@ (8000674 <sendButtonStateChange+0x30>)
 800065c:	f006 fd5a 	bl	8007114 <sniprintf>
 8000660:	b003      	add	sp, #12
 8000662:	f85d fb04 	ldr.w	pc, [sp], #4
 8000666:	bf00      	nop
 8000668:	08009037 	.word	0x08009037
 800066c:	08008d07 	.word	0x08008d07
 8000670:	08008d09 	.word	0x08008d09
 8000674:	20000ca3 	.word	0x20000ca3

08000678 <checkAndSendInputChanges>:
 8000678:	b538      	push	{r3, r4, r5, lr}
 800067a:	4c3c      	ldr	r4, [pc, #240]	@ (800076c <checkAndSendInputChanges+0xf4>)
 800067c:	4d3c      	ldr	r5, [pc, #240]	@ (8000770 <checkAndSendInputChanges+0xf8>)
 800067e:	6823      	ldr	r3, [r4, #0]
 8000680:	782a      	ldrb	r2, [r5, #0]
 8000682:	f3c3 0380 	ubfx	r3, r3, #2, #1
 8000686:	429a      	cmp	r2, r3
 8000688:	d009      	beq.n	800069e <checkAndSendInputChanges+0x26>
 800068a:	6821      	ldr	r1, [r4, #0]
 800068c:	4839      	ldr	r0, [pc, #228]	@ (8000774 <checkAndSendInputChanges+0xfc>)
 800068e:	f3c1 0180 	ubfx	r1, r1, #2, #1
 8000692:	f7ff ffd7 	bl	8000644 <sendButtonStateChange>
 8000696:	6823      	ldr	r3, [r4, #0]
 8000698:	f3c3 0380 	ubfx	r3, r3, #2, #1
 800069c:	702b      	strb	r3, [r5, #0]
 800069e:	4d36      	ldr	r5, [pc, #216]	@ (8000778 <checkAndSendInputChanges+0x100>)
 80006a0:	6823      	ldr	r3, [r4, #0]
 80006a2:	782a      	ldrb	r2, [r5, #0]
 80006a4:	f3c3 0340 	ubfx	r3, r3, #1, #1
 80006a8:	429a      	cmp	r2, r3
 80006aa:	d009      	beq.n	80006c0 <checkAndSendInputChanges+0x48>
 80006ac:	6821      	ldr	r1, [r4, #0]
 80006ae:	4833      	ldr	r0, [pc, #204]	@ (800077c <checkAndSendInputChanges+0x104>)
 80006b0:	f3c1 0140 	ubfx	r1, r1, #1, #1
 80006b4:	f7ff ffc6 	bl	8000644 <sendButtonStateChange>
 80006b8:	6823      	ldr	r3, [r4, #0]
 80006ba:	f3c3 0340 	ubfx	r3, r3, #1, #1
 80006be:	702b      	strb	r3, [r5, #0]
 80006c0:	4d2f      	ldr	r5, [pc, #188]	@ (8000780 <checkAndSendInputChanges+0x108>)
 80006c2:	6823      	ldr	r3, [r4, #0]
 80006c4:	782a      	ldrb	r2, [r5, #0]
 80006c6:	f003 0301 	and.w	r3, r3, #1
 80006ca:	429a      	cmp	r2, r3
 80006cc:	d009      	beq.n	80006e2 <checkAndSendInputChanges+0x6a>
 80006ce:	6821      	ldr	r1, [r4, #0]
 80006d0:	482c      	ldr	r0, [pc, #176]	@ (8000784 <checkAndSendInputChanges+0x10c>)
 80006d2:	f001 0101 	and.w	r1, r1, #1
 80006d6:	f7ff ffb5 	bl	8000644 <sendButtonStateChange>
 80006da:	6823      	ldr	r3, [r4, #0]
 80006dc:	f3c3 0300 	ubfx	r3, r3, #0, #1
 80006e0:	702b      	strb	r3, [r5, #0]
 80006e2:	4d29      	ldr	r5, [pc, #164]	@ (8000788 <checkAndSendInputChanges+0x110>)
 80006e4:	6823      	ldr	r3, [r4, #0]
 80006e6:	782a      	ldrb	r2, [r5, #0]
 80006e8:	f3c3 1300 	ubfx	r3, r3, #4, #1
 80006ec:	429a      	cmp	r2, r3
 80006ee:	d009      	beq.n	8000704 <checkAndSendInputChanges+0x8c>
 80006f0:	6821      	ldr	r1, [r4, #0]
 80006f2:	4826      	ldr	r0, [pc, #152]	@ (800078c <checkAndSendInputChanges+0x114>)
 80006f4:	f3c1 1100 	ubfx	r1, r1, #4, #1
 80006f8:	f7ff ffa4 	bl	8000644 <sendButtonStateChange>
 80006fc:	6823      	ldr	r3, [r4, #0]
 80006fe:	f3c3 1300 	ubfx	r3, r3, #4, #1
 8000702:	702b      	strb	r3, [r5, #0]
 8000704:	4d22      	ldr	r5, [pc, #136]	@ (8000790 <checkAndSendInputChanges+0x118>)
 8000706:	6823      	ldr	r3, [r4, #0]
 8000708:	782a      	ldrb	r2, [r5, #0]
 800070a:	f3c3 1340 	ubfx	r3, r3, #5, #1
 800070e:	429a      	cmp	r2, r3
 8000710:	d009      	beq.n	8000726 <checkAndSendInputChanges+0xae>
 8000712:	6821      	ldr	r1, [r4, #0]
 8000714:	481f      	ldr	r0, [pc, #124]	@ (8000794 <checkAndSendInputChanges+0x11c>)
 8000716:	f3c1 1140 	ubfx	r1, r1, #5, #1
 800071a:	f7ff ff93 	bl	8000644 <sendButtonStateChange>
 800071e:	6823      	ldr	r3, [r4, #0]
 8000720:	f3c3 1340 	ubfx	r3, r3, #5, #1
 8000724:	702b      	strb	r3, [r5, #0]
 8000726:	4d1c      	ldr	r5, [pc, #112]	@ (8000798 <checkAndSendInputChanges+0x120>)
 8000728:	6823      	ldr	r3, [r4, #0]
 800072a:	782a      	ldrb	r2, [r5, #0]
 800072c:	f3c3 03c0 	ubfx	r3, r3, #3, #1
 8000730:	429a      	cmp	r2, r3
 8000732:	d009      	beq.n	8000748 <checkAndSendInputChanges+0xd0>
 8000734:	6821      	ldr	r1, [r4, #0]
 8000736:	4819      	ldr	r0, [pc, #100]	@ (800079c <checkAndSendInputChanges+0x124>)
 8000738:	f3c1 01c0 	ubfx	r1, r1, #3, #1
 800073c:	f7ff ff82 	bl	8000644 <sendButtonStateChange>
 8000740:	6823      	ldr	r3, [r4, #0]
 8000742:	f3c3 03c0 	ubfx	r3, r3, #3, #1
 8000746:	702b      	strb	r3, [r5, #0]
 8000748:	4d15      	ldr	r5, [pc, #84]	@ (80007a0 <checkAndSendInputChanges+0x128>)
 800074a:	6823      	ldr	r3, [r4, #0]
 800074c:	782a      	ldrb	r2, [r5, #0]
 800074e:	f3c3 1380 	ubfx	r3, r3, #6, #1
 8000752:	429a      	cmp	r2, r3
 8000754:	d009      	beq.n	800076a <checkAndSendInputChanges+0xf2>
 8000756:	6821      	ldr	r1, [r4, #0]
 8000758:	4812      	ldr	r0, [pc, #72]	@ (80007a4 <checkAndSendInputChanges+0x12c>)
 800075a:	f3c1 1180 	ubfx	r1, r1, #6, #1
 800075e:	f7ff ff71 	bl	8000644 <sendButtonStateChange>
 8000762:	6823      	ldr	r3, [r4, #0]
 8000764:	f3c3 1380 	ubfx	r3, r3, #6, #1
 8000768:	702b      	strb	r3, [r5, #0]
 800076a:	bd38      	pop	{r3, r4, r5, pc}
 800076c:	20002cac 	.word	0x20002cac
 8000770:	20000ca2 	.word	0x20000ca2
 8000774:	08008d11 	.word	0x08008d11
 8000778:	20000ca1 	.word	0x20000ca1
 800077c:	08008d1b 	.word	0x08008d1b
 8000780:	20000ca0 	.word	0x20000ca0
 8000784:	08008d24 	.word	0x08008d24
 8000788:	20000c9f 	.word	0x20000c9f
 800078c:	08008d2e 	.word	0x08008d2e
 8000790:	20000c9e 	.word	0x20000c9e
 8000794:	08008d3a 	.word	0x08008d3a
 8000798:	20000c9d 	.word	0x20000c9d
 800079c:	08008d47 	.word	0x08008d47
 80007a0:	20000c9c 	.word	0x20000c9c
 80007a4:	08008d55 	.word	0x08008d55

080007a8 <gpioScan>:
 80007a8:	b570      	push	{r4, r5, r6, lr}
 80007aa:	4cc1      	ldr	r4, [pc, #772]	@ (8000ab0 <gpioScan+0x308>)
 80007ac:	4ec1      	ldr	r6, [pc, #772]	@ (8000ab4 <gpioScan+0x30c>)
 80007ae:	89a1      	ldrh	r1, [r4, #12]
 80007b0:	68a0      	ldr	r0, [r4, #8]
 80007b2:	4dc1      	ldr	r5, [pc, #772]	@ (8000ab8 <gpioScan+0x310>)
 80007b4:	f001 fd46 	bl	8002244 <HAL_GPIO_ReadPin>
 80007b8:	7923      	ldrb	r3, [r4, #4]
 80007ba:	8aa1      	ldrh	r1, [r4, #20]
 80007bc:	fab0 f080 	clz	r0, r0
 80007c0:	0940      	lsrs	r0, r0, #5
 80007c2:	f360 0300 	bfi	r3, r0, #0, #1
 80007c6:	6920      	ldr	r0, [r4, #16]
 80007c8:	7123      	strb	r3, [r4, #4]
 80007ca:	f001 fd3b 	bl	8002244 <HAL_GPIO_ReadPin>
 80007ce:	7923      	ldrb	r3, [r4, #4]
 80007d0:	8ba1      	ldrh	r1, [r4, #28]
 80007d2:	fab0 f080 	clz	r0, r0
 80007d6:	0940      	lsrs	r0, r0, #5
 80007d8:	f360 0341 	bfi	r3, r0, #1, #1
 80007dc:	69a0      	ldr	r0, [r4, #24]
 80007de:	7123      	strb	r3, [r4, #4]
 80007e0:	f001 fd30 	bl	8002244 <HAL_GPIO_ReadPin>
 80007e4:	7923      	ldrb	r3, [r4, #4]
 80007e6:	8ca1      	ldrh	r1, [r4, #36]	@ 0x24
 80007e8:	fab0 f080 	clz	r0, r0
 80007ec:	0940      	lsrs	r0, r0, #5
 80007ee:	f360 0382 	bfi	r3, r0, #2, #1
 80007f2:	6a20      	ldr	r0, [r4, #32]
 80007f4:	7123      	strb	r3, [r4, #4]
 80007f6:	f001 fd25 	bl	8002244 <HAL_GPIO_ReadPin>
 80007fa:	7923      	ldrb	r3, [r4, #4]
 80007fc:	8da1      	ldrh	r1, [r4, #44]	@ 0x2c
 80007fe:	fab0 f080 	clz	r0, r0
 8000802:	0940      	lsrs	r0, r0, #5
 8000804:	f360 03c3 	bfi	r3, r0, #3, #1
 8000808:	6aa0      	ldr	r0, [r4, #40]	@ 0x28
 800080a:	7123      	strb	r3, [r4, #4]
 800080c:	f001 fd1a 	bl	8002244 <HAL_GPIO_ReadPin>
 8000810:	7923      	ldrb	r3, [r4, #4]
 8000812:	8ea1      	ldrh	r1, [r4, #52]	@ 0x34
 8000814:	fab0 f080 	clz	r0, r0
 8000818:	0940      	lsrs	r0, r0, #5
 800081a:	f360 1304 	bfi	r3, r0, #4, #1
 800081e:	6b20      	ldr	r0, [r4, #48]	@ 0x30
 8000820:	7123      	strb	r3, [r4, #4]
 8000822:	f001 fd0f 	bl	8002244 <HAL_GPIO_ReadPin>
 8000826:	7923      	ldrb	r3, [r4, #4]
 8000828:	8fa1      	ldrh	r1, [r4, #60]	@ 0x3c
 800082a:	fab0 f080 	clz	r0, r0
 800082e:	0940      	lsrs	r0, r0, #5
 8000830:	f360 1345 	bfi	r3, r0, #5, #1
 8000834:	6ba0      	ldr	r0, [r4, #56]	@ 0x38
 8000836:	7123      	strb	r3, [r4, #4]
 8000838:	f001 fd04 	bl	8002244 <HAL_GPIO_ReadPin>
 800083c:	7923      	ldrb	r3, [r4, #4]
 800083e:	f8b4 1044 	ldrh.w	r1, [r4, #68]	@ 0x44
 8000842:	fab0 f080 	clz	r0, r0
 8000846:	0940      	lsrs	r0, r0, #5
 8000848:	f360 1386 	bfi	r3, r0, #6, #1
 800084c:	6c20      	ldr	r0, [r4, #64]	@ 0x40
 800084e:	7123      	strb	r3, [r4, #4]
 8000850:	f001 fcf8 	bl	8002244 <HAL_GPIO_ReadPin>
 8000854:	7923      	ldrb	r3, [r4, #4]
 8000856:	fab0 f080 	clz	r0, r0
 800085a:	0940      	lsrs	r0, r0, #5
 800085c:	f360 13c7 	bfi	r3, r0, #7, #1
 8000860:	7123      	strb	r3, [r4, #4]
 8000862:	4c96      	ldr	r4, [pc, #600]	@ (8000abc <gpioScan+0x314>)
 8000864:	89a1      	ldrh	r1, [r4, #12]
 8000866:	68a0      	ldr	r0, [r4, #8]
 8000868:	f001 fcec 	bl	8002244 <HAL_GPIO_ReadPin>
 800086c:	7923      	ldrb	r3, [r4, #4]
 800086e:	8aa1      	ldrh	r1, [r4, #20]
 8000870:	fab0 f080 	clz	r0, r0
 8000874:	0940      	lsrs	r0, r0, #5
 8000876:	f360 0300 	bfi	r3, r0, #0, #1
 800087a:	6920      	ldr	r0, [r4, #16]
 800087c:	7123      	strb	r3, [r4, #4]
 800087e:	f001 fce1 	bl	8002244 <HAL_GPIO_ReadPin>
 8000882:	7923      	ldrb	r3, [r4, #4]
 8000884:	8ba1      	ldrh	r1, [r4, #28]
 8000886:	fab0 f080 	clz	r0, r0
 800088a:	0940      	lsrs	r0, r0, #5
 800088c:	f360 0341 	bfi	r3, r0, #1, #1
 8000890:	69a0      	ldr	r0, [r4, #24]
 8000892:	7123      	strb	r3, [r4, #4]
 8000894:	f001 fcd6 	bl	8002244 <HAL_GPIO_ReadPin>
 8000898:	7923      	ldrb	r3, [r4, #4]
 800089a:	8ca1      	ldrh	r1, [r4, #36]	@ 0x24
 800089c:	fab0 f080 	clz	r0, r0
 80008a0:	0940      	lsrs	r0, r0, #5
 80008a2:	f360 0382 	bfi	r3, r0, #2, #1
 80008a6:	6a20      	ldr	r0, [r4, #32]
 80008a8:	7123      	strb	r3, [r4, #4]
 80008aa:	f001 fccb 	bl	8002244 <HAL_GPIO_ReadPin>
 80008ae:	7923      	ldrb	r3, [r4, #4]
 80008b0:	8da1      	ldrh	r1, [r4, #44]	@ 0x2c
 80008b2:	fab0 f080 	clz	r0, r0
 80008b6:	0940      	lsrs	r0, r0, #5
 80008b8:	f360 03c3 	bfi	r3, r0, #3, #1
 80008bc:	6aa0      	ldr	r0, [r4, #40]	@ 0x28
 80008be:	7123      	strb	r3, [r4, #4]
 80008c0:	f001 fcc0 	bl	8002244 <HAL_GPIO_ReadPin>
 80008c4:	7923      	ldrb	r3, [r4, #4]
 80008c6:	8ea1      	ldrh	r1, [r4, #52]	@ 0x34
 80008c8:	fab0 f080 	clz	r0, r0
 80008cc:	0940      	lsrs	r0, r0, #5
 80008ce:	f360 1304 	bfi	r3, r0, #4, #1
 80008d2:	6b20      	ldr	r0, [r4, #48]	@ 0x30
 80008d4:	7123      	strb	r3, [r4, #4]
 80008d6:	f001 fcb5 	bl	8002244 <HAL_GPIO_ReadPin>
 80008da:	7923      	ldrb	r3, [r4, #4]
 80008dc:	8fa1      	ldrh	r1, [r4, #60]	@ 0x3c
 80008de:	fab0 f080 	clz	r0, r0
 80008e2:	0940      	lsrs	r0, r0, #5
 80008e4:	f360 1345 	bfi	r3, r0, #5, #1
 80008e8:	6ba0      	ldr	r0, [r4, #56]	@ 0x38
 80008ea:	7123      	strb	r3, [r4, #4]
 80008ec:	f001 fcaa 	bl	8002244 <HAL_GPIO_ReadPin>
 80008f0:	7923      	ldrb	r3, [r4, #4]
 80008f2:	f8b4 1044 	ldrh.w	r1, [r4, #68]	@ 0x44
 80008f6:	fab0 f080 	clz	r0, r0
 80008fa:	0940      	lsrs	r0, r0, #5
 80008fc:	f360 1386 	bfi	r3, r0, #6, #1
 8000900:	6c20      	ldr	r0, [r4, #64]	@ 0x40
 8000902:	7123      	strb	r3, [r4, #4]
 8000904:	f001 fc9e 	bl	8002244 <HAL_GPIO_ReadPin>
 8000908:	7923      	ldrb	r3, [r4, #4]
 800090a:	fab0 f080 	clz	r0, r0
 800090e:	0940      	lsrs	r0, r0, #5
 8000910:	f360 13c7 	bfi	r3, r0, #7, #1
 8000914:	7123      	strb	r3, [r4, #4]
 8000916:	4c6a      	ldr	r4, [pc, #424]	@ (8000ac0 <gpioScan+0x318>)
 8000918:	89a1      	ldrh	r1, [r4, #12]
 800091a:	68a0      	ldr	r0, [r4, #8]
 800091c:	f001 fc92 	bl	8002244 <HAL_GPIO_ReadPin>
 8000920:	7923      	ldrb	r3, [r4, #4]
 8000922:	8aa1      	ldrh	r1, [r4, #20]
 8000924:	fab0 f080 	clz	r0, r0
 8000928:	0940      	lsrs	r0, r0, #5
 800092a:	f360 0300 	bfi	r3, r0, #0, #1
 800092e:	6920      	ldr	r0, [r4, #16]
 8000930:	7123      	strb	r3, [r4, #4]
 8000932:	f001 fc87 	bl	8002244 <HAL_GPIO_ReadPin>
 8000936:	7923      	ldrb	r3, [r4, #4]
 8000938:	8ba1      	ldrh	r1, [r4, #28]
 800093a:	fab0 f080 	clz	r0, r0
 800093e:	0940      	lsrs	r0, r0, #5
 8000940:	f360 0341 	bfi	r3, r0, #1, #1
 8000944:	69a0      	ldr	r0, [r4, #24]
 8000946:	7123      	strb	r3, [r4, #4]
 8000948:	f001 fc7c 	bl	8002244 <HAL_GPIO_ReadPin>
 800094c:	7923      	ldrb	r3, [r4, #4]
 800094e:	8ca1      	ldrh	r1, [r4, #36]	@ 0x24
 8000950:	fab0 f080 	clz	r0, r0
 8000954:	0940      	lsrs	r0, r0, #5
 8000956:	f360 0382 	bfi	r3, r0, #2, #1
 800095a:	6a20      	ldr	r0, [r4, #32]
 800095c:	7123      	strb	r3, [r4, #4]
 800095e:	f001 fc71 	bl	8002244 <HAL_GPIO_ReadPin>
 8000962:	7923      	ldrb	r3, [r4, #4]
 8000964:	8da1      	ldrh	r1, [r4, #44]	@ 0x2c
 8000966:	fab0 f080 	clz	r0, r0
 800096a:	0940      	lsrs	r0, r0, #5
 800096c:	f360 03c3 	bfi	r3, r0, #3, #1
 8000970:	6aa0      	ldr	r0, [r4, #40]	@ 0x28
 8000972:	7123      	strb	r3, [r4, #4]
 8000974:	f001 fc66 	bl	8002244 <HAL_GPIO_ReadPin>
 8000978:	7923      	ldrb	r3, [r4, #4]
 800097a:	8ea1      	ldrh	r1, [r4, #52]	@ 0x34
 800097c:	fab0 f080 	clz	r0, r0
 8000980:	0940      	lsrs	r0, r0, #5
 8000982:	f360 1304 	bfi	r3, r0, #4, #1
 8000986:	6b20      	ldr	r0, [r4, #48]	@ 0x30
 8000988:	7123      	strb	r3, [r4, #4]
 800098a:	f001 fc5b 	bl	8002244 <HAL_GPIO_ReadPin>
 800098e:	7923      	ldrb	r3, [r4, #4]
 8000990:	8fa1      	ldrh	r1, [r4, #60]	@ 0x3c
 8000992:	fab0 f080 	clz	r0, r0
 8000996:	0940      	lsrs	r0, r0, #5
 8000998:	f360 1345 	bfi	r3, r0, #5, #1
 800099c:	6ba0      	ldr	r0, [r4, #56]	@ 0x38
 800099e:	7123      	strb	r3, [r4, #4]
 80009a0:	f001 fc50 	bl	8002244 <HAL_GPIO_ReadPin>
 80009a4:	7923      	ldrb	r3, [r4, #4]
 80009a6:	f8b4 1044 	ldrh.w	r1, [r4, #68]	@ 0x44
 80009aa:	fab0 f080 	clz	r0, r0
 80009ae:	0940      	lsrs	r0, r0, #5
 80009b0:	f360 1386 	bfi	r3, r0, #6, #1
 80009b4:	6c20      	ldr	r0, [r4, #64]	@ 0x40
 80009b6:	7123      	strb	r3, [r4, #4]
 80009b8:	f001 fc44 	bl	8002244 <HAL_GPIO_ReadPin>
 80009bc:	7923      	ldrb	r3, [r4, #4]
 80009be:	fab0 f080 	clz	r0, r0
 80009c2:	0940      	lsrs	r0, r0, #5
 80009c4:	f360 13c7 	bfi	r3, r0, #7, #1
 80009c8:	2110      	movs	r1, #16
 80009ca:	4630      	mov	r0, r6
 80009cc:	7123      	strb	r3, [r4, #4]
 80009ce:	f001 fc39 	bl	8002244 <HAL_GPIO_ReadPin>
 80009d2:	4c3c      	ldr	r4, [pc, #240]	@ (8000ac4 <gpioScan+0x31c>)
 80009d4:	fab0 f080 	clz	r0, r0
 80009d8:	7823      	ldrb	r3, [r4, #0]
 80009da:	0940      	lsrs	r0, r0, #5
 80009dc:	f360 0382 	bfi	r3, r0, #2, #1
 80009e0:	2120      	movs	r1, #32
 80009e2:	4630      	mov	r0, r6
 80009e4:	7023      	strb	r3, [r4, #0]
 80009e6:	f001 fc2d 	bl	8002244 <HAL_GPIO_ReadPin>
 80009ea:	7823      	ldrb	r3, [r4, #0]
 80009ec:	fab0 f080 	clz	r0, r0
 80009f0:	0940      	lsrs	r0, r0, #5
 80009f2:	f360 0341 	bfi	r3, r0, #1, #1
 80009f6:	f44f 6180 	mov.w	r1, #1024	@ 0x400
 80009fa:	4628      	mov	r0, r5
 80009fc:	7023      	strb	r3, [r4, #0]
 80009fe:	f001 fc21 	bl	8002244 <HAL_GPIO_ReadPin>
 8000a02:	7823      	ldrb	r3, [r4, #0]
 8000a04:	fab0 f080 	clz	r0, r0
 8000a08:	0940      	lsrs	r0, r0, #5
 8000a0a:	f360 0300 	bfi	r3, r0, #0, #1
 8000a0e:	2140      	movs	r1, #64	@ 0x40
 8000a10:	4630      	mov	r0, r6
 8000a12:	7023      	strb	r3, [r4, #0]
 8000a14:	f001 fc16 	bl	8002244 <HAL_GPIO_ReadPin>
 8000a18:	7823      	ldrb	r3, [r4, #0]
 8000a1a:	fab0 f080 	clz	r0, r0
 8000a1e:	0940      	lsrs	r0, r0, #5
 8000a20:	f360 1304 	bfi	r3, r0, #4, #1
 8000a24:	2180      	movs	r1, #128	@ 0x80
 8000a26:	4630      	mov	r0, r6
 8000a28:	7023      	strb	r3, [r4, #0]
 8000a2a:	f001 fc0b 	bl	8002244 <HAL_GPIO_ReadPin>
 8000a2e:	7823      	ldrb	r3, [r4, #0]
 8000a30:	fab0 f080 	clz	r0, r0
 8000a34:	0940      	lsrs	r0, r0, #5
 8000a36:	f360 1345 	bfi	r3, r0, #5, #1
 8000a3a:	f44f 7100 	mov.w	r1, #512	@ 0x200
 8000a3e:	4628      	mov	r0, r5
 8000a40:	7023      	strb	r3, [r4, #0]
 8000a42:	f001 fbff 	bl	8002244 <HAL_GPIO_ReadPin>
 8000a46:	7823      	ldrb	r3, [r4, #0]
 8000a48:	fab0 f080 	clz	r0, r0
 8000a4c:	0940      	lsrs	r0, r0, #5
 8000a4e:	f360 03c3 	bfi	r3, r0, #3, #1
 8000a52:	7023      	strb	r3, [r4, #0]
 8000a54:	7823      	ldrb	r3, [r4, #0]
 8000a56:	f043 0340 	orr.w	r3, r3, #64	@ 0x40
 8000a5a:	7023      	strb	r3, [r4, #0]
 8000a5c:	4c1a      	ldr	r4, [pc, #104]	@ (8000ac8 <gpioScan+0x320>)
 8000a5e:	6822      	ldr	r2, [r4, #0]
 8000a60:	4628      	mov	r0, r5
 8000a62:	f3c2 0240 	ubfx	r2, r2, #1, #1
 8000a66:	2110      	movs	r1, #16
 8000a68:	f001 fbf2 	bl	8002250 <HAL_GPIO_WritePin>
 8000a6c:	6822      	ldr	r2, [r4, #0]
 8000a6e:	4628      	mov	r0, r5
 8000a70:	f002 0201 	and.w	r2, r2, #1
 8000a74:	2120      	movs	r1, #32
 8000a76:	f001 fbeb 	bl	8002250 <HAL_GPIO_WritePin>
 8000a7a:	6822      	ldr	r2, [r4, #0]
 8000a7c:	4628      	mov	r0, r5
 8000a7e:	f3c2 0280 	ubfx	r2, r2, #2, #1
 8000a82:	2140      	movs	r1, #64	@ 0x40
 8000a84:	f001 fbe4 	bl	8002250 <HAL_GPIO_WritePin>
 8000a88:	6822      	ldr	r2, [r4, #0]
 8000a8a:	4628      	mov	r0, r5
 8000a8c:	f3c2 1240 	ubfx	r2, r2, #5, #1
 8000a90:	2180      	movs	r1, #128	@ 0x80
 8000a92:	f001 fbdd 	bl	8002250 <HAL_GPIO_WritePin>
 8000a96:	6822      	ldr	r2, [r4, #0]
 8000a98:	4628      	mov	r0, r5
 8000a9a:	f3c2 02c0 	ubfx	r2, r2, #3, #1
 8000a9e:	f44f 7180 	mov.w	r1, #256	@ 0x100
 8000aa2:	f001 fbd5 	bl	8002250 <HAL_GPIO_WritePin>
 8000aa6:	e8bd 4070 	ldmia.w	sp!, {r4, r5, r6, lr}
 8000aaa:	f7ff bde5 	b.w	8000678 <checkAndSendInputChanges>
 8000aae:	bf00      	nop
 8000ab0:	20000204 	.word	0x20000204
 8000ab4:	40020c00 	.word	0x40020c00
 8000ab8:	40021800 	.word	0x40021800
 8000abc:	20000104 	.word	0x20000104
 8000ac0:	20000004 	.word	0x20000004
 8000ac4:	20002cac 	.word	0x20002cac
 8000ac8:	20002ca8 	.word	0x20002ca8

08000acc <IAI_Move>:
 8000acc:	f890 30dc 	ldrb.w	r3, [r0, #220]	@ 0xdc
 8000ad0:	f023 0304 	bic.w	r3, r3, #4
 8000ad4:	b570      	push	{r4, r5, r6, lr}
 8000ad6:	f880 30dc 	strb.w	r3, [r0, #220]	@ 0xdc
 8000ada:	f890 30d8 	ldrb.w	r3, [r0, #216]	@ 0xd8
 8000ade:	4e4b      	ldr	r6, [pc, #300]	@ (8000c0c <IAI_Move+0x140>)
 8000ae0:	f023 0304 	bic.w	r3, r3, #4
 8000ae4:	4604      	mov	r4, r0
 8000ae6:	460d      	mov	r5, r1
 8000ae8:	f880 30d8 	strb.w	r3, [r0, #216]	@ 0xd8
 8000aec:	f8b4 1054 	ldrh.w	r1, [r4, #84]	@ 0x54
 8000af0:	6d20      	ldr	r0, [r4, #80]	@ 0x50
 8000af2:	f001 fba7 	bl	8002244 <HAL_GPIO_ReadPin>
 8000af6:	7833      	ldrb	r3, [r6, #0]
 8000af8:	b918      	cbnz	r0, 8000b02 <IAI_Move+0x36>
 8000afa:	b943      	cbnz	r3, 8000b0e <IAI_Move+0x42>
 8000afc:	2500      	movs	r5, #0
 8000afe:	4628      	mov	r0, r5
 8000b00:	bd70      	pop	{r4, r5, r6, pc}
 8000b02:	2b00      	cmp	r3, #0
 8000b04:	d0fa      	beq.n	8000afc <IAI_Move+0x30>
 8000b06:	200a      	movs	r0, #10
 8000b08:	f005 fa18 	bl	8005f3c <vTaskDelay>
 8000b0c:	e7ee      	b.n	8000aec <IAI_Move+0x20>
 8000b0e:	f8b4 106c 	ldrh.w	r1, [r4, #108]	@ 0x6c
 8000b12:	6ea0      	ldr	r0, [r4, #104]	@ 0x68
 8000b14:	7025      	strb	r5, [r4, #0]
 8000b16:	f005 0201 	and.w	r2, r5, #1
 8000b1a:	f001 fb99 	bl	8002250 <HAL_GPIO_WritePin>
 8000b1e:	f8b4 1074 	ldrh.w	r1, [r4, #116]	@ 0x74
 8000b22:	6f20      	ldr	r0, [r4, #112]	@ 0x70
 8000b24:	f3c5 0240 	ubfx	r2, r5, #1, #1
 8000b28:	f001 fb92 	bl	8002250 <HAL_GPIO_WritePin>
 8000b2c:	f8b4 107c 	ldrh.w	r1, [r4, #124]	@ 0x7c
 8000b30:	6fa0      	ldr	r0, [r4, #120]	@ 0x78
 8000b32:	f3c5 0280 	ubfx	r2, r5, #2, #1
 8000b36:	f001 fb8b 	bl	8002250 <HAL_GPIO_WritePin>
 8000b3a:	f8b4 1084 	ldrh.w	r1, [r4, #132]	@ 0x84
 8000b3e:	f8d4 0080 	ldr.w	r0, [r4, #128]	@ 0x80
 8000b42:	f3c5 02c0 	ubfx	r2, r5, #3, #1
 8000b46:	f001 fb83 	bl	8002250 <HAL_GPIO_WritePin>
 8000b4a:	f8b4 108c 	ldrh.w	r1, [r4, #140]	@ 0x8c
 8000b4e:	f8d4 0088 	ldr.w	r0, [r4, #136]	@ 0x88
 8000b52:	f3c5 1200 	ubfx	r2, r5, #4, #1
 8000b56:	f001 fb7b 	bl	8002250 <HAL_GPIO_WritePin>
 8000b5a:	f8b4 1094 	ldrh.w	r1, [r4, #148]	@ 0x94
 8000b5e:	f8d4 0090 	ldr.w	r0, [r4, #144]	@ 0x90
 8000b62:	f3c5 1240 	ubfx	r2, r5, #5, #1
 8000b66:	f001 fb73 	bl	8002250 <HAL_GPIO_WritePin>
 8000b6a:	f8b4 109c 	ldrh.w	r1, [r4, #156]	@ 0x9c
 8000b6e:	f8d4 0098 	ldr.w	r0, [r4, #152]	@ 0x98
 8000b72:	f3c5 1280 	ubfx	r2, r5, #6, #1
 8000b76:	f001 fb6b 	bl	8002250 <HAL_GPIO_WritePin>
 8000b7a:	f8b4 10a4 	ldrh.w	r1, [r4, #164]	@ 0xa4
 8000b7e:	f8d4 00a0 	ldr.w	r0, [r4, #160]	@ 0xa0
 8000b82:	09ea      	lsrs	r2, r5, #7
 8000b84:	f001 fb64 	bl	8002250 <HAL_GPIO_WritePin>
 8000b88:	201e      	movs	r0, #30
 8000b8a:	f005 f9d7 	bl	8005f3c <vTaskDelay>
 8000b8e:	f8b4 10c4 	ldrh.w	r1, [r4, #196]	@ 0xc4
 8000b92:	f8d4 00c0 	ldr.w	r0, [r4, #192]	@ 0xc0
 8000b96:	2201      	movs	r2, #1
 8000b98:	f001 fb5a 	bl	8002250 <HAL_GPIO_WritePin>
 8000b9c:	f8b4 1054 	ldrh.w	r1, [r4, #84]	@ 0x54
 8000ba0:	6d20      	ldr	r0, [r4, #80]	@ 0x50
 8000ba2:	f001 fb4f 	bl	8002244 <HAL_GPIO_ReadPin>
 8000ba6:	7833      	ldrb	r3, [r6, #0]
 8000ba8:	b310      	cbz	r0, 8000bf0 <IAI_Move+0x124>
 8000baa:	2b00      	cmp	r3, #0
 8000bac:	d0a6      	beq.n	8000afc <IAI_Move+0x30>
 8000bae:	2014      	movs	r0, #20
 8000bb0:	f005 f9c4 	bl	8005f3c <vTaskDelay>
 8000bb4:	f8b4 10c4 	ldrh.w	r1, [r4, #196]	@ 0xc4
 8000bb8:	f8d4 00c0 	ldr.w	r0, [r4, #192]	@ 0xc0
 8000bbc:	2200      	movs	r2, #0
 8000bbe:	f001 fb47 	bl	8002250 <HAL_GPIO_WritePin>
 8000bc2:	f8b4 1054 	ldrh.w	r1, [r4, #84]	@ 0x54
 8000bc6:	6d20      	ldr	r0, [r4, #80]	@ 0x50
 8000bc8:	f001 fb3c 	bl	8002244 <HAL_GPIO_ReadPin>
 8000bcc:	b9b0      	cbnz	r0, 8000bfc <IAI_Move+0x130>
 8000bce:	7835      	ldrb	r5, [r6, #0]
 8000bd0:	2d00      	cmp	r5, #0
 8000bd2:	d093      	beq.n	8000afc <IAI_Move+0x30>
 8000bd4:	2064      	movs	r0, #100	@ 0x64
 8000bd6:	f005 f9b1 	bl	8005f3c <vTaskDelay>
 8000bda:	7922      	ldrb	r2, [r4, #4]
 8000bdc:	7823      	ldrb	r3, [r4, #0]
 8000bde:	429a      	cmp	r2, r3
 8000be0:	d18c      	bne.n	8000afc <IAI_Move+0x30>
 8000be2:	f894 30dc 	ldrb.w	r3, [r4, #220]	@ 0xdc
 8000be6:	f043 0304 	orr.w	r3, r3, #4
 8000bea:	f884 30dc 	strb.w	r3, [r4, #220]	@ 0xdc
 8000bee:	e786      	b.n	8000afe <IAI_Move+0x32>
 8000bf0:	2b00      	cmp	r3, #0
 8000bf2:	d083      	beq.n	8000afc <IAI_Move+0x30>
 8000bf4:	2003      	movs	r0, #3
 8000bf6:	f005 f9a1 	bl	8005f3c <vTaskDelay>
 8000bfa:	e7cf      	b.n	8000b9c <IAI_Move+0xd0>
 8000bfc:	7833      	ldrb	r3, [r6, #0]
 8000bfe:	2b00      	cmp	r3, #0
 8000c00:	f43f af7c 	beq.w	8000afc <IAI_Move+0x30>
 8000c04:	2003      	movs	r0, #3
 8000c06:	f005 f999 	bl	8005f3c <vTaskDelay>
 8000c0a:	e7da      	b.n	8000bc2 <IAI_Move+0xf6>
 8000c0c:	20001ca4 	.word	0x20001ca4

08000c10 <IAI_Home>:
 8000c10:	b538      	push	{r3, r4, r5, lr}
 8000c12:	f890 30dc 	ldrb.w	r3, [r0, #220]	@ 0xdc
 8000c16:	f8b0 10b4 	ldrh.w	r1, [r0, #180]	@ 0xb4
 8000c1a:	4d21      	ldr	r5, [pc, #132]	@ (8000ca0 <IAI_Home+0x90>)
 8000c1c:	f023 0302 	bic.w	r3, r3, #2
 8000c20:	f880 30dc 	strb.w	r3, [r0, #220]	@ 0xdc
 8000c24:	f890 30d8 	ldrb.w	r3, [r0, #216]	@ 0xd8
 8000c28:	f023 0302 	bic.w	r3, r3, #2
 8000c2c:	f880 30d8 	strb.w	r3, [r0, #216]	@ 0xd8
 8000c30:	4604      	mov	r4, r0
 8000c32:	2201      	movs	r2, #1
 8000c34:	f8d0 00b0 	ldr.w	r0, [r0, #176]	@ 0xb0
 8000c38:	f001 fb0a 	bl	8002250 <HAL_GPIO_WritePin>
 8000c3c:	f8b4 104c 	ldrh.w	r1, [r4, #76]	@ 0x4c
 8000c40:	6ca0      	ldr	r0, [r4, #72]	@ 0x48
 8000c42:	f001 faff 	bl	8002244 <HAL_GPIO_ReadPin>
 8000c46:	782b      	ldrb	r3, [r5, #0]
 8000c48:	b110      	cbz	r0, 8000c50 <IAI_Home+0x40>
 8000c4a:	b93b      	cbnz	r3, 8000c5c <IAI_Home+0x4c>
 8000c4c:	2000      	movs	r0, #0
 8000c4e:	bd38      	pop	{r3, r4, r5, pc}
 8000c50:	2b00      	cmp	r3, #0
 8000c52:	d0fb      	beq.n	8000c4c <IAI_Home+0x3c>
 8000c54:	200a      	movs	r0, #10
 8000c56:	f005 f971 	bl	8005f3c <vTaskDelay>
 8000c5a:	e7ef      	b.n	8000c3c <IAI_Home+0x2c>
 8000c5c:	201e      	movs	r0, #30
 8000c5e:	f005 f96d 	bl	8005f3c <vTaskDelay>
 8000c62:	f8b4 10b4 	ldrh.w	r1, [r4, #180]	@ 0xb4
 8000c66:	f8d4 00b0 	ldr.w	r0, [r4, #176]	@ 0xb0
 8000c6a:	2200      	movs	r2, #0
 8000c6c:	f001 faf0 	bl	8002250 <HAL_GPIO_WritePin>
 8000c70:	f8b4 104c 	ldrh.w	r1, [r4, #76]	@ 0x4c
 8000c74:	6ca0      	ldr	r0, [r4, #72]	@ 0x48
 8000c76:	f001 fae5 	bl	8002244 <HAL_GPIO_ReadPin>
 8000c7a:	b148      	cbz	r0, 8000c90 <IAI_Home+0x80>
 8000c7c:	7828      	ldrb	r0, [r5, #0]
 8000c7e:	2800      	cmp	r0, #0
 8000c80:	d0e4      	beq.n	8000c4c <IAI_Home+0x3c>
 8000c82:	f894 30dc 	ldrb.w	r3, [r4, #220]	@ 0xdc
 8000c86:	f043 0302 	orr.w	r3, r3, #2
 8000c8a:	f884 30dc 	strb.w	r3, [r4, #220]	@ 0xdc
 8000c8e:	e7de      	b.n	8000c4e <IAI_Home+0x3e>
 8000c90:	782b      	ldrb	r3, [r5, #0]
 8000c92:	2b00      	cmp	r3, #0
 8000c94:	d0da      	beq.n	8000c4c <IAI_Home+0x3c>
 8000c96:	200a      	movs	r0, #10
 8000c98:	f005 f950 	bl	8005f3c <vTaskDelay>
 8000c9c:	e7e8      	b.n	8000c70 <IAI_Home+0x60>
 8000c9e:	bf00      	nop
 8000ca0:	20001ca4 	.word	0x20001ca4

08000ca4 <IAI_Pause>:
 8000ca4:	b508      	push	{r3, lr}
 8000ca6:	f8b0 10bc 	ldrh.w	r1, [r0, #188]	@ 0xbc
 8000caa:	f8d0 00b8 	ldr.w	r0, [r0, #184]	@ 0xb8
 8000cae:	2201      	movs	r2, #1
 8000cb0:	f001 face 	bl	8002250 <HAL_GPIO_WritePin>
 8000cb4:	2001      	movs	r0, #1
 8000cb6:	bd08      	pop	{r3, pc}

08000cb8 <IAI_Continues>:
 8000cb8:	b508      	push	{r3, lr}
 8000cba:	f8b0 10bc 	ldrh.w	r1, [r0, #188]	@ 0xbc
 8000cbe:	f8d0 00b8 	ldr.w	r0, [r0, #184]	@ 0xb8
 8000cc2:	2200      	movs	r2, #0
 8000cc4:	f001 fac4 	bl	8002250 <HAL_GPIO_WritePin>
 8000cc8:	2001      	movs	r0, #1
 8000cca:	bd08      	pop	{r3, pc}

08000ccc <IAI_Stop>:
 8000ccc:	b508      	push	{r3, lr}
 8000cce:	f8b0 10d4 	ldrh.w	r1, [r0, #212]	@ 0xd4
 8000cd2:	f8d0 00d0 	ldr.w	r0, [r0, #208]	@ 0xd0
 8000cd6:	2200      	movs	r2, #0
 8000cd8:	f001 faba 	bl	8002250 <HAL_GPIO_WritePin>
 8000cdc:	2001      	movs	r0, #1
 8000cde:	bd08      	pop	{r3, pc}

08000ce0 <IAI_Prepare>:
 8000ce0:	b538      	push	{r3, r4, r5, lr}
 8000ce2:	f890 30d8 	ldrb.w	r3, [r0, #216]	@ 0xd8
 8000ce6:	f8b0 10d4 	ldrh.w	r1, [r0, #212]	@ 0xd4
 8000cea:	4d17      	ldr	r5, [pc, #92]	@ (8000d48 <IAI_Prepare+0x68>)
 8000cec:	f023 0301 	bic.w	r3, r3, #1
 8000cf0:	f880 30d8 	strb.w	r3, [r0, #216]	@ 0xd8
 8000cf4:	f890 30dc 	ldrb.w	r3, [r0, #220]	@ 0xdc
 8000cf8:	f023 0301 	bic.w	r3, r3, #1
 8000cfc:	f880 30dc 	strb.w	r3, [r0, #220]	@ 0xdc
 8000d00:	4604      	mov	r4, r0
 8000d02:	2201      	movs	r2, #1
 8000d04:	f8d0 00d0 	ldr.w	r0, [r0, #208]	@ 0xd0
 8000d08:	f001 faa2 	bl	8002250 <HAL_GPIO_WritePin>
 8000d0c:	f8b4 105c 	ldrh.w	r1, [r4, #92]	@ 0x5c
 8000d10:	6da0      	ldr	r0, [r4, #88]	@ 0x58
 8000d12:	f001 fa97 	bl	8002244 <HAL_GPIO_ReadPin>
 8000d16:	b948      	cbnz	r0, 8000d2c <IAI_Prepare+0x4c>
 8000d18:	f8d4 00b8 	ldr.w	r0, [r4, #184]	@ 0xb8
 8000d1c:	f8b4 10bc 	ldrh.w	r1, [r4, #188]	@ 0xbc
 8000d20:	2201      	movs	r2, #1
 8000d22:	f001 fa95 	bl	8002250 <HAL_GPIO_WritePin>
 8000d26:	7828      	ldrb	r0, [r5, #0]
 8000d28:	b938      	cbnz	r0, 8000d3a <IAI_Prepare+0x5a>
 8000d2a:	bd38      	pop	{r3, r4, r5, pc}
 8000d2c:	782b      	ldrb	r3, [r5, #0]
 8000d2e:	2b00      	cmp	r3, #0
 8000d30:	d0f2      	beq.n	8000d18 <IAI_Prepare+0x38>
 8000d32:	2003      	movs	r0, #3
 8000d34:	f005 f902 	bl	8005f3c <vTaskDelay>
 8000d38:	e7e8      	b.n	8000d0c <IAI_Prepare+0x2c>
 8000d3a:	f894 30dc 	ldrb.w	r3, [r4, #220]	@ 0xdc
 8000d3e:	f043 0301 	orr.w	r3, r3, #1
 8000d42:	f884 30dc 	strb.w	r3, [r4, #220]	@ 0xdc
 8000d46:	e7f0      	b.n	8000d2a <IAI_Prepare+0x4a>
 8000d48:	20001ca4 	.word	0x20001ca4

08000d4c <IAI_Clear>:
 8000d4c:	b510      	push	{r4, lr}
 8000d4e:	4604      	mov	r4, r0
 8000d50:	f8b0 10ac 	ldrh.w	r1, [r0, #172]	@ 0xac
 8000d54:	f8d0 00a8 	ldr.w	r0, [r0, #168]	@ 0xa8
 8000d58:	2200      	movs	r2, #0
 8000d5a:	f001 fa79 	bl	8002250 <HAL_GPIO_WritePin>
 8000d5e:	f8b4 10c4 	ldrh.w	r1, [r4, #196]	@ 0xc4
 8000d62:	f8d4 00c0 	ldr.w	r0, [r4, #192]	@ 0xc0
 8000d66:	2200      	movs	r2, #0
 8000d68:	f001 fa72 	bl	8002250 <HAL_GPIO_WritePin>
 8000d6c:	f8b4 10b4 	ldrh.w	r1, [r4, #180]	@ 0xb4
 8000d70:	f8d4 00b0 	ldr.w	r0, [r4, #176]	@ 0xb0
 8000d74:	2200      	movs	r2, #0
 8000d76:	f001 fa6b 	bl	8002250 <HAL_GPIO_WritePin>
 8000d7a:	f8b4 10cc 	ldrh.w	r1, [r4, #204]	@ 0xcc
 8000d7e:	f8d4 00c8 	ldr.w	r0, [r4, #200]	@ 0xc8
 8000d82:	2200      	movs	r2, #0
 8000d84:	f001 fa64 	bl	8002250 <HAL_GPIO_WritePin>
 8000d88:	f8b4 10bc 	ldrh.w	r1, [r4, #188]	@ 0xbc
 8000d8c:	f8d4 00b8 	ldr.w	r0, [r4, #184]	@ 0xb8
 8000d90:	2200      	movs	r2, #0
 8000d92:	f001 fa5d 	bl	8002250 <HAL_GPIO_WritePin>
 8000d96:	2014      	movs	r0, #20
 8000d98:	f005 f8d0 	bl	8005f3c <vTaskDelay>
 8000d9c:	2001      	movs	r0, #1
 8000d9e:	bd10      	pop	{r4, pc}

08000da0 <IAI_ClearError>:
 8000da0:	f890 30d8 	ldrb.w	r3, [r0, #216]	@ 0xd8
 8000da4:	f8b0 10cc 	ldrh.w	r1, [r0, #204]	@ 0xcc
 8000da8:	f023 0308 	bic.w	r3, r3, #8
 8000dac:	b570      	push	{r4, r5, r6, lr}
 8000dae:	f880 30d8 	strb.w	r3, [r0, #216]	@ 0xd8
 8000db2:	f890 30dc 	ldrb.w	r3, [r0, #220]	@ 0xdc
 8000db6:	4e16      	ldr	r6, [pc, #88]	@ (8000e10 <IAI_ClearError+0x70>)
 8000db8:	f023 0308 	bic.w	r3, r3, #8
 8000dbc:	f880 30dc 	strb.w	r3, [r0, #220]	@ 0xdc
 8000dc0:	4604      	mov	r4, r0
 8000dc2:	2201      	movs	r2, #1
 8000dc4:	f8d0 00c8 	ldr.w	r0, [r0, #200]	@ 0xc8
 8000dc8:	f001 fa42 	bl	8002250 <HAL_GPIO_WritePin>
 8000dcc:	f8b4 1064 	ldrh.w	r1, [r4, #100]	@ 0x64
 8000dd0:	6e20      	ldr	r0, [r4, #96]	@ 0x60
 8000dd2:	f001 fa37 	bl	8002244 <HAL_GPIO_ReadPin>
 8000dd6:	7835      	ldrb	r5, [r6, #0]
 8000dd8:	b110      	cbz	r0, 8000de0 <IAI_ClearError+0x40>
 8000dda:	b93d      	cbnz	r5, 8000dec <IAI_ClearError+0x4c>
 8000ddc:	4628      	mov	r0, r5
 8000dde:	bd70      	pop	{r4, r5, r6, pc}
 8000de0:	2d00      	cmp	r5, #0
 8000de2:	d0fb      	beq.n	8000ddc <IAI_ClearError+0x3c>
 8000de4:	200a      	movs	r0, #10
 8000de6:	f005 f8a9 	bl	8005f3c <vTaskDelay>
 8000dea:	e7ef      	b.n	8000dcc <IAI_ClearError+0x2c>
 8000dec:	201e      	movs	r0, #30
 8000dee:	f005 f8a5 	bl	8005f3c <vTaskDelay>
 8000df2:	f8b4 10cc 	ldrh.w	r1, [r4, #204]	@ 0xcc
 8000df6:	f8d4 00c8 	ldr.w	r0, [r4, #200]	@ 0xc8
 8000dfa:	2200      	movs	r2, #0
 8000dfc:	f001 fa28 	bl	8002250 <HAL_GPIO_WritePin>
 8000e00:	f894 30dc 	ldrb.w	r3, [r4, #220]	@ 0xdc
 8000e04:	f043 0308 	orr.w	r3, r3, #8
 8000e08:	f884 30dc 	strb.w	r3, [r4, #220]	@ 0xdc
 8000e0c:	e7e6      	b.n	8000ddc <IAI_ClearError+0x3c>
 8000e0e:	bf00      	nop
 8000e10:	20001ca4 	.word	0x20001ca4

08000e14 <IAIMovingHandled>:
 8000e14:	e92d 41ff 	stmdb	sp!, {r0, r1, r2, r3, r4, r5, r6, r7, r8, lr}
 8000e18:	4c88      	ldr	r4, [pc, #544]	@ (800103c <IAIMovingHandled+0x228>)
 8000e1a:	7823      	ldrb	r3, [r4, #0]
 8000e1c:	2b06      	cmp	r3, #6
 8000e1e:	d80b      	bhi.n	8000e38 <IAIMovingHandled+0x24>
 8000e20:	e8df f013 	tbh	[pc, r3, lsl #1]
 8000e24:	000d0007 	.word	0x000d0007
 8000e28:	004f00d2 	.word	0x004f00d2
 8000e2c:	00b7009b 	.word	0x00b7009b
 8000e30:	00c6      	.short	0x00c6
 8000e32:	4b83      	ldr	r3, [pc, #524]	@ (8001040 <IAIMovingHandled+0x22c>)
 8000e34:	2200      	movs	r2, #0
 8000e36:	701a      	strb	r2, [r3, #0]
 8000e38:	b004      	add	sp, #16
 8000e3a:	e8bd 81f0 	ldmia.w	sp!, {r4, r5, r6, r7, r8, pc}
 8000e3e:	4a80      	ldr	r2, [pc, #512]	@ (8001040 <IAIMovingHandled+0x22c>)
 8000e40:	4d80      	ldr	r5, [pc, #512]	@ (8001044 <IAIMovingHandled+0x230>)
 8000e42:	7813      	ldrb	r3, [r2, #0]
 8000e44:	2b01      	cmp	r3, #1
 8000e46:	d015      	beq.n	8000e74 <IAIMovingHandled+0x60>
 8000e48:	f895 30d8 	ldrb.w	r3, [r5, #216]	@ 0xd8
 8000e4c:	497e      	ldr	r1, [pc, #504]	@ (8001048 <IAIMovingHandled+0x234>)
 8000e4e:	f043 0301 	orr.w	r3, r3, #1
 8000e52:	f885 30d8 	strb.w	r3, [r5, #216]	@ 0xd8
 8000e56:	f891 30d8 	ldrb.w	r3, [r1, #216]	@ 0xd8
 8000e5a:	f043 0301 	orr.w	r3, r3, #1
 8000e5e:	f881 30d8 	strb.w	r3, [r1, #216]	@ 0xd8
 8000e62:	497a      	ldr	r1, [pc, #488]	@ (800104c <IAIMovingHandled+0x238>)
 8000e64:	f891 30d8 	ldrb.w	r3, [r1, #216]	@ 0xd8
 8000e68:	f043 0301 	orr.w	r3, r3, #1
 8000e6c:	f881 30d8 	strb.w	r3, [r1, #216]	@ 0xd8
 8000e70:	2301      	movs	r3, #1
 8000e72:	7013      	strb	r3, [r2, #0]
 8000e74:	f895 30dc 	ldrb.w	r3, [r5, #220]	@ 0xdc
 8000e78:	07de      	lsls	r6, r3, #31
 8000e7a:	d5dd      	bpl.n	8000e38 <IAIMovingHandled+0x24>
 8000e7c:	4f72      	ldr	r7, [pc, #456]	@ (8001048 <IAIMovingHandled+0x234>)
 8000e7e:	f897 30dc 	ldrb.w	r3, [r7, #220]	@ 0xdc
 8000e82:	07d8      	lsls	r0, r3, #31
 8000e84:	d5d8      	bpl.n	8000e38 <IAIMovingHandled+0x24>
 8000e86:	4e71      	ldr	r6, [pc, #452]	@ (800104c <IAIMovingHandled+0x238>)
 8000e88:	f896 30dc 	ldrb.w	r3, [r6, #220]	@ 0xdc
 8000e8c:	07d9      	lsls	r1, r3, #31
 8000e8e:	d5d3      	bpl.n	8000e38 <IAIMovingHandled+0x24>
 8000e90:	496f      	ldr	r1, [pc, #444]	@ (8001050 <IAIMovingHandled+0x23c>)
 8000e92:	4870      	ldr	r0, [pc, #448]	@ (8001054 <IAIMovingHandled+0x240>)
 8000e94:	f006 fabd 	bl	8007412 <strcpy>
 8000e98:	f895 30dc 	ldrb.w	r3, [r5, #220]	@ 0xdc
 8000e9c:	f023 0301 	bic.w	r3, r3, #1
 8000ea0:	f885 30dc 	strb.w	r3, [r5, #220]	@ 0xdc
 8000ea4:	f897 30dc 	ldrb.w	r3, [r7, #220]	@ 0xdc
 8000ea8:	f023 0301 	bic.w	r3, r3, #1
 8000eac:	f887 30dc 	strb.w	r3, [r7, #220]	@ 0xdc
 8000eb0:	f896 30dc 	ldrb.w	r3, [r6, #220]	@ 0xdc
 8000eb4:	f023 0301 	bic.w	r3, r3, #1
 8000eb8:	f886 30dc 	strb.w	r3, [r6, #220]	@ 0xdc
 8000ebc:	2300      	movs	r3, #0
 8000ebe:	7023      	strb	r3, [r4, #0]
 8000ec0:	e7ba      	b.n	8000e38 <IAIMovingHandled+0x24>
 8000ec2:	f8df 817c 	ldr.w	r8, [pc, #380]	@ 8001040 <IAIMovingHandled+0x22c>
 8000ec6:	4d5f      	ldr	r5, [pc, #380]	@ (8001044 <IAIMovingHandled+0x230>)
 8000ec8:	f898 3000 	ldrb.w	r3, [r8]
 8000ecc:	792e      	ldrb	r6, [r5, #4]
 8000ece:	782f      	ldrb	r7, [r5, #0]
 8000ed0:	2b03      	cmp	r3, #3
 8000ed2:	d028      	beq.n	8000f26 <IAIMovingHandled+0x112>
 8000ed4:	f44f 6200 	mov.w	r2, #2048	@ 0x800
 8000ed8:	2100      	movs	r1, #0
 8000eda:	485e      	ldr	r0, [pc, #376]	@ (8001054 <IAIMovingHandled+0x240>)
 8000edc:	f006 f9c1 	bl	8007262 <memset>
 8000ee0:	42be      	cmp	r6, r7
 8000ee2:	bf18      	it	ne
 8000ee4:	f895 30d8 	ldrbne.w	r3, [r5, #216]	@ 0xd8
 8000ee8:	4a57      	ldr	r2, [pc, #348]	@ (8001048 <IAIMovingHandled+0x234>)
 8000eea:	bf18      	it	ne
 8000eec:	f043 0304 	orrne.w	r3, r3, #4
 8000ef0:	7911      	ldrb	r1, [r2, #4]
 8000ef2:	bf18      	it	ne
 8000ef4:	f885 30d8 	strbne.w	r3, [r5, #216]	@ 0xd8
 8000ef8:	7813      	ldrb	r3, [r2, #0]
 8000efa:	4299      	cmp	r1, r3
 8000efc:	bf1e      	ittt	ne
 8000efe:	f892 30d8 	ldrbne.w	r3, [r2, #216]	@ 0xd8
 8000f02:	f043 0304 	orrne.w	r3, r3, #4
 8000f06:	f882 30d8 	strbne.w	r3, [r2, #216]	@ 0xd8
 8000f0a:	4a50      	ldr	r2, [pc, #320]	@ (800104c <IAIMovingHandled+0x238>)
 8000f0c:	7813      	ldrb	r3, [r2, #0]
 8000f0e:	7911      	ldrb	r1, [r2, #4]
 8000f10:	4299      	cmp	r1, r3
 8000f12:	bf1e      	ittt	ne
 8000f14:	f892 30d8 	ldrbne.w	r3, [r2, #216]	@ 0xd8
 8000f18:	f043 0304 	orrne.w	r3, r3, #4
 8000f1c:	f882 30d8 	strbne.w	r3, [r2, #216]	@ 0xd8
 8000f20:	2303      	movs	r3, #3
 8000f22:	f888 3000 	strb.w	r3, [r8]
 8000f26:	42be      	cmp	r6, r7
 8000f28:	d186      	bne.n	8000e38 <IAIMovingHandled+0x24>
 8000f2a:	4b47      	ldr	r3, [pc, #284]	@ (8001048 <IAIMovingHandled+0x234>)
 8000f2c:	791a      	ldrb	r2, [r3, #4]
 8000f2e:	781b      	ldrb	r3, [r3, #0]
 8000f30:	4293      	cmp	r3, r2
 8000f32:	d181      	bne.n	8000e38 <IAIMovingHandled+0x24>
 8000f34:	4a45      	ldr	r2, [pc, #276]	@ (800104c <IAIMovingHandled+0x238>)
 8000f36:	7911      	ldrb	r1, [r2, #4]
 8000f38:	7812      	ldrb	r2, [r2, #0]
 8000f3a:	428a      	cmp	r2, r1
 8000f3c:	f47f af7c 	bne.w	8000e38 <IAIMovingHandled+0x24>
 8000f40:	4945      	ldr	r1, [pc, #276]	@ (8001058 <IAIMovingHandled+0x244>)
 8000f42:	4844      	ldr	r0, [pc, #272]	@ (8001054 <IAIMovingHandled+0x240>)
 8000f44:	7809      	ldrb	r1, [r1, #0]
 8000f46:	9300      	str	r3, [sp, #0]
 8000f48:	e9cd 2101 	strd	r2, r1, [sp, #4]
 8000f4c:	4633      	mov	r3, r6
 8000f4e:	4a43      	ldr	r2, [pc, #268]	@ (800105c <IAIMovingHandled+0x248>)
 8000f50:	f44f 6100 	mov.w	r1, #2048	@ 0x800
 8000f54:	f006 f8de 	bl	8007114 <sniprintf>
 8000f58:	e7b0      	b.n	8000ebc <IAIMovingHandled+0xa8>
 8000f5a:	4b39      	ldr	r3, [pc, #228]	@ (8001040 <IAIMovingHandled+0x22c>)
 8000f5c:	781a      	ldrb	r2, [r3, #0]
 8000f5e:	2a04      	cmp	r2, #4
 8000f60:	d0ac      	beq.n	8000ebc <IAIMovingHandled+0xa8>
 8000f62:	2204      	movs	r2, #4
 8000f64:	701a      	strb	r2, [r3, #0]
 8000f66:	4a37      	ldr	r2, [pc, #220]	@ (8001044 <IAIMovingHandled+0x230>)
 8000f68:	f892 30d8 	ldrb.w	r3, [r2, #216]	@ 0xd8
 8000f6c:	f043 0302 	orr.w	r3, r3, #2
 8000f70:	f882 30d8 	strb.w	r3, [r2, #216]	@ 0xd8
 8000f74:	4a34      	ldr	r2, [pc, #208]	@ (8001048 <IAIMovingHandled+0x234>)
 8000f76:	f892 30d8 	ldrb.w	r3, [r2, #216]	@ 0xd8
 8000f7a:	f043 0302 	orr.w	r3, r3, #2
 8000f7e:	f882 30d8 	strb.w	r3, [r2, #216]	@ 0xd8
 8000f82:	4a32      	ldr	r2, [pc, #200]	@ (800104c <IAIMovingHandled+0x238>)
 8000f84:	f892 30d8 	ldrb.w	r3, [r2, #216]	@ 0xd8
 8000f88:	f043 0302 	orr.w	r3, r3, #2
 8000f8c:	f882 30d8 	strb.w	r3, [r2, #216]	@ 0xd8
 8000f90:	e794      	b.n	8000ebc <IAIMovingHandled+0xa8>
 8000f92:	482c      	ldr	r0, [pc, #176]	@ (8001044 <IAIMovingHandled+0x230>)
 8000f94:	f8d0 30e8 	ldr.w	r3, [r0, #232]	@ 0xe8
 8000f98:	4798      	blx	r3
 8000f9a:	482b      	ldr	r0, [pc, #172]	@ (8001048 <IAIMovingHandled+0x234>)
 8000f9c:	f8d0 30e8 	ldr.w	r3, [r0, #232]	@ 0xe8
 8000fa0:	4798      	blx	r3
 8000fa2:	482a      	ldr	r0, [pc, #168]	@ (800104c <IAIMovingHandled+0x238>)
 8000fa4:	f8d0 30e8 	ldr.w	r3, [r0, #232]	@ 0xe8
 8000fa8:	b004      	add	sp, #16
 8000faa:	e8bd 41f0 	ldmia.w	sp!, {r4, r5, r6, r7, r8, lr}
 8000fae:	4718      	bx	r3
 8000fb0:	4824      	ldr	r0, [pc, #144]	@ (8001044 <IAIMovingHandled+0x230>)
 8000fb2:	f8d0 30f0 	ldr.w	r3, [r0, #240]	@ 0xf0
 8000fb6:	4798      	blx	r3
 8000fb8:	4823      	ldr	r0, [pc, #140]	@ (8001048 <IAIMovingHandled+0x234>)
 8000fba:	f8d0 30f0 	ldr.w	r3, [r0, #240]	@ 0xf0
 8000fbe:	4798      	blx	r3
 8000fc0:	4822      	ldr	r0, [pc, #136]	@ (800104c <IAIMovingHandled+0x238>)
 8000fc2:	f8d0 30f0 	ldr.w	r3, [r0, #240]	@ 0xf0
 8000fc6:	e7ef      	b.n	8000fa8 <IAIMovingHandled+0x194>
 8000fc8:	4a1d      	ldr	r2, [pc, #116]	@ (8001040 <IAIMovingHandled+0x22c>)
 8000fca:	481e      	ldr	r0, [pc, #120]	@ (8001044 <IAIMovingHandled+0x230>)
 8000fcc:	7813      	ldrb	r3, [r2, #0]
 8000fce:	2b02      	cmp	r3, #2
 8000fd0:	d015      	beq.n	8000ffe <IAIMovingHandled+0x1ea>
 8000fd2:	f890 30d8 	ldrb.w	r3, [r0, #216]	@ 0xd8
 8000fd6:	491c      	ldr	r1, [pc, #112]	@ (8001048 <IAIMovingHandled+0x234>)
 8000fd8:	f043 0308 	orr.w	r3, r3, #8
 8000fdc:	f880 30d8 	strb.w	r3, [r0, #216]	@ 0xd8
 8000fe0:	f891 30d8 	ldrb.w	r3, [r1, #216]	@ 0xd8
 8000fe4:	f043 0308 	orr.w	r3, r3, #8
 8000fe8:	f881 30d8 	strb.w	r3, [r1, #216]	@ 0xd8
 8000fec:	4917      	ldr	r1, [pc, #92]	@ (800104c <IAIMovingHandled+0x238>)
 8000fee:	f891 30d8 	ldrb.w	r3, [r1, #216]	@ 0xd8
 8000ff2:	f043 0308 	orr.w	r3, r3, #8
 8000ff6:	f881 30d8 	strb.w	r3, [r1, #216]	@ 0xd8
 8000ffa:	2302      	movs	r3, #2
 8000ffc:	7013      	strb	r3, [r2, #0]
 8000ffe:	f890 10dc 	ldrb.w	r1, [r0, #220]	@ 0xdc
 8001002:	070a      	lsls	r2, r1, #28
 8001004:	f57f af18 	bpl.w	8000e38 <IAIMovingHandled+0x24>
 8001008:	4e0f      	ldr	r6, [pc, #60]	@ (8001048 <IAIMovingHandled+0x234>)
 800100a:	f896 20dc 	ldrb.w	r2, [r6, #220]	@ 0xdc
 800100e:	0713      	lsls	r3, r2, #28
 8001010:	f57f af12 	bpl.w	8000e38 <IAIMovingHandled+0x24>
 8001014:	4d0d      	ldr	r5, [pc, #52]	@ (800104c <IAIMovingHandled+0x238>)
 8001016:	f895 30dc 	ldrb.w	r3, [r5, #220]	@ 0xdc
 800101a:	071f      	lsls	r7, r3, #28
 800101c:	f57f af0c 	bpl.w	8000e38 <IAIMovingHandled+0x24>
 8001020:	f021 0108 	bic.w	r1, r1, #8
 8001024:	f022 0208 	bic.w	r2, r2, #8
 8001028:	f023 0308 	bic.w	r3, r3, #8
 800102c:	f880 10dc 	strb.w	r1, [r0, #220]	@ 0xdc
 8001030:	f886 20dc 	strb.w	r2, [r6, #220]	@ 0xdc
 8001034:	f885 30dc 	strb.w	r3, [r5, #220]	@ 0xdc
 8001038:	e740      	b.n	8000ebc <IAIMovingHandled+0xa8>
 800103a:	bf00      	nop
 800103c:	200014a3 	.word	0x200014a3
 8001040:	20000304 	.word	0x20000304
 8001044:	20000204 	.word	0x20000204
 8001048:	20000104 	.word	0x20000104
 800104c:	20000004 	.word	0x20000004
 8001050:	08008d5d 	.word	0x08008d5d
 8001054:	200014a4 	.word	0x200014a4
 8001058:	20000000 	.word	0x20000000
 800105c:	08008d64 	.word	0x08008d64

08001060 <processCommand>:
 8001060:	e92d 41f0 	stmdb	sp!, {r4, r5, r6, r7, r8, lr}
 8001064:	4993      	ldr	r1, [pc, #588]	@ (80012b4 <processCommand+0x254>)
 8001066:	b09a      	sub	sp, #104	@ 0x68
 8001068:	4604      	mov	r4, r0
 800106a:	f7ff f8b1 	bl	80001d0 <strcmp>
 800106e:	b968      	cbnz	r0, 800108c <processCommand+0x2c>
 8001070:	4a91      	ldr	r2, [pc, #580]	@ (80012b8 <processCommand+0x258>)
 8001072:	6813      	ldr	r3, [r2, #0]
 8001074:	2b01      	cmp	r3, #1
 8001076:	d006      	beq.n	8001086 <processCommand+0x26>
 8001078:	4990      	ldr	r1, [pc, #576]	@ (80012bc <processCommand+0x25c>)
 800107a:	780b      	ldrb	r3, [r1, #0]
 800107c:	f043 0304 	orr.w	r3, r3, #4
 8001080:	700b      	strb	r3, [r1, #0]
 8001082:	2301      	movs	r3, #1
 8001084:	6013      	str	r3, [r2, #0]
 8001086:	b01a      	add	sp, #104	@ 0x68
 8001088:	e8bd 81f0 	ldmia.w	sp!, {r4, r5, r6, r7, r8, pc}
 800108c:	498c      	ldr	r1, [pc, #560]	@ (80012c0 <processCommand+0x260>)
 800108e:	4620      	mov	r0, r4
 8001090:	f7ff f89e 	bl	80001d0 <strcmp>
 8001094:	b950      	cbnz	r0, 80010ac <processCommand+0x4c>
 8001096:	4a88      	ldr	r2, [pc, #544]	@ (80012b8 <processCommand+0x258>)
 8001098:	6813      	ldr	r3, [r2, #0]
 800109a:	2b00      	cmp	r3, #0
 800109c:	d0f3      	beq.n	8001086 <processCommand+0x26>
 800109e:	4987      	ldr	r1, [pc, #540]	@ (80012bc <processCommand+0x25c>)
 80010a0:	780b      	ldrb	r3, [r1, #0]
 80010a2:	f360 0382 	bfi	r3, r0, #2, #1
 80010a6:	700b      	strb	r3, [r1, #0]
 80010a8:	6010      	str	r0, [r2, #0]
 80010aa:	e7ec      	b.n	8001086 <processCommand+0x26>
 80010ac:	4985      	ldr	r1, [pc, #532]	@ (80012c4 <processCommand+0x264>)
 80010ae:	4620      	mov	r0, r4
 80010b0:	f7ff f88e 	bl	80001d0 <strcmp>
 80010b4:	b940      	cbnz	r0, 80010c8 <processCommand+0x68>
 80010b6:	4a84      	ldr	r2, [pc, #528]	@ (80012c8 <processCommand+0x268>)
 80010b8:	6813      	ldr	r3, [r2, #0]
 80010ba:	2b01      	cmp	r3, #1
 80010bc:	d0e3      	beq.n	8001086 <processCommand+0x26>
 80010be:	497f      	ldr	r1, [pc, #508]	@ (80012bc <processCommand+0x25c>)
 80010c0:	780b      	ldrb	r3, [r1, #0]
 80010c2:	f043 0301 	orr.w	r3, r3, #1
 80010c6:	e7db      	b.n	8001080 <processCommand+0x20>
 80010c8:	4980      	ldr	r1, [pc, #512]	@ (80012cc <processCommand+0x26c>)
 80010ca:	4620      	mov	r0, r4
 80010cc:	f7ff f880 	bl	80001d0 <strcmp>
 80010d0:	b940      	cbnz	r0, 80010e4 <processCommand+0x84>
 80010d2:	4a7d      	ldr	r2, [pc, #500]	@ (80012c8 <processCommand+0x268>)
 80010d4:	6813      	ldr	r3, [r2, #0]
 80010d6:	2b00      	cmp	r3, #0
 80010d8:	d0d5      	beq.n	8001086 <processCommand+0x26>
 80010da:	4978      	ldr	r1, [pc, #480]	@ (80012bc <processCommand+0x25c>)
 80010dc:	780b      	ldrb	r3, [r1, #0]
 80010de:	f360 0300 	bfi	r3, r0, #0, #1
 80010e2:	e7e0      	b.n	80010a6 <processCommand+0x46>
 80010e4:	497a      	ldr	r1, [pc, #488]	@ (80012d0 <processCommand+0x270>)
 80010e6:	4620      	mov	r0, r4
 80010e8:	f7ff f872 	bl	80001d0 <strcmp>
 80010ec:	b940      	cbnz	r0, 8001100 <processCommand+0xa0>
 80010ee:	4a79      	ldr	r2, [pc, #484]	@ (80012d4 <processCommand+0x274>)
 80010f0:	6813      	ldr	r3, [r2, #0]
 80010f2:	2b01      	cmp	r3, #1
 80010f4:	d0c7      	beq.n	8001086 <processCommand+0x26>
 80010f6:	4971      	ldr	r1, [pc, #452]	@ (80012bc <processCommand+0x25c>)
 80010f8:	780b      	ldrb	r3, [r1, #0]
 80010fa:	f043 0302 	orr.w	r3, r3, #2
 80010fe:	e7bf      	b.n	8001080 <processCommand+0x20>
 8001100:	4975      	ldr	r1, [pc, #468]	@ (80012d8 <processCommand+0x278>)
 8001102:	4620      	mov	r0, r4
 8001104:	f7ff f864 	bl	80001d0 <strcmp>
 8001108:	b940      	cbnz	r0, 800111c <processCommand+0xbc>
 800110a:	4a72      	ldr	r2, [pc, #456]	@ (80012d4 <processCommand+0x274>)
 800110c:	6813      	ldr	r3, [r2, #0]
 800110e:	2b00      	cmp	r3, #0
 8001110:	d0b9      	beq.n	8001086 <processCommand+0x26>
 8001112:	496a      	ldr	r1, [pc, #424]	@ (80012bc <processCommand+0x25c>)
 8001114:	780b      	ldrb	r3, [r1, #0]
 8001116:	f360 0341 	bfi	r3, r0, #1, #1
 800111a:	e7c4      	b.n	80010a6 <processCommand+0x46>
 800111c:	496f      	ldr	r1, [pc, #444]	@ (80012dc <processCommand+0x27c>)
 800111e:	4620      	mov	r0, r4
 8001120:	f7ff f856 	bl	80001d0 <strcmp>
 8001124:	b940      	cbnz	r0, 8001138 <processCommand+0xd8>
 8001126:	4a6e      	ldr	r2, [pc, #440]	@ (80012e0 <processCommand+0x280>)
 8001128:	6813      	ldr	r3, [r2, #0]
 800112a:	2b01      	cmp	r3, #1
 800112c:	d0ab      	beq.n	8001086 <processCommand+0x26>
 800112e:	4963      	ldr	r1, [pc, #396]	@ (80012bc <processCommand+0x25c>)
 8001130:	780b      	ldrb	r3, [r1, #0]
 8001132:	f043 0320 	orr.w	r3, r3, #32
 8001136:	e7a3      	b.n	8001080 <processCommand+0x20>
 8001138:	496a      	ldr	r1, [pc, #424]	@ (80012e4 <processCommand+0x284>)
 800113a:	4620      	mov	r0, r4
 800113c:	f7ff f848 	bl	80001d0 <strcmp>
 8001140:	b940      	cbnz	r0, 8001154 <processCommand+0xf4>
 8001142:	4a67      	ldr	r2, [pc, #412]	@ (80012e0 <processCommand+0x280>)
 8001144:	6813      	ldr	r3, [r2, #0]
 8001146:	2b00      	cmp	r3, #0
 8001148:	d09d      	beq.n	8001086 <processCommand+0x26>
 800114a:	495c      	ldr	r1, [pc, #368]	@ (80012bc <processCommand+0x25c>)
 800114c:	780b      	ldrb	r3, [r1, #0]
 800114e:	f360 1345 	bfi	r3, r0, #5, #1
 8001152:	e7a8      	b.n	80010a6 <processCommand+0x46>
 8001154:	4964      	ldr	r1, [pc, #400]	@ (80012e8 <processCommand+0x288>)
 8001156:	4620      	mov	r0, r4
 8001158:	f7ff f83a 	bl	80001d0 <strcmp>
 800115c:	b940      	cbnz	r0, 8001170 <processCommand+0x110>
 800115e:	4a63      	ldr	r2, [pc, #396]	@ (80012ec <processCommand+0x28c>)
 8001160:	6813      	ldr	r3, [r2, #0]
 8001162:	2b01      	cmp	r3, #1
 8001164:	d08f      	beq.n	8001086 <processCommand+0x26>
 8001166:	4955      	ldr	r1, [pc, #340]	@ (80012bc <processCommand+0x25c>)
 8001168:	780b      	ldrb	r3, [r1, #0]
 800116a:	f043 0308 	orr.w	r3, r3, #8
 800116e:	e787      	b.n	8001080 <processCommand+0x20>
 8001170:	495f      	ldr	r1, [pc, #380]	@ (80012f0 <processCommand+0x290>)
 8001172:	4620      	mov	r0, r4
 8001174:	f7ff f82c 	bl	80001d0 <strcmp>
 8001178:	b950      	cbnz	r0, 8001190 <processCommand+0x130>
 800117a:	4a5c      	ldr	r2, [pc, #368]	@ (80012ec <processCommand+0x28c>)
 800117c:	6813      	ldr	r3, [r2, #0]
 800117e:	2b00      	cmp	r3, #0
 8001180:	d081      	beq.n	8001086 <processCommand+0x26>
 8001182:	494e      	ldr	r1, [pc, #312]	@ (80012bc <processCommand+0x25c>)
 8001184:	780b      	ldrb	r3, [r1, #0]
 8001186:	f023 0308 	bic.w	r3, r3, #8
 800118a:	700b      	strb	r3, [r1, #0]
 800118c:	2300      	movs	r3, #0
 800118e:	e779      	b.n	8001084 <processCommand+0x24>
 8001190:	4958      	ldr	r1, [pc, #352]	@ (80012f4 <processCommand+0x294>)
 8001192:	4620      	mov	r0, r4
 8001194:	f7ff f81c 	bl	80001d0 <strcmp>
 8001198:	4601      	mov	r1, r0
 800119a:	2800      	cmp	r0, #0
 800119c:	d140      	bne.n	8001220 <processCommand+0x1c0>
 800119e:	2240      	movs	r2, #64	@ 0x40
 80011a0:	a80a      	add	r0, sp, #40	@ 0x28
 80011a2:	f006 f85e 	bl	8007262 <memset>
 80011a6:	4a45      	ldr	r2, [pc, #276]	@ (80012bc <processCommand+0x25c>)
 80011a8:	f8d2 8000 	ldr.w	r8, [r2]
 80011ac:	6811      	ldr	r1, [r2, #0]
 80011ae:	6810      	ldr	r0, [r2, #0]
 80011b0:	6814      	ldr	r4, [r2, #0]
 80011b2:	6815      	ldr	r5, [r2, #0]
 80011b4:	4a50      	ldr	r2, [pc, #320]	@ (80012f8 <processCommand+0x298>)
 80011b6:	6816      	ldr	r6, [r2, #0]
 80011b8:	6817      	ldr	r7, [r2, #0]
 80011ba:	6813      	ldr	r3, [r2, #0]
 80011bc:	f8d2 c000 	ldr.w	ip, [r2]
 80011c0:	f8d2 e000 	ldr.w	lr, [r2]
 80011c4:	6812      	ldr	r2, [r2, #0]
 80011c6:	f3cc 1c00 	ubfx	ip, ip, #4, #1
 80011ca:	f3ce 1e40 	ubfx	lr, lr, #5, #1
 80011ce:	f001 0101 	and.w	r1, r1, #1
 80011d2:	f3c0 0040 	ubfx	r0, r0, #1, #1
 80011d6:	f3c4 1440 	ubfx	r4, r4, #5, #1
 80011da:	f3c5 05c0 	ubfx	r5, r5, #3, #1
 80011de:	f3c6 0680 	ubfx	r6, r6, #2, #1
 80011e2:	f3c7 0740 	ubfx	r7, r7, #1, #1
 80011e6:	f003 0301 	and.w	r3, r3, #1
 80011ea:	f3c2 02c0 	ubfx	r2, r2, #3, #1
 80011ee:	e9cd e208 	strd	lr, r2, [sp, #32]
 80011f2:	e9cd 3c06 	strd	r3, ip, [sp, #24]
 80011f6:	e9cd 1000 	strd	r1, r0, [sp]
 80011fa:	4a40      	ldr	r2, [pc, #256]	@ (80012fc <processCommand+0x29c>)
 80011fc:	f3c8 0380 	ubfx	r3, r8, #2, #1
 8001200:	2140      	movs	r1, #64	@ 0x40
 8001202:	e9cd 6704 	strd	r6, r7, [sp, #16]
 8001206:	e9cd 4502 	strd	r4, r5, [sp, #8]
 800120a:	a80a      	add	r0, sp, #40	@ 0x28
 800120c:	f005 ff82 	bl	8007114 <sniprintf>
 8001210:	a80a      	add	r0, sp, #40	@ 0x28
 8001212:	f7fe ffe7 	bl	80001e4 <strlen>
 8001216:	b281      	uxth	r1, r0
 8001218:	a80a      	add	r0, sp, #40	@ 0x28
 800121a:	f005 fcf5 	bl	8006c08 <CDC_Transmit_FS>
 800121e:	e732      	b.n	8001086 <processCommand+0x26>
 8001220:	4937      	ldr	r1, [pc, #220]	@ (8001300 <processCommand+0x2a0>)
 8001222:	4620      	mov	r0, r4
 8001224:	f7fe ffd4 	bl	80001d0 <strcmp>
 8001228:	b940      	cbnz	r0, 800123c <processCommand+0x1dc>
 800122a:	4c36      	ldr	r4, [pc, #216]	@ (8001304 <processCommand+0x2a4>)
 800122c:	2301      	movs	r3, #1
 800122e:	201e      	movs	r0, #30
 8001230:	7023      	strb	r3, [r4, #0]
 8001232:	f004 fe83 	bl	8005f3c <vTaskDelay>
 8001236:	2304      	movs	r3, #4
 8001238:	7023      	strb	r3, [r4, #0]
 800123a:	e724      	b.n	8001086 <processCommand+0x26>
 800123c:	4932      	ldr	r1, [pc, #200]	@ (8001308 <processCommand+0x2a8>)
 800123e:	4620      	mov	r0, r4
 8001240:	f7fe ffc6 	bl	80001d0 <strcmp>
 8001244:	4605      	mov	r5, r0
 8001246:	b9d0      	cbnz	r0, 800127e <processCommand+0x21e>
 8001248:	4b30      	ldr	r3, [pc, #192]	@ (800130c <processCommand+0x2ac>)
 800124a:	4602      	mov	r2, r0
 800124c:	f8b3 10bc 	ldrh.w	r1, [r3, #188]	@ 0xbc
 8001250:	f8d3 00b8 	ldr.w	r0, [r3, #184]	@ 0xb8
 8001254:	f000 fffc 	bl	8002250 <HAL_GPIO_WritePin>
 8001258:	4b2d      	ldr	r3, [pc, #180]	@ (8001310 <processCommand+0x2b0>)
 800125a:	462a      	mov	r2, r5
 800125c:	f8b3 10bc 	ldrh.w	r1, [r3, #188]	@ 0xbc
 8001260:	f8d3 00b8 	ldr.w	r0, [r3, #184]	@ 0xb8
 8001264:	f000 fff4 	bl	8002250 <HAL_GPIO_WritePin>
 8001268:	4b2a      	ldr	r3, [pc, #168]	@ (8001314 <processCommand+0x2b4>)
 800126a:	462a      	mov	r2, r5
 800126c:	f8b3 10bc 	ldrh.w	r1, [r3, #188]	@ 0xbc
 8001270:	f8d3 00b8 	ldr.w	r0, [r3, #184]	@ 0xb8
 8001274:	b01a      	add	sp, #104	@ 0x68
 8001276:	e8bd 41f0 	ldmia.w	sp!, {r4, r5, r6, r7, r8, lr}
 800127a:	f000 bfe9 	b.w	8002250 <HAL_GPIO_WritePin>
 800127e:	4926      	ldr	r1, [pc, #152]	@ (8001318 <processCommand+0x2b8>)
 8001280:	4620      	mov	r0, r4
 8001282:	f7fe ffa5 	bl	80001d0 <strcmp>
 8001286:	2800      	cmp	r0, #0
 8001288:	f47f aefd 	bne.w	8001086 <processCommand+0x26>
 800128c:	4b1f      	ldr	r3, [pc, #124]	@ (800130c <processCommand+0x2ac>)
 800128e:	2201      	movs	r2, #1
 8001290:	f8b3 10bc 	ldrh.w	r1, [r3, #188]	@ 0xbc
 8001294:	f8d3 00b8 	ldr.w	r0, [r3, #184]	@ 0xb8
 8001298:	f000 ffda 	bl	8002250 <HAL_GPIO_WritePin>
 800129c:	4b1c      	ldr	r3, [pc, #112]	@ (8001310 <processCommand+0x2b0>)
 800129e:	2201      	movs	r2, #1
 80012a0:	f8b3 10bc 	ldrh.w	r1, [r3, #188]	@ 0xbc
 80012a4:	f8d3 00b8 	ldr.w	r0, [r3, #184]	@ 0xb8
 80012a8:	f000 ffd2 	bl	8002250 <HAL_GPIO_WritePin>
 80012ac:	4b19      	ldr	r3, [pc, #100]	@ (8001314 <processCommand+0x2b4>)
 80012ae:	2201      	movs	r2, #1
 80012b0:	e7dc      	b.n	800126c <processCommand+0x20c>
 80012b2:	bf00      	nop
 80012b4:	08008d80 	.word	0x08008d80
 80012b8:	20000318 	.word	0x20000318
 80012bc:	20002ca8 	.word	0x20002ca8
 80012c0:	08008d8e 	.word	0x08008d8e
 80012c4:	08008d9d 	.word	0x08008d9d
 80012c8:	20000314 	.word	0x20000314
 80012cc:	08008da8 	.word	0x08008da8
 80012d0:	08008db4 	.word	0x08008db4
 80012d4:	20000310 	.word	0x20000310
 80012d8:	08008dc0 	.word	0x08008dc0
 80012dc:	08008dcd 	.word	0x08008dcd
 80012e0:	2000030c 	.word	0x2000030c
 80012e4:	08008dd7 	.word	0x08008dd7
 80012e8:	08008de2 	.word	0x08008de2
 80012ec:	20000308 	.word	0x20000308
 80012f0:	08008df3 	.word	0x08008df3
 80012f4:	08008e05 	.word	0x08008e05
 80012f8:	20002cac 	.word	0x20002cac
 80012fc:	08008e10 	.word	0x08008e10
 8001300:	08008e3d 	.word	0x08008e3d
 8001304:	200014a3 	.word	0x200014a3
 8001308:	08008e49 	.word	0x08008e49
 800130c:	20000204 	.word	0x20000204
 8001310:	20000104 	.word	0x20000104
 8001314:	20000004 	.word	0x20000004
 8001318:	08008e4f 	.word	0x08008e4f

0800131c <getCmdHandle>:
 800131c:	b570      	push	{r4, r5, r6, lr}
 800131e:	4b54      	ldr	r3, [pc, #336]	@ (8001470 <getCmdHandle+0x154>)
 8001320:	781b      	ldrb	r3, [r3, #0]
 8001322:	2b32      	cmp	r3, #50	@ 0x32
 8001324:	b0a8      	sub	sp, #160	@ 0xa0
 8001326:	d011      	beq.n	800134c <getCmdHandle+0x30>
 8001328:	3b62      	subs	r3, #98	@ 0x62
 800132a:	b2db      	uxtb	r3, r3
 800132c:	2b11      	cmp	r3, #17
 800132e:	d804      	bhi.n	800133a <getCmdHandle+0x1e>
 8001330:	4a50      	ldr	r2, [pc, #320]	@ (8001474 <getCmdHandle+0x158>)
 8001332:	fa22 f303 	lsr.w	r3, r2, r3
 8001336:	07db      	lsls	r3, r3, #31
 8001338:	d408      	bmi.n	800134c <getCmdHandle+0x30>
 800133a:	484d      	ldr	r0, [pc, #308]	@ (8001470 <getCmdHandle+0x154>)
 800133c:	f44f 6200 	mov.w	r2, #2048	@ 0x800
 8001340:	2100      	movs	r1, #0
 8001342:	b028      	add	sp, #160	@ 0xa0
 8001344:	e8bd 4070 	ldmia.w	sp!, {r4, r5, r6, lr}
 8001348:	f005 bf8b 	b.w	8007262 <memset>
 800134c:	4948      	ldr	r1, [pc, #288]	@ (8001470 <getCmdHandle+0x154>)
 800134e:	484a      	ldr	r0, [pc, #296]	@ (8001478 <getCmdHandle+0x15c>)
 8001350:	f44f 6200 	mov.w	r2, #2048	@ 0x800
 8001354:	f006 f865 	bl	8007422 <memcpy>
 8001358:	f44f 6200 	mov.w	r2, #2048	@ 0x800
 800135c:	2100      	movs	r1, #0
 800135e:	4844      	ldr	r0, [pc, #272]	@ (8001470 <getCmdHandle+0x154>)
 8001360:	f005 ff7f 	bl	8007262 <memset>
 8001364:	4844      	ldr	r0, [pc, #272]	@ (8001478 <getCmdHandle+0x15c>)
 8001366:	f7ff fe7b 	bl	8001060 <processCommand>
 800136a:	4944      	ldr	r1, [pc, #272]	@ (800147c <getCmdHandle+0x160>)
 800136c:	4842      	ldr	r0, [pc, #264]	@ (8001478 <getCmdHandle+0x15c>)
 800136e:	f005 ff81 	bl	8007274 <strtok>
 8001372:	4943      	ldr	r1, [pc, #268]	@ (8001480 <getCmdHandle+0x164>)
 8001374:	4604      	mov	r4, r0
 8001376:	2000      	movs	r0, #0
 8001378:	f005 ff7c 	bl	8007274 <strtok>
 800137c:	4605      	mov	r5, r0
 800137e:	2c00      	cmp	r4, #0
 8001380:	d045      	beq.n	800140e <getCmdHandle+0xf2>
 8001382:	4940      	ldr	r1, [pc, #256]	@ (8001484 <getCmdHandle+0x168>)
 8001384:	4620      	mov	r0, r4
 8001386:	f7fe ff23 	bl	80001d0 <strcmp>
 800138a:	2800      	cmp	r0, #0
 800138c:	d144      	bne.n	8001418 <getCmdHandle+0xfc>
 800138e:	2d00      	cmp	r5, #0
 8001390:	d042      	beq.n	8001418 <getCmdHandle+0xfc>
 8001392:	ab07      	add	r3, sp, #28
 8001394:	9301      	str	r3, [sp, #4]
 8001396:	ab06      	add	r3, sp, #24
 8001398:	e9cd 0004 	strd	r0, r0, [sp, #16]
 800139c:	e9cd 0006 	strd	r0, r0, [sp, #24]
 80013a0:	9300      	str	r3, [sp, #0]
 80013a2:	4939      	ldr	r1, [pc, #228]	@ (8001488 <getCmdHandle+0x16c>)
 80013a4:	ab05      	add	r3, sp, #20
 80013a6:	aa04      	add	r2, sp, #16
 80013a8:	4628      	mov	r0, r5
 80013aa:	f005 fee9 	bl	8007180 <siscanf>
 80013ae:	2804      	cmp	r0, #4
 80013b0:	d112      	bne.n	80013d8 <getCmdHandle+0xbc>
 80013b2:	4b36      	ldr	r3, [pc, #216]	@ (800148c <getCmdHandle+0x170>)
 80013b4:	9a04      	ldr	r2, [sp, #16]
 80013b6:	701a      	strb	r2, [r3, #0]
 80013b8:	4b35      	ldr	r3, [pc, #212]	@ (8001490 <getCmdHandle+0x174>)
 80013ba:	9a05      	ldr	r2, [sp, #20]
 80013bc:	701a      	strb	r2, [r3, #0]
 80013be:	4b35      	ldr	r3, [pc, #212]	@ (8001494 <getCmdHandle+0x178>)
 80013c0:	9a06      	ldr	r2, [sp, #24]
 80013c2:	701a      	strb	r2, [r3, #0]
 80013c4:	9b07      	ldr	r3, [sp, #28]
 80013c6:	4a34      	ldr	r2, [pc, #208]	@ (8001498 <getCmdHandle+0x17c>)
 80013c8:	2b65      	cmp	r3, #101	@ 0x65
 80013ca:	bfa8      	it	ge
 80013cc:	230f      	movge	r3, #15
 80013ce:	7013      	strb	r3, [r2, #0]
 80013d0:	4b32      	ldr	r3, [pc, #200]	@ (800149c <getCmdHandle+0x180>)
 80013d2:	2203      	movs	r2, #3
 80013d4:	701a      	strb	r2, [r3, #0]
 80013d6:	e01a      	b.n	800140e <getCmdHandle+0xf2>
 80013d8:	4b31      	ldr	r3, [pc, #196]	@ (80014a0 <getCmdHandle+0x184>)
 80013da:	aa08      	add	r2, sp, #32
 80013dc:	f103 0618 	add.w	r6, r3, #24
 80013e0:	4615      	mov	r5, r2
 80013e2:	6818      	ldr	r0, [r3, #0]
 80013e4:	6859      	ldr	r1, [r3, #4]
 80013e6:	4614      	mov	r4, r2
 80013e8:	c403      	stmia	r4!, {r0, r1}
 80013ea:	3308      	adds	r3, #8
 80013ec:	42b3      	cmp	r3, r6
 80013ee:	4622      	mov	r2, r4
 80013f0:	d1f7      	bne.n	80013e2 <getCmdHandle+0xc6>
 80013f2:	8819      	ldrh	r1, [r3, #0]
 80013f4:	789b      	ldrb	r3, [r3, #2]
 80013f6:	8021      	strh	r1, [r4, #0]
 80013f8:	70a3      	strb	r3, [r4, #2]
 80013fa:	4628      	mov	r0, r5
 80013fc:	f7fe fef2 	bl	80001e4 <strlen>
 8001400:	b281      	uxth	r1, r0
 8001402:	4628      	mov	r0, r5
 8001404:	f005 fc00 	bl	8006c08 <CDC_Transmit_FS>
 8001408:	2014      	movs	r0, #20
 800140a:	f004 fd97 	bl	8005f3c <vTaskDelay>
 800140e:	481a      	ldr	r0, [pc, #104]	@ (8001478 <getCmdHandle+0x15c>)
 8001410:	f44f 6200 	mov.w	r2, #2048	@ 0x800
 8001414:	2100      	movs	r1, #0
 8001416:	e794      	b.n	8001342 <getCmdHandle+0x26>
 8001418:	4922      	ldr	r1, [pc, #136]	@ (80014a4 <getCmdHandle+0x188>)
 800141a:	4620      	mov	r0, r4
 800141c:	f7fe fed8 	bl	80001d0 <strcmp>
 8001420:	4601      	mov	r1, r0
 8001422:	b9e0      	cbnz	r0, 800145e <getCmdHandle+0x142>
 8001424:	2280      	movs	r2, #128	@ 0x80
 8001426:	a808      	add	r0, sp, #32
 8001428:	f005 ff1b 	bl	8007262 <memset>
 800142c:	4b1e      	ldr	r3, [pc, #120]	@ (80014a8 <getCmdHandle+0x18c>)
 800142e:	4a1f      	ldr	r2, [pc, #124]	@ (80014ac <getCmdHandle+0x190>)
 8001430:	781b      	ldrb	r3, [r3, #0]
 8001432:	9302      	str	r3, [sp, #8]
 8001434:	4b17      	ldr	r3, [pc, #92]	@ (8001494 <getCmdHandle+0x178>)
 8001436:	791b      	ldrb	r3, [r3, #4]
 8001438:	9301      	str	r3, [sp, #4]
 800143a:	4b15      	ldr	r3, [pc, #84]	@ (8001490 <getCmdHandle+0x174>)
 800143c:	791b      	ldrb	r3, [r3, #4]
 800143e:	9300      	str	r3, [sp, #0]
 8001440:	4b12      	ldr	r3, [pc, #72]	@ (800148c <getCmdHandle+0x170>)
 8001442:	2180      	movs	r1, #128	@ 0x80
 8001444:	791b      	ldrb	r3, [r3, #4]
 8001446:	a808      	add	r0, sp, #32
 8001448:	f005 fe64 	bl	8007114 <sniprintf>
 800144c:	a808      	add	r0, sp, #32
 800144e:	f7fe fec9 	bl	80001e4 <strlen>
 8001452:	b281      	uxth	r1, r0
 8001454:	a808      	add	r0, sp, #32
 8001456:	f005 fbd7 	bl	8006c08 <CDC_Transmit_FS>
 800145a:	201e      	movs	r0, #30
 800145c:	e7d5      	b.n	800140a <getCmdHandle+0xee>
 800145e:	4914      	ldr	r1, [pc, #80]	@ (80014b0 <getCmdHandle+0x194>)
 8001460:	4620      	mov	r0, r4
 8001462:	f7fe feb5 	bl	80001d0 <strcmp>
 8001466:	2800      	cmp	r0, #0
 8001468:	d1d1      	bne.n	800140e <getCmdHandle+0xf2>
 800146a:	4b12      	ldr	r3, [pc, #72]	@ (80014b4 <getCmdHandle+0x198>)
 800146c:	2204      	movs	r2, #4
 800146e:	e7b1      	b.n	80013d4 <getCmdHandle+0xb8>
 8001470:	200081d8 	.word	0x200081d8
 8001474:	00034c03 	.word	0x00034c03
 8001478:	200024a5 	.word	0x200024a5
 800147c:	08008e53 	.word	0x08008e53
 8001480:	08008d0f 	.word	0x08008d0f
 8001484:	08008e55 	.word	0x08008e55
 8001488:	08008e59 	.word	0x08008e59
 800148c:	20000204 	.word	0x20000204
 8001490:	20000104 	.word	0x20000104
 8001494:	20000004 	.word	0x20000004
 8001498:	20000c9b 	.word	0x20000c9b
 800149c:	200014a3 	.word	0x200014a3
 80014a0:	08008e8d 	.word	0x08008e8d
 80014a4:	08008e65 	.word	0x08008e65
 80014a8:	20000000 	.word	0x20000000
 80014ac:	08008e6b 	.word	0x08008e6b
 80014b0:	08008e86 	.word	0x08008e86
 80014b4:	20000c99 	.word	0x20000c99

080014b8 <sendCmdHandle>:
 80014b8:	b5f8      	push	{r3, r4, r5, r6, r7, lr}
 80014ba:	4c1c      	ldr	r4, [pc, #112]	@ (800152c <sendCmdHandle+0x74>)
 80014bc:	7826      	ldrb	r6, [r4, #0]
 80014be:	b18e      	cbz	r6, 80014e4 <sendCmdHandle+0x2c>
 80014c0:	481a      	ldr	r0, [pc, #104]	@ (800152c <sendCmdHandle+0x74>)
 80014c2:	f7fe fe8f 	bl	80001e4 <strlen>
 80014c6:	b281      	uxth	r1, r0
 80014c8:	4818      	ldr	r0, [pc, #96]	@ (800152c <sendCmdHandle+0x74>)
 80014ca:	f005 fb9d 	bl	8006c08 <CDC_Transmit_FS>
 80014ce:	201e      	movs	r0, #30
 80014d0:	f004 fd34 	bl	8005f3c <vTaskDelay>
 80014d4:	e8bd 40f8 	ldmia.w	sp!, {r3, r4, r5, r6, r7, lr}
 80014d8:	4814      	ldr	r0, [pc, #80]	@ (800152c <sendCmdHandle+0x74>)
 80014da:	f44f 6200 	mov.w	r2, #2048	@ 0x800
 80014de:	2100      	movs	r1, #0
 80014e0:	f005 bebf 	b.w	8007262 <memset>
 80014e4:	4d12      	ldr	r5, [pc, #72]	@ (8001530 <sendCmdHandle+0x78>)
 80014e6:	782f      	ldrb	r7, [r5, #0]
 80014e8:	b14f      	cbz	r7, 80014fe <sendCmdHandle+0x46>
 80014ea:	f44f 6200 	mov.w	r2, #2048	@ 0x800
 80014ee:	4629      	mov	r1, r5
 80014f0:	4620      	mov	r0, r4
 80014f2:	f005 ff96 	bl	8007422 <memcpy>
 80014f6:	f44f 6200 	mov.w	r2, #2048	@ 0x800
 80014fa:	4631      	mov	r1, r6
 80014fc:	e00b      	b.n	8001516 <sendCmdHandle+0x5e>
 80014fe:	4d0d      	ldr	r5, [pc, #52]	@ (8001534 <sendCmdHandle+0x7c>)
 8001500:	782e      	ldrb	r6, [r5, #0]
 8001502:	b176      	cbz	r6, 8001522 <sendCmdHandle+0x6a>
 8001504:	f44f 6200 	mov.w	r2, #2048	@ 0x800
 8001508:	4629      	mov	r1, r5
 800150a:	4620      	mov	r0, r4
 800150c:	f005 ff89 	bl	8007422 <memcpy>
 8001510:	f44f 6200 	mov.w	r2, #2048	@ 0x800
 8001514:	4639      	mov	r1, r7
 8001516:	4628      	mov	r0, r5
 8001518:	f005 fea3 	bl	8007262 <memset>
 800151c:	7823      	ldrb	r3, [r4, #0]
 800151e:	b123      	cbz	r3, 800152a <sendCmdHandle+0x72>
 8001520:	e7ce      	b.n	80014c0 <sendCmdHandle+0x8>
 8001522:	4d05      	ldr	r5, [pc, #20]	@ (8001538 <sendCmdHandle+0x80>)
 8001524:	782b      	ldrb	r3, [r5, #0]
 8001526:	2b00      	cmp	r3, #0
 8001528:	d1df      	bne.n	80014ea <sendCmdHandle+0x32>
 800152a:	bdf8      	pop	{r3, r4, r5, r6, r7, pc}
 800152c:	20001ca5 	.word	0x20001ca5
 8001530:	20000498 	.word	0x20000498
 8001534:	200014a4 	.word	0x200014a4
 8001538:	20000ca3 	.word	0x20000ca3

0800153c <MX_TIM4_Init>:
 800153c:	b510      	push	{r4, lr}
 800153e:	b086      	sub	sp, #24
 8001540:	2210      	movs	r2, #16
 8001542:	2100      	movs	r1, #0
 8001544:	a802      	add	r0, sp, #8
 8001546:	f005 fe8c 	bl	8007262 <memset>
 800154a:	4c14      	ldr	r4, [pc, #80]	@ (800159c <MX_TIM4_Init+0x60>)
 800154c:	4a14      	ldr	r2, [pc, #80]	@ (80015a0 <MX_TIM4_Init+0x64>)
 800154e:	2300      	movs	r3, #0
 8001550:	e9c4 2300 	strd	r2, r3, [r4]
 8001554:	4620      	mov	r0, r4
 8001556:	f64f 72ff 	movw	r2, #65535	@ 0xffff
 800155a:	e9cd 3300 	strd	r3, r3, [sp]
 800155e:	e9c4 2303 	strd	r2, r3, [r4, #12]
 8001562:	60a3      	str	r3, [r4, #8]
 8001564:	61a3      	str	r3, [r4, #24]
 8001566:	f001 ffc9 	bl	80034fc <HAL_TIM_Base_Init>
 800156a:	b108      	cbz	r0, 8001570 <MX_TIM4_Init+0x34>
 800156c:	b672      	cpsid	i
 800156e:	e7fe      	b.n	800156e <MX_TIM4_Init+0x32>
 8001570:	f44f 5380 	mov.w	r3, #4096	@ 0x1000
 8001574:	a902      	add	r1, sp, #8
 8001576:	4620      	mov	r0, r4
 8001578:	9302      	str	r3, [sp, #8]
 800157a:	f002 f8a9 	bl	80036d0 <HAL_TIM_ConfigClockSource>
 800157e:	b108      	cbz	r0, 8001584 <MX_TIM4_Init+0x48>
 8001580:	b672      	cpsid	i
 8001582:	e7fe      	b.n	8001582 <MX_TIM4_Init+0x46>
 8001584:	e9cd 0000 	strd	r0, r0, [sp]
 8001588:	4669      	mov	r1, sp
 800158a:	4620      	mov	r0, r4
 800158c:	f002 f9e8 	bl	8003960 <HAL_TIMEx_MasterConfigSynchronization>
 8001590:	b108      	cbz	r0, 8001596 <MX_TIM4_Init+0x5a>
 8001592:	b672      	cpsid	i
 8001594:	e7fe      	b.n	8001594 <MX_TIM4_Init+0x58>
 8001596:	b006      	add	sp, #24
 8001598:	bd10      	pop	{r4, pc}
 800159a:	bf00      	nop
 800159c:	20002d14 	.word	0x20002d14
 80015a0:	40000800 	.word	0x40000800

080015a4 <MX_TIM7_Init>:
 80015a4:	b513      	push	{r0, r1, r4, lr}
 80015a6:	4a0e      	ldr	r2, [pc, #56]	@ (80015e0 <MX_TIM7_Init+0x3c>)
 80015a8:	4c0e      	ldr	r4, [pc, #56]	@ (80015e4 <MX_TIM7_Init+0x40>)
 80015aa:	2300      	movs	r3, #0
 80015ac:	e9c4 2300 	strd	r2, r3, [r4]
 80015b0:	4620      	mov	r0, r4
 80015b2:	f64f 72ff 	movw	r2, #65535	@ 0xffff
 80015b6:	e9cd 3300 	strd	r3, r3, [sp]
 80015ba:	60a3      	str	r3, [r4, #8]
 80015bc:	60e2      	str	r2, [r4, #12]
 80015be:	61a3      	str	r3, [r4, #24]
 80015c0:	f001 ff9c 	bl	80034fc <HAL_TIM_Base_Init>
 80015c4:	b108      	cbz	r0, 80015ca <MX_TIM7_Init+0x26>
 80015c6:	b672      	cpsid	i
 80015c8:	e7fe      	b.n	80015c8 <MX_TIM7_Init+0x24>
 80015ca:	e9cd 0000 	strd	r0, r0, [sp]
 80015ce:	4669      	mov	r1, sp
 80015d0:	4620      	mov	r0, r4
 80015d2:	f002 f9c5 	bl	8003960 <HAL_TIMEx_MasterConfigSynchronization>
 80015d6:	b108      	cbz	r0, 80015dc <MX_TIM7_Init+0x38>
 80015d8:	b672      	cpsid	i
 80015da:	e7fe      	b.n	80015da <MX_TIM7_Init+0x36>
 80015dc:	b002      	add	sp, #8
 80015de:	bd10      	pop	{r4, pc}
 80015e0:	40001400 	.word	0x40001400
 80015e4:	20002ccc 	.word	0x20002ccc

080015e8 <MX_TIM1_Init>:
 80015e8:	b530      	push	{r4, r5, lr}
 80015ea:	b097      	sub	sp, #92	@ 0x5c
 80015ec:	2210      	movs	r2, #16
 80015ee:	2100      	movs	r1, #0
 80015f0:	a803      	add	r0, sp, #12
 80015f2:	f005 fe36 	bl	8007262 <memset>
 80015f6:	2500      	movs	r5, #0
 80015f8:	221c      	movs	r2, #28
 80015fa:	4629      	mov	r1, r5
 80015fc:	eb0d 0002 	add.w	r0, sp, r2
 8001600:	e9cd 5501 	strd	r5, r5, [sp, #4]
 8001604:	f005 fe2d 	bl	8007262 <memset>
 8001608:	2220      	movs	r2, #32
 800160a:	4629      	mov	r1, r5
 800160c:	a80e      	add	r0, sp, #56	@ 0x38
 800160e:	f005 fe28 	bl	8007262 <memset>
 8001612:	4c29      	ldr	r4, [pc, #164]	@ (80016b8 <MX_TIM1_Init+0xd0>)
 8001614:	4a29      	ldr	r2, [pc, #164]	@ (80016bc <MX_TIM1_Init+0xd4>)
 8001616:	60a5      	str	r5, [r4, #8]
 8001618:	2308      	movs	r3, #8
 800161a:	e9c4 2300 	strd	r2, r3, [r4]
 800161e:	4620      	mov	r0, r4
 8001620:	f240 13f3 	movw	r3, #499	@ 0x1f3
 8001624:	e9c4 3503 	strd	r3, r5, [r4, #12]
 8001628:	e9c4 5505 	strd	r5, r5, [r4, #20]
 800162c:	f001 ff66 	bl	80034fc <HAL_TIM_Base_Init>
 8001630:	b108      	cbz	r0, 8001636 <MX_TIM1_Init+0x4e>
 8001632:	b672      	cpsid	i
 8001634:	e7fe      	b.n	8001634 <MX_TIM1_Init+0x4c>
 8001636:	f44f 5380 	mov.w	r3, #4096	@ 0x1000
 800163a:	a903      	add	r1, sp, #12
 800163c:	4620      	mov	r0, r4
 800163e:	9303      	str	r3, [sp, #12]
 8001640:	f002 f846 	bl	80036d0 <HAL_TIM_ConfigClockSource>
 8001644:	b108      	cbz	r0, 800164a <MX_TIM1_Init+0x62>
 8001646:	b672      	cpsid	i
 8001648:	e7fe      	b.n	8001648 <MX_TIM1_Init+0x60>
 800164a:	4620      	mov	r0, r4
 800164c:	f001 ff82 	bl	8003554 <HAL_TIM_PWM_Init>
 8001650:	b108      	cbz	r0, 8001656 <MX_TIM1_Init+0x6e>
 8001652:	b672      	cpsid	i
 8001654:	e7fe      	b.n	8001654 <MX_TIM1_Init+0x6c>
 8001656:	e9cd 0001 	strd	r0, r0, [sp, #4]
 800165a:	a901      	add	r1, sp, #4
 800165c:	4620      	mov	r0, r4
 800165e:	f002 f97f 	bl	8003960 <HAL_TIMEx_MasterConfigSynchronization>
 8001662:	4602      	mov	r2, r0
 8001664:	b108      	cbz	r0, 800166a <MX_TIM1_Init+0x82>
 8001666:	b672      	cpsid	i
 8001668:	e7fe      	b.n	8001668 <MX_TIM1_Init+0x80>
 800166a:	2360      	movs	r3, #96	@ 0x60
 800166c:	9307      	str	r3, [sp, #28]
 800166e:	4b14      	ldr	r3, [pc, #80]	@ (80016c0 <MX_TIM1_Init+0xd8>)
 8001670:	781b      	ldrb	r3, [r3, #0]
 8001672:	e9cd 000a 	strd	r0, r0, [sp, #40]	@ 0x28
 8001676:	e9cd 3008 	strd	r3, r0, [sp, #32]
 800167a:	e9cd 000c 	strd	r0, r0, [sp, #48]	@ 0x30
 800167e:	a907      	add	r1, sp, #28
 8001680:	4620      	mov	r0, r4
 8001682:	f001 ffc3 	bl	800360c <HAL_TIM_PWM_ConfigChannel>
 8001686:	b108      	cbz	r0, 800168c <MX_TIM1_Init+0xa4>
 8001688:	b672      	cpsid	i
 800168a:	e7fe      	b.n	800168a <MX_TIM1_Init+0xa2>
 800168c:	e9cd 000e 	strd	r0, r0, [sp, #56]	@ 0x38
 8001690:	e9cd 0010 	strd	r0, r0, [sp, #64]	@ 0x40
 8001694:	9012      	str	r0, [sp, #72]	@ 0x48
 8001696:	f44f 5300 	mov.w	r3, #8192	@ 0x2000
 800169a:	9015      	str	r0, [sp, #84]	@ 0x54
 800169c:	a90e      	add	r1, sp, #56	@ 0x38
 800169e:	4620      	mov	r0, r4
 80016a0:	9313      	str	r3, [sp, #76]	@ 0x4c
 80016a2:	f002 f99b 	bl	80039dc <HAL_TIMEx_ConfigBreakDeadTime>
 80016a6:	b108      	cbz	r0, 80016ac <MX_TIM1_Init+0xc4>
 80016a8:	b672      	cpsid	i
 80016aa:	e7fe      	b.n	80016aa <MX_TIM1_Init+0xc2>
 80016ac:	4620      	mov	r0, r4
 80016ae:	f000 fb4b 	bl	8001d48 <HAL_TIM_MspPostInit>
 80016b2:	b017      	add	sp, #92	@ 0x5c
 80016b4:	bd30      	pop	{r4, r5, pc}
 80016b6:	bf00      	nop
 80016b8:	20002d5c 	.word	0x20002d5c
 80016bc:	40010000 	.word	0x40010000
 80016c0:	20000000 	.word	0x20000000

080016c4 <StartTaskFlow>:
 80016c4:	b508      	push	{r3, lr}
 80016c6:	f005 fa39 	bl	8006b3c <MX_USB_DEVICE_Init>
 80016ca:	f7fe ffb7 	bl	800063c <eqHandleStatus>
 80016ce:	f7fe ffb7 	bl	8000640 <eqControl>
 80016d2:	2001      	movs	r0, #1
 80016d4:	f003 fdae 	bl	8005234 <osDelay>
 80016d8:	e7f7      	b.n	80016ca <StartTaskFlow+0x6>
	...

080016dc <StartTaskIAIX>:
 80016dc:	b508      	push	{r3, lr}
 80016de:	4c0f      	ldr	r4, [pc, #60]	@ (800171c <StartTaskIAIX+0x40>)
 80016e0:	f894 30d8 	ldrb.w	r3, [r4, #216]	@ 0xd8
 80016e4:	07d8      	lsls	r0, r3, #31
 80016e6:	d504      	bpl.n	80016f2 <StartTaskIAIX+0x16>
 80016e8:	f8d4 30fc 	ldr.w	r3, [r4, #252]	@ 0xfc
 80016ec:	4620      	mov	r0, r4
 80016ee:	4798      	blx	r3
 80016f0:	e006      	b.n	8001700 <StartTaskIAIX+0x24>
 80016f2:	0759      	lsls	r1, r3, #29
 80016f4:	d508      	bpl.n	8001708 <StartTaskIAIX+0x2c>
 80016f6:	f8d4 30e0 	ldr.w	r3, [r4, #224]	@ 0xe0
 80016fa:	7821      	ldrb	r1, [r4, #0]
 80016fc:	4620      	mov	r0, r4
 80016fe:	4798      	blx	r3
 8001700:	2001      	movs	r0, #1
 8001702:	f003 fd97 	bl	8005234 <osDelay>
 8001706:	e7eb      	b.n	80016e0 <StartTaskIAIX+0x4>
 8001708:	079a      	lsls	r2, r3, #30
 800170a:	d502      	bpl.n	8001712 <StartTaskIAIX+0x36>
 800170c:	f8d4 30e4 	ldr.w	r3, [r4, #228]	@ 0xe4
 8001710:	e7ec      	b.n	80016ec <StartTaskIAIX+0x10>
 8001712:	071b      	lsls	r3, r3, #28
 8001714:	d5f4      	bpl.n	8001700 <StartTaskIAIX+0x24>
 8001716:	f8d4 30f8 	ldr.w	r3, [r4, #248]	@ 0xf8
 800171a:	e7e7      	b.n	80016ec <StartTaskIAIX+0x10>
 800171c:	20000204 	.word	0x20000204

08001720 <StartTaskIAIY>:
 8001720:	b508      	push	{r3, lr}
 8001722:	4c0f      	ldr	r4, [pc, #60]	@ (8001760 <StartTaskIAIY+0x40>)
 8001724:	f894 30d8 	ldrb.w	r3, [r4, #216]	@ 0xd8
 8001728:	07d8      	lsls	r0, r3, #31
 800172a:	d504      	bpl.n	8001736 <StartTaskIAIY+0x16>
 800172c:	f8d4 30fc 	ldr.w	r3, [r4, #252]	@ 0xfc
 8001730:	4620      	mov	r0, r4
 8001732:	4798      	blx	r3
 8001734:	e006      	b.n	8001744 <StartTaskIAIY+0x24>
 8001736:	0759      	lsls	r1, r3, #29
 8001738:	d508      	bpl.n	800174c <StartTaskIAIY+0x2c>
 800173a:	f8d4 30e0 	ldr.w	r3, [r4, #224]	@ 0xe0
 800173e:	7821      	ldrb	r1, [r4, #0]
 8001740:	4620      	mov	r0, r4
 8001742:	4798      	blx	r3
 8001744:	2001      	movs	r0, #1
 8001746:	f003 fd75 	bl	8005234 <osDelay>
 800174a:	e7eb      	b.n	8001724 <StartTaskIAIY+0x4>
 800174c:	079a      	lsls	r2, r3, #30
 800174e:	d502      	bpl.n	8001756 <StartTaskIAIY+0x36>
 8001750:	f8d4 30e4 	ldr.w	r3, [r4, #228]	@ 0xe4
 8001754:	e7ec      	b.n	8001730 <StartTaskIAIY+0x10>
 8001756:	071b      	lsls	r3, r3, #28
 8001758:	d5f4      	bpl.n	8001744 <StartTaskIAIY+0x24>
 800175a:	f8d4 30f8 	ldr.w	r3, [r4, #248]	@ 0xf8
 800175e:	e7e7      	b.n	8001730 <StartTaskIAIY+0x10>
 8001760:	20000104 	.word	0x20000104

08001764 <StartTaskIAIZ>:
 8001764:	b508      	push	{r3, lr}
 8001766:	4c0f      	ldr	r4, [pc, #60]	@ (80017a4 <StartTaskIAIZ+0x40>)
 8001768:	f894 30d8 	ldrb.w	r3, [r4, #216]	@ 0xd8
 800176c:	07d8      	lsls	r0, r3, #31
 800176e:	d504      	bpl.n	800177a <StartTaskIAIZ+0x16>
 8001770:	f8d4 30fc 	ldr.w	r3, [r4, #252]	@ 0xfc
 8001774:	4620      	mov	r0, r4
 8001776:	4798      	blx	r3
 8001778:	e006      	b.n	8001788 <StartTaskIAIZ+0x24>
 800177a:	0759      	lsls	r1, r3, #29
 800177c:	d508      	bpl.n	8001790 <StartTaskIAIZ+0x2c>
 800177e:	f8d4 30e0 	ldr.w	r3, [r4, #224]	@ 0xe0
 8001782:	7821      	ldrb	r1, [r4, #0]
 8001784:	4620      	mov	r0, r4
 8001786:	4798      	blx	r3
 8001788:	2001      	movs	r0, #1
 800178a:	f003 fd53 	bl	8005234 <osDelay>
 800178e:	e7eb      	b.n	8001768 <StartTaskIAIZ+0x4>
 8001790:	079a      	lsls	r2, r3, #30
 8001792:	d502      	bpl.n	800179a <StartTaskIAIZ+0x36>
 8001794:	f8d4 30e4 	ldr.w	r3, [r4, #228]	@ 0xe4
 8001798:	e7ec      	b.n	8001774 <StartTaskIAIZ+0x10>
 800179a:	071b      	lsls	r3, r3, #28
 800179c:	d5f4      	bpl.n	8001788 <StartTaskIAIZ+0x24>
 800179e:	f8d4 30f8 	ldr.w	r3, [r4, #248]	@ 0xf8
 80017a2:	e7e7      	b.n	8001774 <StartTaskIAIZ+0x10>
 80017a4:	20000004 	.word	0x20000004

080017a8 <StartTaskGPIO>:
 80017a8:	b508      	push	{r3, lr}
 80017aa:	f7fe fffd 	bl	80007a8 <gpioScan>
 80017ae:	2001      	movs	r0, #1
 80017b0:	f003 fd40 	bl	8005234 <osDelay>
 80017b4:	e7f9      	b.n	80017aa <StartTaskGPIO+0x2>

080017b6 <StartTaskCOM>:
 80017b6:	b508      	push	{r3, lr}
 80017b8:	f7ff fdb0 	bl	800131c <getCmdHandle>
 80017bc:	f7ff fe7c 	bl	80014b8 <sendCmdHandle>
 80017c0:	201e      	movs	r0, #30
 80017c2:	f003 fd37 	bl	8005234 <osDelay>
 80017c6:	e7f7      	b.n	80017b8 <StartTaskCOM+0x2>

080017c8 <StartTaskIAI>:
 80017c8:	b508      	push	{r3, lr}
 80017ca:	4e0c      	ldr	r6, [pc, #48]	@ (80017fc <StartTaskIAI+0x34>)
 80017cc:	4c0c      	ldr	r4, [pc, #48]	@ (8001800 <StartTaskIAI+0x38>)
 80017ce:	4d0d      	ldr	r5, [pc, #52]	@ (8001804 <StartTaskIAI+0x3c>)
 80017d0:	f7ff fb20 	bl	8000e14 <IAIMovingHandled>
 80017d4:	7833      	ldrb	r3, [r6, #0]
 80017d6:	7822      	ldrb	r2, [r4, #0]
 80017d8:	429a      	cmp	r2, r3
 80017da:	d00a      	beq.n	80017f2 <StartTaskIAI+0x2a>
 80017dc:	2100      	movs	r1, #0
 80017de:	4628      	mov	r0, r5
 80017e0:	7023      	strb	r3, [r4, #0]
 80017e2:	f002 f8bb 	bl	800395c <HAL_TIM_PWM_Stop>
 80017e6:	f7ff feff 	bl	80015e8 <MX_TIM1_Init>
 80017ea:	2100      	movs	r1, #0
 80017ec:	4628      	mov	r0, r5
 80017ee:	f002 f875 	bl	80038dc <HAL_TIM_PWM_Start>
 80017f2:	2001      	movs	r0, #1
 80017f4:	f003 fd1e 	bl	8005234 <osDelay>
 80017f8:	e7ea      	b.n	80017d0 <StartTaskIAI+0x8>
 80017fa:	bf00      	nop
 80017fc:	20000c9b 	.word	0x20000c9b
 8001800:	20000000 	.word	0x20000000
 8001804:	20002d5c 	.word	0x20002d5c

08001808 <SystemClock_Config>:
 8001808:	b510      	push	{r4, lr}
 800180a:	b094      	sub	sp, #80	@ 0x50
 800180c:	2210      	movs	r2, #16
 800180e:	2100      	movs	r1, #0
 8001810:	a80a      	add	r0, sp, #40	@ 0x28
 8001812:	f005 fd26 	bl	8007262 <memset>
 8001816:	2214      	movs	r2, #20
 8001818:	2100      	movs	r1, #0
 800181a:	a803      	add	r0, sp, #12
 800181c:	f005 fd21 	bl	8007262 <memset>
 8001820:	4b20      	ldr	r3, [pc, #128]	@ (80018a4 <SystemClock_Config+0x9c>)
 8001822:	2100      	movs	r1, #0
 8001824:	9101      	str	r1, [sp, #4]
 8001826:	6c1a      	ldr	r2, [r3, #64]	@ 0x40
 8001828:	f042 5280 	orr.w	r2, r2, #268435456	@ 0x10000000
 800182c:	641a      	str	r2, [r3, #64]	@ 0x40
 800182e:	6c1b      	ldr	r3, [r3, #64]	@ 0x40
 8001830:	f003 5380 	and.w	r3, r3, #268435456	@ 0x10000000
 8001834:	9301      	str	r3, [sp, #4]
 8001836:	9b01      	ldr	r3, [sp, #4]
 8001838:	4b1b      	ldr	r3, [pc, #108]	@ (80018a8 <SystemClock_Config+0xa0>)
 800183a:	9102      	str	r1, [sp, #8]
 800183c:	681a      	ldr	r2, [r3, #0]
 800183e:	f442 4280 	orr.w	r2, r2, #16384	@ 0x4000
 8001842:	601a      	str	r2, [r3, #0]
 8001844:	681b      	ldr	r3, [r3, #0]
 8001846:	f403 4380 	and.w	r3, r3, #16384	@ 0x4000
 800184a:	9302      	str	r3, [sp, #8]
 800184c:	9b02      	ldr	r3, [sp, #8]
 800184e:	2101      	movs	r1, #1
 8001850:	f44f 3380 	mov.w	r3, #65536	@ 0x10000
 8001854:	2402      	movs	r4, #2
 8001856:	e9cd 1308 	strd	r1, r3, [sp, #32]
 800185a:	f44f 0380 	mov.w	r3, #4194304	@ 0x400000
 800185e:	2004      	movs	r0, #4
 8001860:	e9cd 430e 	strd	r4, r3, [sp, #56]	@ 0x38
 8001864:	23a8      	movs	r3, #168	@ 0xa8
 8001866:	e9cd 0310 	strd	r0, r3, [sp, #64]	@ 0x40
 800186a:	2307      	movs	r3, #7
 800186c:	a808      	add	r0, sp, #32
 800186e:	9412      	str	r4, [sp, #72]	@ 0x48
 8001870:	9313      	str	r3, [sp, #76]	@ 0x4c
 8001872:	f001 fa23 	bl	8002cbc <HAL_RCC_OscConfig>
 8001876:	b108      	cbz	r0, 800187c <SystemClock_Config+0x74>
 8001878:	b672      	cpsid	i
 800187a:	e7fe      	b.n	800187a <SystemClock_Config+0x72>
 800187c:	230f      	movs	r3, #15
 800187e:	e9cd 3403 	strd	r3, r4, [sp, #12]
 8001882:	9005      	str	r0, [sp, #20]
 8001884:	f44f 52a0 	mov.w	r2, #5120	@ 0x1400
 8001888:	f44f 5380 	mov.w	r3, #4096	@ 0x1000
 800188c:	2105      	movs	r1, #5
 800188e:	a803      	add	r0, sp, #12
 8001890:	e9cd 2306 	strd	r2, r3, [sp, #24]
 8001894:	f001 fbee 	bl	8003074 <HAL_RCC_ClockConfig>
 8001898:	b108      	cbz	r0, 800189e <SystemClock_Config+0x96>
 800189a:	b672      	cpsid	i
 800189c:	e7fe      	b.n	800189c <SystemClock_Config+0x94>
 800189e:	b014      	add	sp, #80	@ 0x50
 80018a0:	bd10      	pop	{r4, pc}
 80018a2:	bf00      	nop
 80018a4:	40023800 	.word	0x40023800
 80018a8:	40007000 	.word	0x40007000

080018ac <main>:
 80018ac:	b580      	push	{r7, lr}
 80018ae:	b08e      	sub	sp, #56	@ 0x38
 80018b0:	f000 fb4a 	bl	8001f48 <HAL_Init>
 80018b4:	f7ff ffa8 	bl	8001808 <SystemClock_Config>
 80018b8:	2214      	movs	r2, #20
 80018ba:	2100      	movs	r1, #0
 80018bc:	a809      	add	r0, sp, #36	@ 0x24
 80018be:	2400      	movs	r4, #0
 80018c0:	f005 fccf 	bl	8007262 <memset>
 80018c4:	4bba      	ldr	r3, [pc, #744]	@ (8001bb0 <main+0x304>)
 80018c6:	9400      	str	r4, [sp, #0]
 80018c8:	6b1a      	ldr	r2, [r3, #48]	@ 0x30
 80018ca:	48ba      	ldr	r0, [pc, #744]	@ (8001bb4 <main+0x308>)
 80018cc:	f042 0210 	orr.w	r2, r2, #16
 80018d0:	631a      	str	r2, [r3, #48]	@ 0x30
 80018d2:	6b1a      	ldr	r2, [r3, #48]	@ 0x30
 80018d4:	f002 0210 	and.w	r2, r2, #16
 80018d8:	9200      	str	r2, [sp, #0]
 80018da:	9a00      	ldr	r2, [sp, #0]
 80018dc:	9401      	str	r4, [sp, #4]
 80018de:	6b1a      	ldr	r2, [r3, #48]	@ 0x30
 80018e0:	f442 7280 	orr.w	r2, r2, #256	@ 0x100
 80018e4:	631a      	str	r2, [r3, #48]	@ 0x30
 80018e6:	6b1a      	ldr	r2, [r3, #48]	@ 0x30
 80018e8:	f402 7280 	and.w	r2, r2, #256	@ 0x100
 80018ec:	9201      	str	r2, [sp, #4]
 80018ee:	9a01      	ldr	r2, [sp, #4]
 80018f0:	9402      	str	r4, [sp, #8]
 80018f2:	6b1a      	ldr	r2, [r3, #48]	@ 0x30
 80018f4:	f042 0204 	orr.w	r2, r2, #4
 80018f8:	631a      	str	r2, [r3, #48]	@ 0x30
 80018fa:	6b1a      	ldr	r2, [r3, #48]	@ 0x30
 80018fc:	f002 0204 	and.w	r2, r2, #4
 8001900:	9202      	str	r2, [sp, #8]
 8001902:	9a02      	ldr	r2, [sp, #8]
 8001904:	9403      	str	r4, [sp, #12]
 8001906:	6b1a      	ldr	r2, [r3, #48]	@ 0x30
 8001908:	f042 0220 	orr.w	r2, r2, #32
 800190c:	631a      	str	r2, [r3, #48]	@ 0x30
 800190e:	6b1a      	ldr	r2, [r3, #48]	@ 0x30
 8001910:	f002 0220 	and.w	r2, r2, #32
 8001914:	9203      	str	r2, [sp, #12]
 8001916:	9a03      	ldr	r2, [sp, #12]
 8001918:	9404      	str	r4, [sp, #16]
 800191a:	6b1a      	ldr	r2, [r3, #48]	@ 0x30
 800191c:	f042 0280 	orr.w	r2, r2, #128	@ 0x80
 8001920:	631a      	str	r2, [r3, #48]	@ 0x30
 8001922:	6b1a      	ldr	r2, [r3, #48]	@ 0x30
 8001924:	f002 0280 	and.w	r2, r2, #128	@ 0x80
 8001928:	9204      	str	r2, [sp, #16]
 800192a:	9a04      	ldr	r2, [sp, #16]
 800192c:	9405      	str	r4, [sp, #20]
 800192e:	6b1a      	ldr	r2, [r3, #48]	@ 0x30
 8001930:	f042 0201 	orr.w	r2, r2, #1
 8001934:	631a      	str	r2, [r3, #48]	@ 0x30
 8001936:	6b1a      	ldr	r2, [r3, #48]	@ 0x30
 8001938:	f002 0201 	and.w	r2, r2, #1
 800193c:	9205      	str	r2, [sp, #20]
 800193e:	9a05      	ldr	r2, [sp, #20]
 8001940:	9406      	str	r4, [sp, #24]
 8001942:	6b1a      	ldr	r2, [r3, #48]	@ 0x30
 8001944:	f042 0202 	orr.w	r2, r2, #2
 8001948:	631a      	str	r2, [r3, #48]	@ 0x30
 800194a:	6b1a      	ldr	r2, [r3, #48]	@ 0x30
 800194c:	f002 0202 	and.w	r2, r2, #2
 8001950:	9206      	str	r2, [sp, #24]
 8001952:	9a06      	ldr	r2, [sp, #24]
 8001954:	9407      	str	r4, [sp, #28]
 8001956:	6b1a      	ldr	r2, [r3, #48]	@ 0x30
 8001958:	f042 0240 	orr.w	r2, r2, #64	@ 0x40
 800195c:	631a      	str	r2, [r3, #48]	@ 0x30
 800195e:	6b1a      	ldr	r2, [r3, #48]	@ 0x30
 8001960:	f002 0240 	and.w	r2, r2, #64	@ 0x40
 8001964:	9207      	str	r2, [sp, #28]
 8001966:	9a07      	ldr	r2, [sp, #28]
 8001968:	9408      	str	r4, [sp, #32]
 800196a:	6b1a      	ldr	r2, [r3, #48]	@ 0x30
 800196c:	f042 0208 	orr.w	r2, r2, #8
 8001970:	631a      	str	r2, [r3, #48]	@ 0x30
 8001972:	6b1b      	ldr	r3, [r3, #48]	@ 0x30
 8001974:	f003 0308 	and.w	r3, r3, #8
 8001978:	9308      	str	r3, [sp, #32]
 800197a:	4622      	mov	r2, r4
 800197c:	2180      	movs	r1, #128	@ 0x80
 800197e:	9b08      	ldr	r3, [sp, #32]
 8001980:	f000 fc66 	bl	8002250 <HAL_GPIO_WritePin>
 8001984:	488c      	ldr	r0, [pc, #560]	@ (8001bb8 <main+0x30c>)
 8001986:	4622      	mov	r2, r4
 8001988:	f64f 4103 	movw	r1, #64515	@ 0xfc03
 800198c:	f000 fc60 	bl	8002250 <HAL_GPIO_WritePin>
 8001990:	488a      	ldr	r0, [pc, #552]	@ (8001bbc <main+0x310>)
 8001992:	4622      	mov	r2, r4
 8001994:	f44f 4178 	mov.w	r1, #63488	@ 0xf800
 8001998:	f000 fc5a 	bl	8002250 <HAL_GPIO_WritePin>
 800199c:	4888      	ldr	r0, [pc, #544]	@ (8001bc0 <main+0x314>)
 800199e:	4622      	mov	r2, r4
 80019a0:	f240 11ff 	movw	r1, #511	@ 0x1ff
 80019a4:	f000 fc54 	bl	8002250 <HAL_GPIO_WritePin>
 80019a8:	4886      	ldr	r0, [pc, #536]	@ (8001bc4 <main+0x318>)
 80019aa:	4622      	mov	r2, r4
 80019ac:	f64f 7180 	movw	r1, #65408	@ 0xff80
 80019b0:	f000 fc4e 	bl	8002250 <HAL_GPIO_WritePin>
 80019b4:	4884      	ldr	r0, [pc, #528]	@ (8001bc8 <main+0x31c>)
 80019b6:	4622      	mov	r2, r4
 80019b8:	f44f 51fe 	mov.w	r1, #8128	@ 0x1fc0
 80019bc:	f000 fc48 	bl	8002250 <HAL_GPIO_WritePin>
 80019c0:	4882      	ldr	r0, [pc, #520]	@ (8001bcc <main+0x320>)
 80019c2:	4622      	mov	r2, r4
 80019c4:	f44f 417f 	mov.w	r1, #65280	@ 0xff00
 80019c8:	f000 fc42 	bl	8002250 <HAL_GPIO_WritePin>
 80019cc:	4622      	mov	r2, r4
 80019ce:	4880      	ldr	r0, [pc, #512]	@ (8001bd0 <main+0x324>)
 80019d0:	2104      	movs	r1, #4
 80019d2:	f000 fc3d 	bl	8002250 <HAL_GPIO_WritePin>
 80019d6:	2501      	movs	r5, #1
 80019d8:	237f      	movs	r3, #127	@ 0x7f
 80019da:	487a      	ldr	r0, [pc, #488]	@ (8001bc4 <main+0x318>)
 80019dc:	950b      	str	r5, [sp, #44]	@ 0x2c
 80019de:	a909      	add	r1, sp, #36	@ 0x24
 80019e0:	e9cd 3409 	strd	r3, r4, [sp, #36]	@ 0x24
 80019e4:	f000 fb56 	bl	8002094 <HAL_GPIO_Init>
 80019e8:	f44f 637f 	mov.w	r3, #4080	@ 0xff0
 80019ec:	4878      	ldr	r0, [pc, #480]	@ (8001bd0 <main+0x324>)
 80019ee:	950b      	str	r5, [sp, #44]	@ 0x2c
 80019f0:	a909      	add	r1, sp, #36	@ 0x24
 80019f2:	e9cd 3409 	strd	r3, r4, [sp, #36]	@ 0x24
 80019f6:	f000 fb4d 	bl	8002094 <HAL_GPIO_Init>
 80019fa:	f243 030f 	movw	r3, #12303	@ 0x300f
 80019fe:	4875      	ldr	r0, [pc, #468]	@ (8001bd4 <main+0x328>)
 8001a00:	950b      	str	r5, [sp, #44]	@ 0x2c
 8001a02:	a909      	add	r1, sp, #36	@ 0x24
 8001a04:	e9cd 3409 	strd	r3, r4, [sp, #36]	@ 0x24
 8001a08:	f000 fb44 	bl	8002094 <HAL_GPIO_Init>
 8001a0c:	f240 73ff 	movw	r3, #2047	@ 0x7ff
 8001a10:	486a      	ldr	r0, [pc, #424]	@ (8001bbc <main+0x310>)
 8001a12:	950b      	str	r5, [sp, #44]	@ 0x2c
 8001a14:	a909      	add	r1, sp, #36	@ 0x24
 8001a16:	2602      	movs	r6, #2
 8001a18:	e9cd 3409 	strd	r3, r4, [sp, #36]	@ 0x24
 8001a1c:	f000 fb3a 	bl	8002094 <HAL_GPIO_Init>
 8001a20:	4864      	ldr	r0, [pc, #400]	@ (8001bb4 <main+0x308>)
 8001a22:	950b      	str	r5, [sp, #44]	@ 0x2c
 8001a24:	a909      	add	r1, sp, #36	@ 0x24
 8001a26:	e9cd 6409 	strd	r6, r4, [sp, #36]	@ 0x24
 8001a2a:	f000 fb33 	bl	8002094 <HAL_GPIO_Init>
 8001a2e:	230c      	movs	r3, #12
 8001a30:	4865      	ldr	r0, [pc, #404]	@ (8001bc8 <main+0x31c>)
 8001a32:	950b      	str	r5, [sp, #44]	@ 0x2c
 8001a34:	a909      	add	r1, sp, #36	@ 0x24
 8001a36:	e9cd 3409 	strd	r3, r4, [sp, #36]	@ 0x24
 8001a3a:	f000 fb2b 	bl	8002094 <HAL_GPIO_Init>
 8001a3e:	2380      	movs	r3, #128	@ 0x80
 8001a40:	485c      	ldr	r0, [pc, #368]	@ (8001bb4 <main+0x308>)
 8001a42:	a909      	add	r1, sp, #36	@ 0x24
 8001a44:	e9cd 3509 	strd	r3, r5, [sp, #36]	@ 0x24
 8001a48:	e9cd 650b 	strd	r6, r5, [sp, #44]	@ 0x2c
 8001a4c:	f000 fb22 	bl	8002094 <HAL_GPIO_Init>
 8001a50:	f64f 4303 	movw	r3, #64515	@ 0xfc03
 8001a54:	4858      	ldr	r0, [pc, #352]	@ (8001bb8 <main+0x30c>)
 8001a56:	a909      	add	r1, sp, #36	@ 0x24
 8001a58:	e9cd 3509 	strd	r3, r5, [sp, #36]	@ 0x24
 8001a5c:	e9cd 650b 	strd	r6, r5, [sp, #44]	@ 0x2c
 8001a60:	f000 fb18 	bl	8002094 <HAL_GPIO_Init>
 8001a64:	f44f 4378 	mov.w	r3, #63488	@ 0xf800
 8001a68:	4854      	ldr	r0, [pc, #336]	@ (8001bbc <main+0x310>)
 8001a6a:	a909      	add	r1, sp, #36	@ 0x24
 8001a6c:	e9cd 3509 	strd	r3, r5, [sp, #36]	@ 0x24
 8001a70:	e9cd 650b 	strd	r6, r5, [sp, #44]	@ 0x2c
 8001a74:	f000 fb0e 	bl	8002094 <HAL_GPIO_Init>
 8001a78:	230f      	movs	r3, #15
 8001a7a:	4851      	ldr	r0, [pc, #324]	@ (8001bc0 <main+0x314>)
 8001a7c:	a909      	add	r1, sp, #36	@ 0x24
 8001a7e:	e9cd 3509 	strd	r3, r5, [sp, #36]	@ 0x24
 8001a82:	e9cd 650b 	strd	r6, r5, [sp, #44]	@ 0x2c
 8001a86:	f000 fb05 	bl	8002094 <HAL_GPIO_Init>
 8001a8a:	f64f 7380 	movw	r3, #65408	@ 0xff80
 8001a8e:	484d      	ldr	r0, [pc, #308]	@ (8001bc4 <main+0x318>)
 8001a90:	a909      	add	r1, sp, #36	@ 0x24
 8001a92:	e9cd 3509 	strd	r3, r5, [sp, #36]	@ 0x24
 8001a96:	e9cd 650b 	strd	r6, r5, [sp, #44]	@ 0x2c
 8001a9a:	f000 fafb 	bl	8002094 <HAL_GPIO_Init>
 8001a9e:	f44f 53fe 	mov.w	r3, #8128	@ 0x1fc0
 8001aa2:	4849      	ldr	r0, [pc, #292]	@ (8001bc8 <main+0x31c>)
 8001aa4:	a909      	add	r1, sp, #36	@ 0x24
 8001aa6:	e9cd 3509 	strd	r3, r5, [sp, #36]	@ 0x24
 8001aaa:	e9cd 650b 	strd	r6, r5, [sp, #44]	@ 0x2c
 8001aae:	f000 faf1 	bl	8002094 <HAL_GPIO_Init>
 8001ab2:	f44f 437f 	mov.w	r3, #65280	@ 0xff00
 8001ab6:	4845      	ldr	r0, [pc, #276]	@ (8001bcc <main+0x320>)
 8001ab8:	a909      	add	r1, sp, #36	@ 0x24
 8001aba:	e9cd 3509 	strd	r3, r5, [sp, #36]	@ 0x24
 8001abe:	e9cd 650b 	strd	r6, r5, [sp, #44]	@ 0x2c
 8001ac2:	f000 fae7 	bl	8002094 <HAL_GPIO_Init>
 8001ac6:	f44f 73f8 	mov.w	r3, #496	@ 0x1f0
 8001aca:	483d      	ldr	r0, [pc, #244]	@ (8001bc0 <main+0x314>)
 8001acc:	a909      	add	r1, sp, #36	@ 0x24
 8001ace:	e9cd 3509 	strd	r3, r5, [sp, #36]	@ 0x24
 8001ad2:	2704      	movs	r7, #4
 8001ad4:	e9cd 640b 	strd	r6, r4, [sp, #44]	@ 0x2c
 8001ad8:	f000 fadc 	bl	8002094 <HAL_GPIO_Init>
 8001adc:	483c      	ldr	r0, [pc, #240]	@ (8001bd0 <main+0x324>)
 8001ade:	a909      	add	r1, sp, #36	@ 0x24
 8001ae0:	e9cd 7509 	strd	r7, r5, [sp, #36]	@ 0x24
 8001ae4:	e9cd 640b 	strd	r6, r4, [sp, #44]	@ 0x2c
 8001ae8:	f000 fad4 	bl	8002094 <HAL_GPIO_Init>
 8001aec:	23f0      	movs	r3, #240	@ 0xf0
 8001aee:	4837      	ldr	r0, [pc, #220]	@ (8001bcc <main+0x320>)
 8001af0:	950b      	str	r5, [sp, #44]	@ 0x2c
 8001af2:	a909      	add	r1, sp, #36	@ 0x24
 8001af4:	e9cd 3409 	strd	r3, r4, [sp, #36]	@ 0x24
 8001af8:	f000 facc 	bl	8002094 <HAL_GPIO_Init>
 8001afc:	f44f 63c0 	mov.w	r3, #1536	@ 0x600
 8001b00:	482f      	ldr	r0, [pc, #188]	@ (8001bc0 <main+0x314>)
 8001b02:	950b      	str	r5, [sp, #44]	@ 0x2c
 8001b04:	a909      	add	r1, sp, #36	@ 0x24
 8001b06:	e9cd 3409 	strd	r3, r4, [sp, #36]	@ 0x24
 8001b0a:	f000 fac3 	bl	8002094 <HAL_GPIO_Init>
 8001b0e:	f44f 7340 	mov.w	r3, #768	@ 0x300
 8001b12:	a909      	add	r1, sp, #36	@ 0x24
 8001b14:	4828      	ldr	r0, [pc, #160]	@ (8001bb8 <main+0x30c>)
 8001b16:	950b      	str	r5, [sp, #44]	@ 0x2c
 8001b18:	e9cd 3409 	strd	r3, r4, [sp, #36]	@ 0x24
 8001b1c:	f000 faba 	bl	8002094 <HAL_GPIO_Init>
 8001b20:	f7ff fd62 	bl	80015e8 <MX_TIM1_Init>
 8001b24:	f7ff fd3e 	bl	80015a4 <MX_TIM7_Init>
 8001b28:	f7ff fd08 	bl	800153c <MX_TIM4_Init>
 8001b2c:	f003 fb12 	bl	8005154 <osKernelInitialize>
 8001b30:	f005 f804 	bl	8006b3c <MX_USB_DEVICE_Init>
 8001b34:	f7ff fd58 	bl	80015e8 <MX_TIM1_Init>
 8001b38:	f7ff fd00 	bl	800153c <MX_TIM4_Init>
 8001b3c:	f7ff fd32 	bl	80015a4 <MX_TIM7_Init>
 8001b40:	4621      	mov	r1, r4
 8001b42:	4825      	ldr	r0, [pc, #148]	@ (8001bd8 <main+0x32c>)
 8001b44:	f001 feca 	bl	80038dc <HAL_TIM_PWM_Start>
 8001b48:	4824      	ldr	r0, [pc, #144]	@ (8001bdc <main+0x330>)
 8001b4a:	f001 fbb3 	bl	80032b4 <HAL_TIM_Base_Start>
 8001b4e:	4824      	ldr	r0, [pc, #144]	@ (8001be0 <main+0x334>)
 8001b50:	f001 fbb0 	bl	80032b4 <HAL_TIM_Base_Start>
 8001b54:	4b23      	ldr	r3, [pc, #140]	@ (8001be4 <main+0x338>)
 8001b56:	481e      	ldr	r0, [pc, #120]	@ (8001bd0 <main+0x324>)
 8001b58:	701c      	strb	r4, [r3, #0]
 8001b5a:	4b23      	ldr	r3, [pc, #140]	@ (8001be8 <main+0x33c>)
 8001b5c:	701c      	strb	r4, [r3, #0]
 8001b5e:	4b23      	ldr	r3, [pc, #140]	@ (8001bec <main+0x340>)
 8001b60:	462a      	mov	r2, r5
 8001b62:	4639      	mov	r1, r7
 8001b64:	701d      	strb	r5, [r3, #0]
 8001b66:	f000 fb73 	bl	8002250 <HAL_GPIO_WritePin>
 8001b6a:	f44f 7096 	mov.w	r0, #300	@ 0x12c
 8001b6e:	f004 f9e5 	bl	8005f3c <vTaskDelay>
 8001b72:	4a1f      	ldr	r2, [pc, #124]	@ (8001bf0 <main+0x344>)
 8001b74:	481f      	ldr	r0, [pc, #124]	@ (8001bf4 <main+0x348>)
 8001b76:	4621      	mov	r1, r4
 8001b78:	f003 fb18 	bl	80051ac <osThreadNew>
 8001b7c:	4b1e      	ldr	r3, [pc, #120]	@ (8001bf8 <main+0x34c>)
 8001b7e:	4a1f      	ldr	r2, [pc, #124]	@ (8001bfc <main+0x350>)
 8001b80:	6018      	str	r0, [r3, #0]
 8001b82:	4621      	mov	r1, r4
 8001b84:	481e      	ldr	r0, [pc, #120]	@ (8001c00 <main+0x354>)
 8001b86:	f003 fb11 	bl	80051ac <osThreadNew>
 8001b8a:	4b1e      	ldr	r3, [pc, #120]	@ (8001c04 <main+0x358>)
 8001b8c:	4a1e      	ldr	r2, [pc, #120]	@ (8001c08 <main+0x35c>)
 8001b8e:	6018      	str	r0, [r3, #0]
 8001b90:	4621      	mov	r1, r4
 8001b92:	481e      	ldr	r0, [pc, #120]	@ (8001c0c <main+0x360>)
 8001b94:	f003 fb0a 	bl	80051ac <osThreadNew>
 8001b98:	4b1d      	ldr	r3, [pc, #116]	@ (8001c10 <main+0x364>)
 8001b9a:	4a1e      	ldr	r2, [pc, #120]	@ (8001c14 <main+0x368>)
 8001b9c:	6018      	str	r0, [r3, #0]
 8001b9e:	4621      	mov	r1, r4
 8001ba0:	481d      	ldr	r0, [pc, #116]	@ (8001c18 <main+0x36c>)
 8001ba2:	f003 fb03 	bl	80051ac <osThreadNew>
 8001ba6:	4b1d      	ldr	r3, [pc, #116]	@ (8001c1c <main+0x370>)
 8001ba8:	4a1d      	ldr	r2, [pc, #116]	@ (8001c20 <main+0x374>)
 8001baa:	6018      	str	r0, [r3, #0]
 8001bac:	4621      	mov	r1, r4
 8001bae:	e039      	b.n	8001c24 <main+0x378>
 8001bb0:	40023800 	.word	0x40023800
 8001bb4:	40020000 	.word	0x40020000
 8001bb8:	40020400 	.word	0x40020400
 8001bbc:	40021400 	.word	0x40021400
 8001bc0:	40021800 	.word	0x40021800
 8001bc4:	40021000 	.word	0x40021000
 8001bc8:	40021c00 	.word	0x40021c00
 8001bcc:	40020c00 	.word	0x40020c00
 8001bd0:	40022000 	.word	0x40022000
 8001bd4:	40020800 	.word	0x40020800
 8001bd8:	20002d5c 	.word	0x20002d5c
 8001bdc:	20002d14 	.word	0x20002d14
 8001be0:	20002ccc 	.word	0x20002ccc
 8001be4:	200014a3 	.word	0x200014a3
 8001be8:	20000c9a 	.word	0x20000c9a
 8001bec:	20001ca4 	.word	0x20001ca4
 8001bf0:	08009114 	.word	0x08009114
 8001bf4:	080016c5 	.word	0x080016c5
 8001bf8:	20002cc8 	.word	0x20002cc8
 8001bfc:	080090f0 	.word	0x080090f0
 8001c00:	080017a9 	.word	0x080017a9
 8001c04:	20002cc4 	.word	0x20002cc4
 8001c08:	080090cc 	.word	0x080090cc
 8001c0c:	080016dd 	.word	0x080016dd
 8001c10:	20002cc0 	.word	0x20002cc0
 8001c14:	080090a8 	.word	0x080090a8
 8001c18:	080017b7 	.word	0x080017b7
 8001c1c:	20002cbc 	.word	0x20002cbc
 8001c20:	08009084 	.word	0x08009084
 8001c24:	480a      	ldr	r0, [pc, #40]	@ (8001c50 <main+0x3a4>)
 8001c26:	f003 fac1 	bl	80051ac <osThreadNew>
 8001c2a:	4b0a      	ldr	r3, [pc, #40]	@ (8001c54 <main+0x3a8>)
 8001c2c:	4a0a      	ldr	r2, [pc, #40]	@ (8001c58 <main+0x3ac>)
 8001c2e:	6018      	str	r0, [r3, #0]
 8001c30:	4621      	mov	r1, r4
 8001c32:	480a      	ldr	r0, [pc, #40]	@ (8001c5c <main+0x3b0>)
 8001c34:	f003 faba 	bl	80051ac <osThreadNew>
 8001c38:	4b09      	ldr	r3, [pc, #36]	@ (8001c60 <main+0x3b4>)
 8001c3a:	4a0a      	ldr	r2, [pc, #40]	@ (8001c64 <main+0x3b8>)
 8001c3c:	6018      	str	r0, [r3, #0]
 8001c3e:	4621      	mov	r1, r4
 8001c40:	4809      	ldr	r0, [pc, #36]	@ (8001c68 <main+0x3bc>)
 8001c42:	f003 fab3 	bl	80051ac <osThreadNew>
 8001c46:	4b09      	ldr	r3, [pc, #36]	@ (8001c6c <main+0x3c0>)
 8001c48:	6018      	str	r0, [r3, #0]
 8001c4a:	f003 fa95 	bl	8005178 <osKernelStart>
 8001c4e:	e7fe      	b.n	8001c4e <main+0x3a2>
 8001c50:	08001721 	.word	0x08001721
 8001c54:	20002cb8 	.word	0x20002cb8
 8001c58:	08009060 	.word	0x08009060
 8001c5c:	08001765 	.word	0x08001765
 8001c60:	20002cb4 	.word	0x20002cb4
 8001c64:	0800903c 	.word	0x0800903c
 8001c68:	080017c9 	.word	0x080017c9
 8001c6c:	20002cb0 	.word	0x20002cb0

08001c70 <Error_Handler>:
 8001c70:	b672      	cpsid	i
 8001c72:	e7fe      	b.n	8001c72 <Error_Handler+0x2>

08001c74 <HAL_MspInit>:
 8001c74:	b082      	sub	sp, #8
 8001c76:	4b0e      	ldr	r3, [pc, #56]	@ (8001cb0 <HAL_MspInit+0x3c>)
 8001c78:	2200      	movs	r2, #0
 8001c7a:	9200      	str	r2, [sp, #0]
 8001c7c:	6c59      	ldr	r1, [r3, #68]	@ 0x44
 8001c7e:	f441 4180 	orr.w	r1, r1, #16384	@ 0x4000
 8001c82:	6459      	str	r1, [r3, #68]	@ 0x44
 8001c84:	6c59      	ldr	r1, [r3, #68]	@ 0x44
 8001c86:	f401 4180 	and.w	r1, r1, #16384	@ 0x4000
 8001c8a:	9100      	str	r1, [sp, #0]
 8001c8c:	9900      	ldr	r1, [sp, #0]
 8001c8e:	9201      	str	r2, [sp, #4]
 8001c90:	6c19      	ldr	r1, [r3, #64]	@ 0x40
 8001c92:	f041 5180 	orr.w	r1, r1, #268435456	@ 0x10000000
 8001c96:	6419      	str	r1, [r3, #64]	@ 0x40
 8001c98:	6c1b      	ldr	r3, [r3, #64]	@ 0x40
 8001c9a:	f003 5380 	and.w	r3, r3, #268435456	@ 0x10000000
 8001c9e:	9301      	str	r3, [sp, #4]
 8001ca0:	9b01      	ldr	r3, [sp, #4]
 8001ca2:	210f      	movs	r1, #15
 8001ca4:	f06f 0001 	mvn.w	r0, #1
 8001ca8:	b002      	add	sp, #8
 8001caa:	f000 b99f 	b.w	8001fec <HAL_NVIC_SetPriority>
 8001cae:	bf00      	nop
 8001cb0:	40023800 	.word	0x40023800

08001cb4 <HAL_TIM_Base_MspInit>:
 8001cb4:	b51f      	push	{r0, r1, r2, r3, r4, lr}
 8001cb6:	6803      	ldr	r3, [r0, #0]
 8001cb8:	4a1f      	ldr	r2, [pc, #124]	@ (8001d38 <HAL_TIM_Base_MspInit+0x84>)
 8001cba:	4293      	cmp	r3, r2
 8001cbc:	d10e      	bne.n	8001cdc <HAL_TIM_Base_MspInit+0x28>
 8001cbe:	2300      	movs	r3, #0
 8001cc0:	9301      	str	r3, [sp, #4]
 8001cc2:	4b1e      	ldr	r3, [pc, #120]	@ (8001d3c <HAL_TIM_Base_MspInit+0x88>)
 8001cc4:	6c5a      	ldr	r2, [r3, #68]	@ 0x44
 8001cc6:	f042 0201 	orr.w	r2, r2, #1
 8001cca:	645a      	str	r2, [r3, #68]	@ 0x44
 8001ccc:	6c5b      	ldr	r3, [r3, #68]	@ 0x44
 8001cce:	f003 0301 	and.w	r3, r3, #1
 8001cd2:	9301      	str	r3, [sp, #4]
 8001cd4:	9b01      	ldr	r3, [sp, #4]
 8001cd6:	b005      	add	sp, #20
 8001cd8:	f85d fb04 	ldr.w	pc, [sp], #4
 8001cdc:	4a18      	ldr	r2, [pc, #96]	@ (8001d40 <HAL_TIM_Base_MspInit+0x8c>)
 8001cde:	4293      	cmp	r3, r2
 8001ce0:	d115      	bne.n	8001d0e <HAL_TIM_Base_MspInit+0x5a>
 8001ce2:	4b16      	ldr	r3, [pc, #88]	@ (8001d3c <HAL_TIM_Base_MspInit+0x88>)
 8001ce4:	2200      	movs	r2, #0
 8001ce6:	9202      	str	r2, [sp, #8]
 8001ce8:	6c19      	ldr	r1, [r3, #64]	@ 0x40
 8001cea:	f041 0104 	orr.w	r1, r1, #4
 8001cee:	6419      	str	r1, [r3, #64]	@ 0x40
 8001cf0:	6c1b      	ldr	r3, [r3, #64]	@ 0x40
 8001cf2:	f003 0304 	and.w	r3, r3, #4
 8001cf6:	9302      	str	r3, [sp, #8]
 8001cf8:	201e      	movs	r0, #30
 8001cfa:	2105      	movs	r1, #5
 8001cfc:	9b02      	ldr	r3, [sp, #8]
 8001cfe:	f000 f975 	bl	8001fec <HAL_NVIC_SetPriority>
 8001d02:	201e      	movs	r0, #30
 8001d04:	b005      	add	sp, #20
 8001d06:	f85d eb04 	ldr.w	lr, [sp], #4
 8001d0a:	f000 b9a1 	b.w	8002050 <HAL_NVIC_EnableIRQ>
 8001d0e:	4a0d      	ldr	r2, [pc, #52]	@ (8001d44 <HAL_TIM_Base_MspInit+0x90>)
 8001d10:	4293      	cmp	r3, r2
 8001d12:	d1e0      	bne.n	8001cd6 <HAL_TIM_Base_MspInit+0x22>
 8001d14:	4b09      	ldr	r3, [pc, #36]	@ (8001d3c <HAL_TIM_Base_MspInit+0x88>)
 8001d16:	2200      	movs	r2, #0
 8001d18:	9203      	str	r2, [sp, #12]
 8001d1a:	6c19      	ldr	r1, [r3, #64]	@ 0x40
 8001d1c:	f041 0120 	orr.w	r1, r1, #32
 8001d20:	6419      	str	r1, [r3, #64]	@ 0x40
 8001d22:	6c1b      	ldr	r3, [r3, #64]	@ 0x40
 8001d24:	f003 0320 	and.w	r3, r3, #32
 8001d28:	9303      	str	r3, [sp, #12]
 8001d2a:	2037      	movs	r0, #55	@ 0x37
 8001d2c:	2105      	movs	r1, #5
 8001d2e:	9b03      	ldr	r3, [sp, #12]
 8001d30:	f000 f95c 	bl	8001fec <HAL_NVIC_SetPriority>
 8001d34:	2037      	movs	r0, #55	@ 0x37
 8001d36:	e7e5      	b.n	8001d04 <HAL_TIM_Base_MspInit+0x50>
 8001d38:	40010000 	.word	0x40010000
 8001d3c:	40023800 	.word	0x40023800
 8001d40:	40000800 	.word	0x40000800
 8001d44:	40001400 	.word	0x40001400

08001d48 <HAL_TIM_MspPostInit>:
 8001d48:	b510      	push	{r4, lr}
 8001d4a:	4604      	mov	r4, r0
 8001d4c:	b086      	sub	sp, #24
 8001d4e:	2214      	movs	r2, #20
 8001d50:	2100      	movs	r1, #0
 8001d52:	a801      	add	r0, sp, #4
 8001d54:	f005 fa85 	bl	8007262 <memset>
 8001d58:	6822      	ldr	r2, [r4, #0]
 8001d5a:	4b0e      	ldr	r3, [pc, #56]	@ (8001d94 <HAL_TIM_MspPostInit+0x4c>)
 8001d5c:	429a      	cmp	r2, r3
 8001d5e:	d116      	bne.n	8001d8e <HAL_TIM_MspPostInit+0x46>
 8001d60:	2300      	movs	r3, #0
 8001d62:	9300      	str	r3, [sp, #0]
 8001d64:	4b0c      	ldr	r3, [pc, #48]	@ (8001d98 <HAL_TIM_MspPostInit+0x50>)
 8001d66:	480d      	ldr	r0, [pc, #52]	@ (8001d9c <HAL_TIM_MspPostInit+0x54>)
 8001d68:	6b1a      	ldr	r2, [r3, #48]	@ 0x30
 8001d6a:	f042 0201 	orr.w	r2, r2, #1
 8001d6e:	631a      	str	r2, [r3, #48]	@ 0x30
 8001d70:	6b1b      	ldr	r3, [r3, #48]	@ 0x30
 8001d72:	f003 0301 	and.w	r3, r3, #1
 8001d76:	9300      	str	r3, [sp, #0]
 8001d78:	9b00      	ldr	r3, [sp, #0]
 8001d7a:	f44f 7280 	mov.w	r2, #256	@ 0x100
 8001d7e:	2302      	movs	r3, #2
 8001d80:	e9cd 2301 	strd	r2, r3, [sp, #4]
 8001d84:	a901      	add	r1, sp, #4
 8001d86:	2301      	movs	r3, #1
 8001d88:	9305      	str	r3, [sp, #20]
 8001d8a:	f000 f983 	bl	8002094 <HAL_GPIO_Init>
 8001d8e:	b006      	add	sp, #24
 8001d90:	bd10      	pop	{r4, pc}
 8001d92:	bf00      	nop
 8001d94:	40010000 	.word	0x40010000
 8001d98:	40023800 	.word	0x40023800
 8001d9c:	40020000 	.word	0x40020000

08001da0 <NMI_Handler>:
 8001da0:	e7fe      	b.n	8001da0 <NMI_Handler>

08001da2 <HardFault_Handler>:
 8001da2:	e7fe      	b.n	8001da2 <HardFault_Handler>

08001da4 <MemManage_Handler>:
 8001da4:	e7fe      	b.n	8001da4 <MemManage_Handler>

08001da6 <BusFault_Handler>:
 8001da6:	e7fe      	b.n	8001da6 <BusFault_Handler>

08001da8 <UsageFault_Handler>:
 8001da8:	e7fe      	b.n	8001da8 <UsageFault_Handler>

08001daa <DebugMon_Handler>:
 8001daa:	4770      	bx	lr

08001dac <SysTick_Handler>:
 8001dac:	b508      	push	{r3, lr}
 8001dae:	f000 f8e5 	bl	8001f7c <HAL_IncTick>
 8001db2:	f004 f9e7 	bl	8006184 <xTaskGetSchedulerState>
 8001db6:	2801      	cmp	r0, #1
 8001db8:	d003      	beq.n	8001dc2 <SysTick_Handler+0x16>
 8001dba:	e8bd 4008 	ldmia.w	sp!, {r3, lr}
 8001dbe:	f004 bce9 	b.w	8006794 <xPortSysTickHandler>
 8001dc2:	bd08      	pop	{r3, pc}

08001dc4 <TIM4_IRQHandler>:
 8001dc4:	4801      	ldr	r0, [pc, #4]	@ (8001dcc <TIM4_IRQHandler+0x8>)
 8001dc6:	f001 bab1 	b.w	800332c <HAL_TIM_IRQHandler>
 8001dca:	bf00      	nop
 8001dcc:	20002d14 	.word	0x20002d14

08001dd0 <TIM7_IRQHandler>:
 8001dd0:	4801      	ldr	r0, [pc, #4]	@ (8001dd8 <TIM7_IRQHandler+0x8>)
 8001dd2:	f001 baab 	b.w	800332c <HAL_TIM_IRQHandler>
 8001dd6:	bf00      	nop
 8001dd8:	20002ccc 	.word	0x20002ccc

08001ddc <OTG_FS_IRQHandler>:
 8001ddc:	4801      	ldr	r0, [pc, #4]	@ (8001de4 <OTG_FS_IRQHandler+0x8>)
 8001dde:	f000 bc01 	b.w	80025e4 <HAL_PCD_IRQHandler>
 8001de2:	bf00      	nop
 8001de4:	20008df8 	.word	0x20008df8

08001de8 <_getpid>:
 8001de8:	2001      	movs	r0, #1
 8001dea:	4770      	bx	lr

08001dec <_kill>:
 8001dec:	b508      	push	{r3, lr}
 8001dee:	f005 fae3 	bl	80073b8 <__errno>
 8001df2:	2316      	movs	r3, #22
 8001df4:	6003      	str	r3, [r0, #0]
 8001df6:	f04f 30ff 	mov.w	r0, #4294967295
 8001dfa:	bd08      	pop	{r3, pc}

08001dfc <_exit>:
 8001dfc:	b508      	push	{r3, lr}
 8001dfe:	f005 fadb 	bl	80073b8 <__errno>
 8001e02:	2316      	movs	r3, #22
 8001e04:	6003      	str	r3, [r0, #0]
 8001e06:	e7fe      	b.n	8001e06 <_exit+0xa>

08001e08 <_read>:
 8001e08:	b570      	push	{r4, r5, r6, lr}
 8001e0a:	460d      	mov	r5, r1
 8001e0c:	4614      	mov	r4, r2
 8001e0e:	460e      	mov	r6, r1
 8001e10:	1b73      	subs	r3, r6, r5
 8001e12:	429c      	cmp	r4, r3
 8001e14:	dc01      	bgt.n	8001e1a <_read+0x12>
 8001e16:	4620      	mov	r0, r4
 8001e18:	bd70      	pop	{r4, r5, r6, pc}
 8001e1a:	f3af 8000 	nop.w
 8001e1e:	f806 0b01 	strb.w	r0, [r6], #1
 8001e22:	e7f5      	b.n	8001e10 <_read+0x8>

08001e24 <_write>:
 8001e24:	b570      	push	{r4, r5, r6, lr}
 8001e26:	460d      	mov	r5, r1
 8001e28:	4614      	mov	r4, r2
 8001e2a:	460e      	mov	r6, r1
 8001e2c:	1b73      	subs	r3, r6, r5
 8001e2e:	429c      	cmp	r4, r3
 8001e30:	dc01      	bgt.n	8001e36 <_write+0x12>
 8001e32:	4620      	mov	r0, r4
 8001e34:	bd70      	pop	{r4, r5, r6, pc}
 8001e36:	f816 0b01 	ldrb.w	r0, [r6], #1
 8001e3a:	f3af 8000 	nop.w
 8001e3e:	e7f5      	b.n	8001e2c <_write+0x8>

08001e40 <_close>:
 8001e40:	f04f 30ff 	mov.w	r0, #4294967295
 8001e44:	4770      	bx	lr

08001e46 <_fstat>:
 8001e46:	f44f 5300 	mov.w	r3, #8192	@ 0x2000
 8001e4a:	604b      	str	r3, [r1, #4]
 8001e4c:	2000      	movs	r0, #0
 8001e4e:	4770      	bx	lr

08001e50 <_isatty>:
 8001e50:	2001      	movs	r0, #1
 8001e52:	4770      	bx	lr

08001e54 <_lseek>:
 8001e54:	2000      	movs	r0, #0
 8001e56:	4770      	bx	lr

08001e58 <_sbrk>:
 8001e58:	4a0b      	ldr	r2, [pc, #44]	@ (8001e88 <_sbrk+0x30>)
 8001e5a:	6811      	ldr	r1, [r2, #0]
 8001e5c:	b510      	push	{r4, lr}
 8001e5e:	4603      	mov	r3, r0
 8001e60:	b909      	cbnz	r1, 8001e66 <_sbrk+0xe>
 8001e62:	490a      	ldr	r1, [pc, #40]	@ (8001e8c <_sbrk+0x34>)
 8001e64:	6011      	str	r1, [r2, #0]
 8001e66:	6810      	ldr	r0, [r2, #0]
 8001e68:	4909      	ldr	r1, [pc, #36]	@ (8001e90 <_sbrk+0x38>)
 8001e6a:	4c0a      	ldr	r4, [pc, #40]	@ (8001e94 <_sbrk+0x3c>)
 8001e6c:	4403      	add	r3, r0
 8001e6e:	1b09      	subs	r1, r1, r4
 8001e70:	428b      	cmp	r3, r1
 8001e72:	d906      	bls.n	8001e82 <_sbrk+0x2a>
 8001e74:	f005 faa0 	bl	80073b8 <__errno>
 8001e78:	230c      	movs	r3, #12
 8001e7a:	6003      	str	r3, [r0, #0]
 8001e7c:	f04f 30ff 	mov.w	r0, #4294967295
 8001e80:	bd10      	pop	{r4, pc}
 8001e82:	6013      	str	r3, [r2, #0]
 8001e84:	e7fc      	b.n	8001e80 <_sbrk+0x28>
 8001e86:	bf00      	nop
 8001e88:	20002da4 	.word	0x20002da4
 8001e8c:	20009428 	.word	0x20009428
 8001e90:	20020000 	.word	0x20020000
 8001e94:	00000400 	.word	0x00000400

08001e98 <SystemInit>:
 8001e98:	4a03      	ldr	r2, [pc, #12]	@ (8001ea8 <SystemInit+0x10>)
 8001e9a:	f8d2 3088 	ldr.w	r3, [r2, #136]	@ 0x88
 8001e9e:	f443 0370 	orr.w	r3, r3, #15728640	@ 0xf00000
 8001ea2:	f8c2 3088 	str.w	r3, [r2, #136]	@ 0x88
 8001ea6:	4770      	bx	lr
 8001ea8:	e000ed00 	.word	0xe000ed00

08001eac <Reset_Handler>:
 8001eac:	f8df d034 	ldr.w	sp, [pc, #52]	@ 8001ee4 <LoopFillZerobss+0xe>
 8001eb0:	f7ff fff2 	bl	8001e98 <SystemInit>
 8001eb4:	480c      	ldr	r0, [pc, #48]	@ (8001ee8 <LoopFillZerobss+0x12>)
 8001eb6:	490d      	ldr	r1, [pc, #52]	@ (8001eec <LoopFillZerobss+0x16>)
 8001eb8:	4a0d      	ldr	r2, [pc, #52]	@ (8001ef0 <LoopFillZerobss+0x1a>)
 8001eba:	2300      	movs	r3, #0
 8001ebc:	e002      	b.n	8001ec4 <LoopCopyDataInit>

08001ebe <CopyDataInit>:
 8001ebe:	58d4      	ldr	r4, [r2, r3]
 8001ec0:	50c4      	str	r4, [r0, r3]
 8001ec2:	3304      	adds	r3, #4

08001ec4 <LoopCopyDataInit>:
 8001ec4:	18c4      	adds	r4, r0, r3
 8001ec6:	428c      	cmp	r4, r1
 8001ec8:	d3f9      	bcc.n	8001ebe <CopyDataInit>
 8001eca:	4a0a      	ldr	r2, [pc, #40]	@ (8001ef4 <LoopFillZerobss+0x1e>)
 8001ecc:	4c0a      	ldr	r4, [pc, #40]	@ (8001ef8 <LoopFillZerobss+0x22>)
 8001ece:	2300      	movs	r3, #0
 8001ed0:	e001      	b.n	8001ed6 <LoopFillZerobss>

08001ed2 <FillZerobss>:
 8001ed2:	6013      	str	r3, [r2, #0]
 8001ed4:	3204      	adds	r2, #4

08001ed6 <LoopFillZerobss>:
 8001ed6:	42a2      	cmp	r2, r4
 8001ed8:	d3fb      	bcc.n	8001ed2 <FillZerobss>
 8001eda:	f005 fa73 	bl	80073c4 <__libc_init_array>
 8001ede:	f7ff fce5 	bl	80018ac <main>
 8001ee2:	4770      	bx	lr
 8001ee4:	20020000 	.word	0x20020000
 8001ee8:	20000000 	.word	0x20000000
 8001eec:	2000047c 	.word	0x2000047c
 8001ef0:	0800925c 	.word	0x0800925c
 8001ef4:	2000047c 	.word	0x2000047c
 8001ef8:	20009428 	.word	0x20009428

08001efc <ADC_IRQHandler>:
 8001efc:	e7fe      	b.n	8001efc <ADC_IRQHandler>
	...

08001f00 <HAL_InitTick>:
 8001f00:	b538      	push	{r3, r4, r5, lr}
 8001f02:	4b0e      	ldr	r3, [pc, #56]	@ (8001f3c <HAL_InitTick+0x3c>)
 8001f04:	781a      	ldrb	r2, [r3, #0]
 8001f06:	f44f 737a 	mov.w	r3, #1000	@ 0x3e8
 8001f0a:	fbb3 f3f2 	udiv	r3, r3, r2
 8001f0e:	4a0c      	ldr	r2, [pc, #48]	@ (8001f40 <HAL_InitTick+0x40>)
 8001f10:	4605      	mov	r5, r0
 8001f12:	6810      	ldr	r0, [r2, #0]
 8001f14:	fbb0 f0f3 	udiv	r0, r0, r3
 8001f18:	f000 f8a8 	bl	800206c <HAL_SYSTICK_Config>
 8001f1c:	4604      	mov	r4, r0
 8001f1e:	b958      	cbnz	r0, 8001f38 <HAL_InitTick+0x38>
 8001f20:	2d0f      	cmp	r5, #15
 8001f22:	d809      	bhi.n	8001f38 <HAL_InitTick+0x38>
 8001f24:	4602      	mov	r2, r0
 8001f26:	4629      	mov	r1, r5
 8001f28:	f04f 30ff 	mov.w	r0, #4294967295
 8001f2c:	f000 f85e 	bl	8001fec <HAL_NVIC_SetPriority>
 8001f30:	4b04      	ldr	r3, [pc, #16]	@ (8001f44 <HAL_InitTick+0x44>)
 8001f32:	4620      	mov	r0, r4
 8001f34:	601d      	str	r5, [r3, #0]
 8001f36:	bd38      	pop	{r3, r4, r5, pc}
 8001f38:	2001      	movs	r0, #1
 8001f3a:	e7fc      	b.n	8001f36 <HAL_InitTick+0x36>
 8001f3c:	20000320 	.word	0x20000320
 8001f40:	2000031c 	.word	0x2000031c
 8001f44:	20000324 	.word	0x20000324

08001f48 <HAL_Init>:
 8001f48:	b508      	push	{r3, lr}
 8001f4a:	4b0b      	ldr	r3, [pc, #44]	@ (8001f78 <HAL_Init+0x30>)
 8001f4c:	681a      	ldr	r2, [r3, #0]
 8001f4e:	f442 7200 	orr.w	r2, r2, #512	@ 0x200
 8001f52:	601a      	str	r2, [r3, #0]
 8001f54:	681a      	ldr	r2, [r3, #0]
 8001f56:	f442 6280 	orr.w	r2, r2, #1024	@ 0x400
 8001f5a:	601a      	str	r2, [r3, #0]
 8001f5c:	681a      	ldr	r2, [r3, #0]
 8001f5e:	f442 7280 	orr.w	r2, r2, #256	@ 0x100
 8001f62:	601a      	str	r2, [r3, #0]
 8001f64:	2003      	movs	r0, #3
 8001f66:	f000 f82f 	bl	8001fc8 <HAL_NVIC_SetPriorityGrouping>
 8001f6a:	200f      	movs	r0, #15
 8001f6c:	f7ff ffc8 	bl	8001f00 <HAL_InitTick>
 8001f70:	f7ff fe80 	bl	8001c74 <HAL_MspInit>
 8001f74:	2000      	movs	r0, #0
 8001f76:	bd08      	pop	{r3, pc}
 8001f78:	40023c00 	.word	0x40023c00

08001f7c <HAL_IncTick>:
 8001f7c:	4a03      	ldr	r2, [pc, #12]	@ (8001f8c <HAL_IncTick+0x10>)
 8001f7e:	4b04      	ldr	r3, [pc, #16]	@ (8001f90 <HAL_IncTick+0x14>)
 8001f80:	6811      	ldr	r1, [r2, #0]
 8001f82:	781b      	ldrb	r3, [r3, #0]
 8001f84:	440b      	add	r3, r1
 8001f86:	6013      	str	r3, [r2, #0]
 8001f88:	4770      	bx	lr
 8001f8a:	bf00      	nop
 8001f8c:	20002da8 	.word	0x20002da8
 8001f90:	20000320 	.word	0x20000320

08001f94 <HAL_GetTick>:
 8001f94:	4b01      	ldr	r3, [pc, #4]	@ (8001f9c <HAL_GetTick+0x8>)
 8001f96:	6818      	ldr	r0, [r3, #0]
 8001f98:	4770      	bx	lr
 8001f9a:	bf00      	nop
 8001f9c:	20002da8 	.word	0x20002da8

08001fa0 <HAL_Delay>:
 8001fa0:	b538      	push	{r3, r4, r5, lr}
 8001fa2:	4604      	mov	r4, r0
 8001fa4:	f7ff fff6 	bl	8001f94 <HAL_GetTick>
 8001fa8:	1c63      	adds	r3, r4, #1
 8001faa:	bf1c      	itt	ne
 8001fac:	4b05      	ldrne	r3, [pc, #20]	@ (8001fc4 <HAL_Delay+0x24>)
 8001fae:	781b      	ldrbne	r3, [r3, #0]
 8001fb0:	4605      	mov	r5, r0
 8001fb2:	bf18      	it	ne
 8001fb4:	18e4      	addne	r4, r4, r3
 8001fb6:	f7ff ffed 	bl	8001f94 <HAL_GetTick>
 8001fba:	1b43      	subs	r3, r0, r5
 8001fbc:	42a3      	cmp	r3, r4
 8001fbe:	d3fa      	bcc.n	8001fb6 <HAL_Delay+0x16>
 8001fc0:	bd38      	pop	{r3, r4, r5, pc}
 8001fc2:	bf00      	nop
 8001fc4:	20000320 	.word	0x20000320

08001fc8 <HAL_NVIC_SetPriorityGrouping>:
 8001fc8:	4907      	ldr	r1, [pc, #28]	@ (8001fe8 <HAL_NVIC_SetPriorityGrouping+0x20>)
 8001fca:	68ca      	ldr	r2, [r1, #12]
 8001fcc:	f422 62e0 	bic.w	r2, r2, #1792	@ 0x700
 8001fd0:	0203      	lsls	r3, r0, #8
 8001fd2:	0412      	lsls	r2, r2, #16
 8001fd4:	f403 63e0 	and.w	r3, r3, #1792	@ 0x700
 8001fd8:	0c12      	lsrs	r2, r2, #16
 8001fda:	4313      	orrs	r3, r2
 8001fdc:	f043 63bf 	orr.w	r3, r3, #100139008	@ 0x5f80000
 8001fe0:	f443 3300 	orr.w	r3, r3, #131072	@ 0x20000
 8001fe4:	60cb      	str	r3, [r1, #12]
 8001fe6:	4770      	bx	lr
 8001fe8:	e000ed00 	.word	0xe000ed00

08001fec <HAL_NVIC_SetPriority>:
 8001fec:	4b16      	ldr	r3, [pc, #88]	@ (8002048 <HAL_NVIC_SetPriority+0x5c>)
 8001fee:	b530      	push	{r4, r5, lr}
 8001ff0:	68dc      	ldr	r4, [r3, #12]
 8001ff2:	f3c4 2402 	ubfx	r4, r4, #8, #3
 8001ff6:	f1c4 0307 	rsb	r3, r4, #7
 8001ffa:	1d25      	adds	r5, r4, #4
 8001ffc:	2b04      	cmp	r3, #4
 8001ffe:	bf28      	it	cs
 8002000:	2304      	movcs	r3, #4
 8002002:	2d06      	cmp	r5, #6
 8002004:	f04f 35ff 	mov.w	r5, #4294967295
 8002008:	bf8c      	ite	hi
 800200a:	3c03      	subhi	r4, #3
 800200c:	2400      	movls	r4, #0
 800200e:	fa05 f303 	lsl.w	r3, r5, r3
 8002012:	ea21 0303 	bic.w	r3, r1, r3
 8002016:	40a5      	lsls	r5, r4
 8002018:	ea22 0205 	bic.w	r2, r2, r5
 800201c:	40a3      	lsls	r3, r4
 800201e:	2800      	cmp	r0, #0
 8002020:	ea43 0302 	orr.w	r3, r3, r2
 8002024:	bfac      	ite	ge
 8002026:	f100 4060 	addge.w	r0, r0, #3758096384	@ 0xe0000000
 800202a:	4a08      	ldrlt	r2, [pc, #32]	@ (800204c <HAL_NVIC_SetPriority+0x60>)
 800202c:	ea4f 1303 	mov.w	r3, r3, lsl #4
 8002030:	bfb8      	it	lt
 8002032:	f000 000f 	andlt.w	r0, r0, #15
 8002036:	b2db      	uxtb	r3, r3
 8002038:	bfaa      	itet	ge
 800203a:	f500 4061 	addge.w	r0, r0, #57600	@ 0xe100
 800203e:	5413      	strblt	r3, [r2, r0]
 8002040:	f880 3300 	strbge.w	r3, [r0, #768]	@ 0x300
 8002044:	bd30      	pop	{r4, r5, pc}
 8002046:	bf00      	nop
 8002048:	e000ed00 	.word	0xe000ed00
 800204c:	e000ed14 	.word	0xe000ed14

08002050 <HAL_NVIC_EnableIRQ>:
 8002050:	2800      	cmp	r0, #0
 8002052:	db07      	blt.n	8002064 <HAL_NVIC_EnableIRQ+0x14>
 8002054:	4a04      	ldr	r2, [pc, #16]	@ (8002068 <HAL_NVIC_EnableIRQ+0x18>)
 8002056:	0941      	lsrs	r1, r0, #5
 8002058:	2301      	movs	r3, #1
 800205a:	f000 001f 	and.w	r0, r0, #31
 800205e:	4083      	lsls	r3, r0
 8002060:	f842 3021 	str.w	r3, [r2, r1, lsl #2]
 8002064:	4770      	bx	lr
 8002066:	bf00      	nop
 8002068:	e000e100 	.word	0xe000e100

0800206c <HAL_SYSTICK_Config>:
 800206c:	3801      	subs	r0, #1
 800206e:	f1b0 7f80 	cmp.w	r0, #16777216	@ 0x1000000
 8002072:	d20b      	bcs.n	800208c <HAL_SYSTICK_Config+0x20>
 8002074:	f04f 23e0 	mov.w	r3, #3758153728	@ 0xe000e000
 8002078:	4a05      	ldr	r2, [pc, #20]	@ (8002090 <HAL_SYSTICK_Config+0x24>)
 800207a:	6158      	str	r0, [r3, #20]
 800207c:	21f0      	movs	r1, #240	@ 0xf0
 800207e:	f882 1023 	strb.w	r1, [r2, #35]	@ 0x23
 8002082:	2000      	movs	r0, #0
 8002084:	2207      	movs	r2, #7
 8002086:	6198      	str	r0, [r3, #24]
 8002088:	611a      	str	r2, [r3, #16]
 800208a:	4770      	bx	lr
 800208c:	2001      	movs	r0, #1
 800208e:	4770      	bx	lr
 8002090:	e000ed00 	.word	0xe000ed00

08002094 <HAL_GPIO_Init>:
 8002094:	e92d 4ff7 	stmdb	sp!, {r0, r1, r2, r4, r5, r6, r7, r8, r9, sl, fp, lr}
 8002098:	f8df 91a4 	ldr.w	r9, [pc, #420]	@ 8002240 <HAL_GPIO_Init+0x1ac>
 800209c:	4a66      	ldr	r2, [pc, #408]	@ (8002238 <HAL_GPIO_Init+0x1a4>)
 800209e:	2300      	movs	r3, #0
 80020a0:	680d      	ldr	r5, [r1, #0]
 80020a2:	2401      	movs	r4, #1
 80020a4:	409c      	lsls	r4, r3
 80020a6:	ea04 0605 	and.w	r6, r4, r5
 80020aa:	43ac      	bics	r4, r5
 80020ac:	f040 80af 	bne.w	800220e <HAL_GPIO_Init+0x17a>
 80020b0:	684d      	ldr	r5, [r1, #4]
 80020b2:	2703      	movs	r7, #3
 80020b4:	f005 0403 	and.w	r4, r5, #3
 80020b8:	ea4f 0843 	mov.w	r8, r3, lsl #1
 80020bc:	fa07 fc08 	lsl.w	ip, r7, r8
 80020c0:	1e67      	subs	r7, r4, #1
 80020c2:	2f01      	cmp	r7, #1
 80020c4:	ea6f 0c0c 	mvn.w	ip, ip
 80020c8:	d834      	bhi.n	8002134 <HAL_GPIO_Init+0xa0>
 80020ca:	6887      	ldr	r7, [r0, #8]
 80020cc:	ea07 0e0c 	and.w	lr, r7, ip
 80020d0:	68cf      	ldr	r7, [r1, #12]
 80020d2:	fa07 f708 	lsl.w	r7, r7, r8
 80020d6:	ea47 070e 	orr.w	r7, r7, lr
 80020da:	6087      	str	r7, [r0, #8]
 80020dc:	6847      	ldr	r7, [r0, #4]
 80020de:	ea27 0e06 	bic.w	lr, r7, r6
 80020e2:	f3c5 1700 	ubfx	r7, r5, #4, #1
 80020e6:	409f      	lsls	r7, r3
 80020e8:	ea47 070e 	orr.w	r7, r7, lr
 80020ec:	6047      	str	r7, [r0, #4]
 80020ee:	68c7      	ldr	r7, [r0, #12]
 80020f0:	ea07 0e0c 	and.w	lr, r7, ip
 80020f4:	688f      	ldr	r7, [r1, #8]
 80020f6:	fa07 f708 	lsl.w	r7, r7, r8
 80020fa:	ea47 070e 	orr.w	r7, r7, lr
 80020fe:	2c02      	cmp	r4, #2
 8002100:	60c7      	str	r7, [r0, #12]
 8002102:	d119      	bne.n	8002138 <HAL_GPIO_Init+0xa4>
 8002104:	ea4f 0ad3 	mov.w	sl, r3, lsr #3
 8002108:	eb00 0a8a 	add.w	sl, r0, sl, lsl #2
 800210c:	f003 0b07 	and.w	fp, r3, #7
 8002110:	f8da 7020 	ldr.w	r7, [sl, #32]
 8002114:	ea4f 0b8b 	mov.w	fp, fp, lsl #2
 8002118:	f04f 0e0f 	mov.w	lr, #15
 800211c:	fa0e fe0b 	lsl.w	lr, lr, fp
 8002120:	ea27 0e0e 	bic.w	lr, r7, lr
 8002124:	690f      	ldr	r7, [r1, #16]
 8002126:	fa07 f70b 	lsl.w	r7, r7, fp
 800212a:	ea47 070e 	orr.w	r7, r7, lr
 800212e:	f8ca 7020 	str.w	r7, [sl, #32]
 8002132:	e001      	b.n	8002138 <HAL_GPIO_Init+0xa4>
 8002134:	2c03      	cmp	r4, #3
 8002136:	d1da      	bne.n	80020ee <HAL_GPIO_Init+0x5a>
 8002138:	6807      	ldr	r7, [r0, #0]
 800213a:	fa04 f408 	lsl.w	r4, r4, r8
 800213e:	ea07 070c 	and.w	r7, r7, ip
 8002142:	433c      	orrs	r4, r7
 8002144:	f415 3f40 	tst.w	r5, #196608	@ 0x30000
 8002148:	6004      	str	r4, [r0, #0]
 800214a:	d060      	beq.n	800220e <HAL_GPIO_Init+0x17a>
 800214c:	2400      	movs	r4, #0
 800214e:	9401      	str	r4, [sp, #4]
 8002150:	f8d9 4044 	ldr.w	r4, [r9, #68]	@ 0x44
 8002154:	f444 4480 	orr.w	r4, r4, #16384	@ 0x4000
 8002158:	f8c9 4044 	str.w	r4, [r9, #68]	@ 0x44
 800215c:	f8d9 4044 	ldr.w	r4, [r9, #68]	@ 0x44
 8002160:	f023 0703 	bic.w	r7, r3, #3
 8002164:	f107 4780 	add.w	r7, r7, #1073741824	@ 0x40000000
 8002168:	f404 4480 	and.w	r4, r4, #16384	@ 0x4000
 800216c:	f507 379c 	add.w	r7, r7, #79872	@ 0x13800
 8002170:	9401      	str	r4, [sp, #4]
 8002172:	f003 0c03 	and.w	ip, r3, #3
 8002176:	9c01      	ldr	r4, [sp, #4]
 8002178:	f8d7 e008 	ldr.w	lr, [r7, #8]
 800217c:	ea4f 0c8c 	mov.w	ip, ip, lsl #2
 8002180:	240f      	movs	r4, #15
 8002182:	fa04 f40c 	lsl.w	r4, r4, ip
 8002186:	ea2e 0e04 	bic.w	lr, lr, r4
 800218a:	4c2c      	ldr	r4, [pc, #176]	@ (800223c <HAL_GPIO_Init+0x1a8>)
 800218c:	42a0      	cmp	r0, r4
 800218e:	d045      	beq.n	800221c <HAL_GPIO_Init+0x188>
 8002190:	f504 6480 	add.w	r4, r4, #1024	@ 0x400
 8002194:	42a0      	cmp	r0, r4
 8002196:	d043      	beq.n	8002220 <HAL_GPIO_Init+0x18c>
 8002198:	f504 6480 	add.w	r4, r4, #1024	@ 0x400
 800219c:	42a0      	cmp	r0, r4
 800219e:	d041      	beq.n	8002224 <HAL_GPIO_Init+0x190>
 80021a0:	f504 6480 	add.w	r4, r4, #1024	@ 0x400
 80021a4:	42a0      	cmp	r0, r4
 80021a6:	d03f      	beq.n	8002228 <HAL_GPIO_Init+0x194>
 80021a8:	f504 6480 	add.w	r4, r4, #1024	@ 0x400
 80021ac:	42a0      	cmp	r0, r4
 80021ae:	d03d      	beq.n	800222c <HAL_GPIO_Init+0x198>
 80021b0:	f504 6480 	add.w	r4, r4, #1024	@ 0x400
 80021b4:	42a0      	cmp	r0, r4
 80021b6:	d03b      	beq.n	8002230 <HAL_GPIO_Init+0x19c>
 80021b8:	f504 6480 	add.w	r4, r4, #1024	@ 0x400
 80021bc:	42a0      	cmp	r0, r4
 80021be:	d039      	beq.n	8002234 <HAL_GPIO_Init+0x1a0>
 80021c0:	f504 6480 	add.w	r4, r4, #1024	@ 0x400
 80021c4:	42a0      	cmp	r0, r4
 80021c6:	bf14      	ite	ne
 80021c8:	2408      	movne	r4, #8
 80021ca:	2407      	moveq	r4, #7
 80021cc:	fa04 f40c 	lsl.w	r4, r4, ip
 80021d0:	ea44 040e 	orr.w	r4, r4, lr
 80021d4:	60bc      	str	r4, [r7, #8]
 80021d6:	6894      	ldr	r4, [r2, #8]
 80021d8:	43f7      	mvns	r7, r6
 80021da:	f415 1f80 	tst.w	r5, #1048576	@ 0x100000
 80021de:	bf0c      	ite	eq
 80021e0:	403c      	andeq	r4, r7
 80021e2:	4334      	orrne	r4, r6
 80021e4:	6094      	str	r4, [r2, #8]
 80021e6:	68d4      	ldr	r4, [r2, #12]
 80021e8:	f415 1f00 	tst.w	r5, #2097152	@ 0x200000
 80021ec:	bf0c      	ite	eq
 80021ee:	403c      	andeq	r4, r7
 80021f0:	4334      	orrne	r4, r6
 80021f2:	60d4      	str	r4, [r2, #12]
 80021f4:	6854      	ldr	r4, [r2, #4]
 80021f6:	f415 3f00 	tst.w	r5, #131072	@ 0x20000
 80021fa:	bf0c      	ite	eq
 80021fc:	403c      	andeq	r4, r7
 80021fe:	4334      	orrne	r4, r6
 8002200:	6054      	str	r4, [r2, #4]
 8002202:	6814      	ldr	r4, [r2, #0]
 8002204:	03ed      	lsls	r5, r5, #15
 8002206:	bf54      	ite	pl
 8002208:	403c      	andpl	r4, r7
 800220a:	4334      	orrmi	r4, r6
 800220c:	6014      	str	r4, [r2, #0]
 800220e:	3301      	adds	r3, #1
 8002210:	2b10      	cmp	r3, #16
 8002212:	f47f af45 	bne.w	80020a0 <HAL_GPIO_Init+0xc>
 8002216:	b003      	add	sp, #12
 8002218:	e8bd 8ff0 	ldmia.w	sp!, {r4, r5, r6, r7, r8, r9, sl, fp, pc}
 800221c:	2400      	movs	r4, #0
 800221e:	e7d5      	b.n	80021cc <HAL_GPIO_Init+0x138>
 8002220:	2401      	movs	r4, #1
 8002222:	e7d3      	b.n	80021cc <HAL_GPIO_Init+0x138>
 8002224:	2402      	movs	r4, #2
 8002226:	e7d1      	b.n	80021cc <HAL_GPIO_Init+0x138>
 8002228:	2403      	movs	r4, #3
 800222a:	e7cf      	b.n	80021cc <HAL_GPIO_Init+0x138>
 800222c:	2404      	movs	r4, #4
 800222e:	e7cd      	b.n	80021cc <HAL_GPIO_Init+0x138>
 8002230:	2405      	movs	r4, #5
 8002232:	e7cb      	b.n	80021cc <HAL_GPIO_Init+0x138>
 8002234:	2406      	movs	r4, #6
 8002236:	e7c9      	b.n	80021cc <HAL_GPIO_Init+0x138>
 8002238:	40013c00 	.word	0x40013c00
 800223c:	40020000 	.word	0x40020000
 8002240:	40023800 	.word	0x40023800

08002244 <HAL_GPIO_ReadPin>:
 8002244:	6903      	ldr	r3, [r0, #16]
 8002246:	4219      	tst	r1, r3
 8002248:	bf14      	ite	ne
 800224a:	2001      	movne	r0, #1
 800224c:	2000      	moveq	r0, #0
 800224e:	4770      	bx	lr

08002250 <HAL_GPIO_WritePin>:
 8002250:	b10a      	cbz	r2, 8002256 <HAL_GPIO_WritePin+0x6>
 8002252:	6181      	str	r1, [r0, #24]
 8002254:	4770      	bx	lr
 8002256:	0409      	lsls	r1, r1, #16
 8002258:	e7fb      	b.n	8002252 <HAL_GPIO_WritePin+0x2>

0800225a <HAL_PCD_Init>:
 800225a:	b5f7      	push	{r0, r1, r2, r4, r5, r6, r7, lr}
 800225c:	4604      	mov	r4, r0
 800225e:	b310      	cbz	r0, 80022a6 <HAL_PCD_Init+0x4c>
 8002260:	f890 3495 	ldrb.w	r3, [r0, #1173]	@ 0x495
 8002264:	6805      	ldr	r5, [r0, #0]
 8002266:	f003 02ff 	and.w	r2, r3, #255	@ 0xff
 800226a:	b91b      	cbnz	r3, 8002274 <HAL_PCD_Init+0x1a>
 800226c:	f880 2494 	strb.w	r2, [r0, #1172]	@ 0x494
 8002270:	f004 fd58 	bl	8006d24 <HAL_PCD_MspInit>
 8002274:	2303      	movs	r3, #3
 8002276:	f1b5 4fa0 	cmp.w	r5, #1342177280	@ 0x50000000
 800227a:	f884 3495 	strb.w	r3, [r4, #1173]	@ 0x495
 800227e:	bf04      	itt	eq
 8002280:	2300      	moveq	r3, #0
 8002282:	71a3      	strbeq	r3, [r4, #6]
 8002284:	6820      	ldr	r0, [r4, #0]
 8002286:	f001 fcb3 	bl	8003bf0 <USB_DisableGlobalInt>
 800228a:	7c23      	ldrb	r3, [r4, #16]
 800228c:	f88d 3000 	strb.w	r3, [sp]
 8002290:	1d25      	adds	r5, r4, #4
 8002292:	e895 000e 	ldmia.w	r5, {r1, r2, r3}
 8002296:	6820      	ldr	r0, [r4, #0]
 8002298:	f001 fbf0 	bl	8003a7c <USB_CoreInit>
 800229c:	4601      	mov	r1, r0
 800229e:	b130      	cbz	r0, 80022ae <HAL_PCD_Init+0x54>
 80022a0:	2302      	movs	r3, #2
 80022a2:	f884 3495 	strb.w	r3, [r4, #1173]	@ 0x495
 80022a6:	2501      	movs	r5, #1
 80022a8:	4628      	mov	r0, r5
 80022aa:	b003      	add	sp, #12
 80022ac:	bdf0      	pop	{r4, r5, r6, r7, pc}
 80022ae:	6820      	ldr	r0, [r4, #0]
 80022b0:	f001 fca4 	bl	8003bfc <USB_SetCurrentMode>
 80022b4:	2800      	cmp	r0, #0
 80022b6:	d1f3      	bne.n	80022a0 <HAL_PCD_Init+0x46>
 80022b8:	7926      	ldrb	r6, [r4, #4]
 80022ba:	f104 0314 	add.w	r3, r4, #20
 80022be:	2701      	movs	r7, #1
 80022c0:	4602      	mov	r2, r0
 80022c2:	b2c1      	uxtb	r1, r0
 80022c4:	428e      	cmp	r6, r1
 80022c6:	f103 0324 	add.w	r3, r3, #36	@ 0x24
 80022ca:	d81b      	bhi.n	8002304 <HAL_PCD_Init+0xaa>
 80022cc:	2100      	movs	r1, #0
 80022ce:	f504 7315 	add.w	r3, r4, #596	@ 0x254
 80022d2:	460a      	mov	r2, r1
 80022d4:	b2c8      	uxtb	r0, r1
 80022d6:	4286      	cmp	r6, r0
 80022d8:	f103 0324 	add.w	r3, r3, #36	@ 0x24
 80022dc:	d820      	bhi.n	8002320 <HAL_PCD_Init+0xc6>
 80022de:	7c23      	ldrb	r3, [r4, #16]
 80022e0:	f88d 3000 	strb.w	r3, [sp]
 80022e4:	e895 000e 	ldmia.w	r5, {r1, r2, r3}
 80022e8:	6820      	ldr	r0, [r4, #0]
 80022ea:	f001 fd03 	bl	8003cf4 <USB_DevInit>
 80022ee:	4605      	mov	r5, r0
 80022f0:	2800      	cmp	r0, #0
 80022f2:	d1d5      	bne.n	80022a0 <HAL_PCD_Init+0x46>
 80022f4:	2301      	movs	r3, #1
 80022f6:	7460      	strb	r0, [r4, #17]
 80022f8:	6820      	ldr	r0, [r4, #0]
 80022fa:	f884 3495 	strb.w	r3, [r4, #1173]	@ 0x495
 80022fe:	f002 f83d 	bl	800437c <USB_DevDisconnect>
 8002302:	e7d1      	b.n	80022a8 <HAL_PCD_Init+0x4e>
 8002304:	f823 0c0a 	strh.w	r0, [r3, #-10]
 8002308:	e943 2207 	strd	r2, r2, [r3, #-28]
 800230c:	f803 7c23 	strb.w	r7, [r3, #-35]
 8002310:	f803 1c24 	strb.w	r1, [r3, #-36]
 8002314:	f803 2c20 	strb.w	r2, [r3, #-32]
 8002318:	f843 2c14 	str.w	r2, [r3, #-20]
 800231c:	3001      	adds	r0, #1
 800231e:	e7d0      	b.n	80022c2 <HAL_PCD_Init+0x68>
 8002320:	e943 2207 	strd	r2, r2, [r3, #-28]
 8002324:	f803 2c23 	strb.w	r2, [r3, #-35]
 8002328:	f803 0c24 	strb.w	r0, [r3, #-36]
 800232c:	f803 2c20 	strb.w	r2, [r3, #-32]
 8002330:	f843 2c14 	str.w	r2, [r3, #-20]
 8002334:	3101      	adds	r1, #1
 8002336:	e7cd      	b.n	80022d4 <HAL_PCD_Init+0x7a>

08002338 <HAL_PCD_Start>:
 8002338:	b510      	push	{r4, lr}
 800233a:	4604      	mov	r4, r0
 800233c:	6800      	ldr	r0, [r0, #0]
 800233e:	f894 3494 	ldrb.w	r3, [r4, #1172]	@ 0x494
 8002342:	2b01      	cmp	r3, #1
 8002344:	d015      	beq.n	8002372 <HAL_PCD_Start+0x3a>
 8002346:	2301      	movs	r3, #1
 8002348:	f884 3494 	strb.w	r3, [r4, #1172]	@ 0x494
 800234c:	68c3      	ldr	r3, [r0, #12]
 800234e:	065b      	lsls	r3, r3, #25
 8002350:	d506      	bpl.n	8002360 <HAL_PCD_Start+0x28>
 8002352:	7b63      	ldrb	r3, [r4, #13]
 8002354:	2b01      	cmp	r3, #1
 8002356:	bf02      	ittt	eq
 8002358:	6b83      	ldreq	r3, [r0, #56]	@ 0x38
 800235a:	f443 3380 	orreq.w	r3, r3, #65536	@ 0x10000
 800235e:	6383      	streq	r3, [r0, #56]	@ 0x38
 8002360:	f001 fc40 	bl	8003be4 <USB_EnableGlobalInt>
 8002364:	6820      	ldr	r0, [r4, #0]
 8002366:	f001 fffb 	bl	8004360 <USB_DevConnect>
 800236a:	2000      	movs	r0, #0
 800236c:	f884 0494 	strb.w	r0, [r4, #1172]	@ 0x494
 8002370:	bd10      	pop	{r4, pc}
 8002372:	2002      	movs	r0, #2
 8002374:	e7fc      	b.n	8002370 <HAL_PCD_Start+0x38>

08002376 <HAL_PCD_SetAddress>:
 8002376:	b510      	push	{r4, lr}
 8002378:	f890 2494 	ldrb.w	r2, [r0, #1172]	@ 0x494
 800237c:	2a01      	cmp	r2, #1
 800237e:	4604      	mov	r4, r0
 8002380:	d00a      	beq.n	8002398 <HAL_PCD_SetAddress+0x22>
 8002382:	2201      	movs	r2, #1
 8002384:	f880 2494 	strb.w	r2, [r0, #1172]	@ 0x494
 8002388:	7441      	strb	r1, [r0, #17]
 800238a:	6800      	ldr	r0, [r0, #0]
 800238c:	f001 ffd8 	bl	8004340 <USB_SetDevAddress>
 8002390:	2000      	movs	r0, #0
 8002392:	f884 0494 	strb.w	r0, [r4, #1172]	@ 0x494
 8002396:	bd10      	pop	{r4, pc}
 8002398:	2002      	movs	r0, #2
 800239a:	e7fc      	b.n	8002396 <HAL_PCD_SetAddress+0x20>

0800239c <HAL_PCD_EP_Open>:
 800239c:	b570      	push	{r4, r5, r6, lr}
 800239e:	f001 060f 	and.w	r6, r1, #15
 80023a2:	eb06 04c6 	add.w	r4, r6, r6, lsl #3
 80023a6:	f011 0f80 	tst.w	r1, #128	@ 0x80
 80023aa:	4605      	mov	r5, r0
 80023ac:	ea4f 0484 	mov.w	r4, r4, lsl #2
 80023b0:	f04f 0024 	mov.w	r0, #36	@ 0x24
 80023b4:	d020      	beq.n	80023f8 <HAL_PCD_EP_Open+0x5c>
 80023b6:	fb00 5006 	mla	r0, r0, r6, r5
 80023ba:	f104 0114 	add.w	r1, r4, #20
 80023be:	2401      	movs	r4, #1
 80023c0:	4429      	add	r1, r5
 80023c2:	7544      	strb	r4, [r0, #21]
 80023c4:	f3c2 020a 	ubfx	r2, r2, #0, #11
 80023c8:	608a      	str	r2, [r1, #8]
 80023ca:	784a      	ldrb	r2, [r1, #1]
 80023cc:	700e      	strb	r6, [r1, #0]
 80023ce:	710b      	strb	r3, [r1, #4]
 80023d0:	b102      	cbz	r2, 80023d4 <HAL_PCD_EP_Open+0x38>
 80023d2:	834e      	strh	r6, [r1, #26]
 80023d4:	2b02      	cmp	r3, #2
 80023d6:	bf04      	itt	eq
 80023d8:	2300      	moveq	r3, #0
 80023da:	714b      	strbeq	r3, [r1, #5]
 80023dc:	f895 3494 	ldrb.w	r3, [r5, #1172]	@ 0x494
 80023e0:	2b01      	cmp	r3, #1
 80023e2:	d012      	beq.n	800240a <HAL_PCD_EP_Open+0x6e>
 80023e4:	2301      	movs	r3, #1
 80023e6:	6828      	ldr	r0, [r5, #0]
 80023e8:	f885 3494 	strb.w	r3, [r5, #1172]	@ 0x494
 80023ec:	f001 fd47 	bl	8003e7e <USB_ActivateEndpoint>
 80023f0:	2000      	movs	r0, #0
 80023f2:	f885 0494 	strb.w	r0, [r5, #1172]	@ 0x494
 80023f6:	bd70      	pop	{r4, r5, r6, pc}
 80023f8:	fb00 5006 	mla	r0, r0, r6, r5
 80023fc:	f504 7115 	add.w	r1, r4, #596	@ 0x254
 8002400:	2400      	movs	r4, #0
 8002402:	4429      	add	r1, r5
 8002404:	f880 4255 	strb.w	r4, [r0, #597]	@ 0x255
 8002408:	e7dc      	b.n	80023c4 <HAL_PCD_EP_Open+0x28>
 800240a:	2002      	movs	r0, #2
 800240c:	e7f3      	b.n	80023f6 <HAL_PCD_EP_Open+0x5a>

0800240e <HAL_PCD_EP_Close>:
 800240e:	b510      	push	{r4, lr}
 8002410:	4604      	mov	r4, r0
 8002412:	f001 000f 	and.w	r0, r1, #15
 8002416:	eb00 03c0 	add.w	r3, r0, r0, lsl #3
 800241a:	f011 0f80 	tst.w	r1, #128	@ 0x80
 800241e:	ea4f 0383 	mov.w	r3, r3, lsl #2
 8002422:	f04f 0224 	mov.w	r2, #36	@ 0x24
 8002426:	d015      	beq.n	8002454 <HAL_PCD_EP_Close+0x46>
 8002428:	fb02 4200 	mla	r2, r2, r0, r4
 800242c:	f103 0114 	add.w	r1, r3, #20
 8002430:	2301      	movs	r3, #1
 8002432:	4421      	add	r1, r4
 8002434:	7553      	strb	r3, [r2, #21]
 8002436:	7008      	strb	r0, [r1, #0]
 8002438:	f894 3494 	ldrb.w	r3, [r4, #1172]	@ 0x494
 800243c:	2b01      	cmp	r3, #1
 800243e:	d012      	beq.n	8002466 <HAL_PCD_EP_Close+0x58>
 8002440:	2301      	movs	r3, #1
 8002442:	6820      	ldr	r0, [r4, #0]
 8002444:	f884 3494 	strb.w	r3, [r4, #1172]	@ 0x494
 8002448:	f001 fd58 	bl	8003efc <USB_DeactivateEndpoint>
 800244c:	2000      	movs	r0, #0
 800244e:	f884 0494 	strb.w	r0, [r4, #1172]	@ 0x494
 8002452:	bd10      	pop	{r4, pc}
 8002454:	fb02 4200 	mla	r2, r2, r0, r4
 8002458:	f503 7115 	add.w	r1, r3, #596	@ 0x254
 800245c:	2300      	movs	r3, #0
 800245e:	4421      	add	r1, r4
 8002460:	f882 3255 	strb.w	r3, [r2, #597]	@ 0x255
 8002464:	e7e7      	b.n	8002436 <HAL_PCD_EP_Close+0x28>
 8002466:	2002      	movs	r0, #2
 8002468:	e7f3      	b.n	8002452 <HAL_PCD_EP_Close+0x44>

0800246a <HAL_PCD_EP_Receive>:
 800246a:	b570      	push	{r4, r5, r6, lr}
 800246c:	f001 050f 	and.w	r5, r1, #15
 8002470:	2424      	movs	r4, #36	@ 0x24
 8002472:	fb04 0105 	mla	r1, r4, r5, r0
 8002476:	fb04 0405 	mla	r4, r4, r5, r0
 800247a:	e9c4 2398 	strd	r2, r3, [r4, #608]	@ 0x260
 800247e:	2300      	movs	r3, #0
 8002480:	f8c4 3268 	str.w	r3, [r4, #616]	@ 0x268
 8002484:	f884 3255 	strb.w	r3, [r4, #597]	@ 0x255
 8002488:	f884 5254 	strb.w	r5, [r4, #596]	@ 0x254
 800248c:	4616      	mov	r6, r2
 800248e:	7982      	ldrb	r2, [r0, #6]
 8002490:	6800      	ldr	r0, [r0, #0]
 8002492:	2a01      	cmp	r2, #1
 8002494:	f501 7115 	add.w	r1, r1, #596	@ 0x254
 8002498:	bf08      	it	eq
 800249a:	f8c4 6270 	streq.w	r6, [r4, #624]	@ 0x270
 800249e:	f001 fdd9 	bl	8004054 <USB_EPStartXfer>
 80024a2:	2000      	movs	r0, #0
 80024a4:	bd70      	pop	{r4, r5, r6, pc}

080024a6 <HAL_PCD_EP_GetRxCount>:
 80024a6:	f001 010f 	and.w	r1, r1, #15
 80024aa:	2324      	movs	r3, #36	@ 0x24
 80024ac:	fb03 0001 	mla	r0, r3, r1, r0
 80024b0:	f8d0 0268 	ldr.w	r0, [r0, #616]	@ 0x268
 80024b4:	4770      	bx	lr

080024b6 <HAL_PCD_EP_Transmit>:
 80024b6:	b570      	push	{r4, r5, r6, lr}
 80024b8:	f001 050f 	and.w	r5, r1, #15
 80024bc:	2424      	movs	r4, #36	@ 0x24
 80024be:	fb04 0105 	mla	r1, r4, r5, r0
 80024c2:	fb04 0405 	mla	r4, r4, r5, r0
 80024c6:	e9c4 2308 	strd	r2, r3, [r4, #32]
 80024ca:	2300      	movs	r3, #0
 80024cc:	62a3      	str	r3, [r4, #40]	@ 0x28
 80024ce:	2301      	movs	r3, #1
 80024d0:	7563      	strb	r3, [r4, #21]
 80024d2:	7525      	strb	r5, [r4, #20]
 80024d4:	4616      	mov	r6, r2
 80024d6:	7982      	ldrb	r2, [r0, #6]
 80024d8:	6800      	ldr	r0, [r0, #0]
 80024da:	429a      	cmp	r2, r3
 80024dc:	f101 0114 	add.w	r1, r1, #20
 80024e0:	bf08      	it	eq
 80024e2:	6326      	streq	r6, [r4, #48]	@ 0x30
 80024e4:	f001 fdb6 	bl	8004054 <USB_EPStartXfer>
 80024e8:	2000      	movs	r0, #0
 80024ea:	bd70      	pop	{r4, r5, r6, pc}

080024ec <HAL_PCD_EP_SetStall>:
 80024ec:	b538      	push	{r3, r4, r5, lr}
 80024ee:	7903      	ldrb	r3, [r0, #4]
 80024f0:	f001 050f 	and.w	r5, r1, #15
 80024f4:	42ab      	cmp	r3, r5
 80024f6:	4604      	mov	r4, r0
 80024f8:	d32b      	bcc.n	8002552 <HAL_PCD_EP_SetStall+0x66>
 80024fa:	f011 0f80 	tst.w	r1, #128	@ 0x80
 80024fe:	f04f 0024 	mov.w	r0, #36	@ 0x24
 8002502:	d01d      	beq.n	8002540 <HAL_PCD_EP_SetStall+0x54>
 8002504:	fb00 4105 	mla	r1, r0, r5, r4
 8002508:	fb00 4005 	mla	r0, r0, r5, r4
 800250c:	2301      	movs	r3, #1
 800250e:	3114      	adds	r1, #20
 8002510:	7543      	strb	r3, [r0, #21]
 8002512:	2301      	movs	r3, #1
 8002514:	708b      	strb	r3, [r1, #2]
 8002516:	700d      	strb	r5, [r1, #0]
 8002518:	f894 2494 	ldrb.w	r2, [r4, #1172]	@ 0x494
 800251c:	429a      	cmp	r2, r3
 800251e:	d01a      	beq.n	8002556 <HAL_PCD_EP_SetStall+0x6a>
 8002520:	6820      	ldr	r0, [r4, #0]
 8002522:	f884 3494 	strb.w	r3, [r4, #1172]	@ 0x494
 8002526:	f001 feb7 	bl	8004298 <USB_EPSetStall>
 800252a:	b92d      	cbnz	r5, 8002538 <HAL_PCD_EP_SetStall+0x4c>
 800252c:	79a1      	ldrb	r1, [r4, #6]
 800252e:	6820      	ldr	r0, [r4, #0]
 8002530:	f204 429c 	addw	r2, r4, #1180	@ 0x49c
 8002534:	f001 ff70 	bl	8004418 <USB_EP0_OutStart>
 8002538:	2000      	movs	r0, #0
 800253a:	f884 0494 	strb.w	r0, [r4, #1172]	@ 0x494
 800253e:	bd38      	pop	{r3, r4, r5, pc}
 8002540:	fb00 4301 	mla	r3, r0, r1, r4
 8002544:	461a      	mov	r2, r3
 8002546:	f503 7115 	add.w	r1, r3, #596	@ 0x254
 800254a:	2300      	movs	r3, #0
 800254c:	f882 3255 	strb.w	r3, [r2, #597]	@ 0x255
 8002550:	e7df      	b.n	8002512 <HAL_PCD_EP_SetStall+0x26>
 8002552:	2001      	movs	r0, #1
 8002554:	e7f3      	b.n	800253e <HAL_PCD_EP_SetStall+0x52>
 8002556:	2002      	movs	r0, #2
 8002558:	e7f1      	b.n	800253e <HAL_PCD_EP_SetStall+0x52>

0800255a <HAL_PCD_EP_ClrStall>:
 800255a:	b538      	push	{r3, r4, r5, lr}
 800255c:	7903      	ldrb	r3, [r0, #4]
 800255e:	f001 020f 	and.w	r2, r1, #15
 8002562:	4293      	cmp	r3, r2
 8002564:	4604      	mov	r4, r0
 8002566:	d329      	bcc.n	80025bc <HAL_PCD_EP_ClrStall+0x62>
 8002568:	eb02 03c2 	add.w	r3, r2, r2, lsl #3
 800256c:	f011 0f80 	tst.w	r1, #128	@ 0x80
 8002570:	ea4f 0383 	mov.w	r3, r3, lsl #2
 8002574:	f04f 0024 	mov.w	r0, #36	@ 0x24
 8002578:	d017      	beq.n	80025aa <HAL_PCD_EP_ClrStall+0x50>
 800257a:	fb00 4002 	mla	r0, r0, r2, r4
 800257e:	f103 0114 	add.w	r1, r3, #20
 8002582:	2301      	movs	r3, #1
 8002584:	4421      	add	r1, r4
 8002586:	7543      	strb	r3, [r0, #21]
 8002588:	2500      	movs	r5, #0
 800258a:	708d      	strb	r5, [r1, #2]
 800258c:	700a      	strb	r2, [r1, #0]
 800258e:	f894 3494 	ldrb.w	r3, [r4, #1172]	@ 0x494
 8002592:	2b01      	cmp	r3, #1
 8002594:	d014      	beq.n	80025c0 <HAL_PCD_EP_ClrStall+0x66>
 8002596:	2301      	movs	r3, #1
 8002598:	6820      	ldr	r0, [r4, #0]
 800259a:	f884 3494 	strb.w	r3, [r4, #1172]	@ 0x494
 800259e:	f001 fea6 	bl	80042ee <USB_EPClearStall>
 80025a2:	f884 5494 	strb.w	r5, [r4, #1172]	@ 0x494
 80025a6:	4628      	mov	r0, r5
 80025a8:	bd38      	pop	{r3, r4, r5, pc}
 80025aa:	fb00 4002 	mla	r0, r0, r2, r4
 80025ae:	f503 7115 	add.w	r1, r3, #596	@ 0x254
 80025b2:	2300      	movs	r3, #0
 80025b4:	4421      	add	r1, r4
 80025b6:	f880 3255 	strb.w	r3, [r0, #597]	@ 0x255
 80025ba:	e7e5      	b.n	8002588 <HAL_PCD_EP_ClrStall+0x2e>
 80025bc:	2001      	movs	r0, #1
 80025be:	e7f3      	b.n	80025a8 <HAL_PCD_EP_ClrStall+0x4e>
 80025c0:	2002      	movs	r0, #2
 80025c2:	e7f1      	b.n	80025a8 <HAL_PCD_EP_ClrStall+0x4e>

080025c4 <HAL_PCD_EP_Abort>:
 80025c4:	f001 030f 	and.w	r3, r1, #15
 80025c8:	eb03 03c3 	add.w	r3, r3, r3, lsl #3
 80025cc:	060a      	lsls	r2, r1, #24
 80025ce:	ea4f 0383 	mov.w	r3, r3, lsl #2
 80025d2:	bf4c      	ite	mi
 80025d4:	f103 0114 	addmi.w	r1, r3, #20
 80025d8:	f503 7115 	addpl.w	r1, r3, #596	@ 0x254
 80025dc:	4401      	add	r1, r0
 80025de:	6800      	ldr	r0, [r0, #0]
 80025e0:	f001 bce2 	b.w	8003fa8 <USB_EPStopXfer>

080025e4 <HAL_PCD_IRQHandler>:
 80025e4:	e92d 4ff0 	stmdb	sp!, {r4, r5, r6, r7, r8, r9, sl, fp, lr}
 80025e8:	6806      	ldr	r6, [r0, #0]
 80025ea:	b089      	sub	sp, #36	@ 0x24
 80025ec:	4604      	mov	r4, r0
 80025ee:	4630      	mov	r0, r6
 80025f0:	f001 ff00 	bl	80043f4 <USB_GetMode>
 80025f4:	9003      	str	r0, [sp, #12]
 80025f6:	2800      	cmp	r0, #0
 80025f8:	f040 8156 	bne.w	80028a8 <HAL_PCD_IRQHandler+0x2c4>
 80025fc:	6820      	ldr	r0, [r4, #0]
 80025fe:	f001 fecb 	bl	8004398 <USB_ReadInterrupts>
 8002602:	2800      	cmp	r0, #0
 8002604:	f000 8150 	beq.w	80028a8 <HAL_PCD_IRQHandler+0x2c4>
 8002608:	f8d6 3808 	ldr.w	r3, [r6, #2056]	@ 0x808
 800260c:	6820      	ldr	r0, [r4, #0]
 800260e:	f3c3 230d 	ubfx	r3, r3, #8, #14
 8002612:	f8c4 34d4 	str.w	r3, [r4, #1236]	@ 0x4d4
 8002616:	f001 febf 	bl	8004398 <USB_ReadInterrupts>
 800261a:	0787      	lsls	r7, r0, #30
 800261c:	bf48      	it	mi
 800261e:	6822      	ldrmi	r2, [r4, #0]
 8002620:	6820      	ldr	r0, [r4, #0]
 8002622:	bf42      	ittt	mi
 8002624:	6953      	ldrmi	r3, [r2, #20]
 8002626:	f003 0302 	andmi.w	r3, r3, #2
 800262a:	6153      	strmi	r3, [r2, #20]
 800262c:	f001 feb4 	bl	8004398 <USB_ReadInterrupts>
 8002630:	06c0      	lsls	r0, r0, #27
 8002632:	f506 6500 	add.w	r5, r6, #2048	@ 0x800
 8002636:	d52d      	bpl.n	8002694 <HAL_PCD_IRQHandler+0xb0>
 8002638:	6822      	ldr	r2, [r4, #0]
 800263a:	6993      	ldr	r3, [r2, #24]
 800263c:	f023 0310 	bic.w	r3, r3, #16
 8002640:	6193      	str	r3, [r2, #24]
 8002642:	f8d6 8020 	ldr.w	r8, [r6, #32]
 8002646:	f408 13f0 	and.w	r3, r8, #1966080	@ 0x1e0000
 800264a:	f5b3 2f80 	cmp.w	r3, #262144	@ 0x40000
 800264e:	f008 070f 	and.w	r7, r8, #15
 8002652:	f040 812c 	bne.w	80028ae <HAL_PCD_IRQHandler+0x2ca>
 8002656:	f647 73f0 	movw	r3, #32752	@ 0x7ff0
 800265a:	ea18 0f03 	tst.w	r8, r3
 800265e:	d014      	beq.n	800268a <HAL_PCD_IRQHandler+0xa6>
 8002660:	2324      	movs	r3, #36	@ 0x24
 8002662:	fb03 4707 	mla	r7, r3, r7, r4
 8002666:	f3c8 190a 	ubfx	r9, r8, #4, #11
 800266a:	f8d7 1260 	ldr.w	r1, [r7, #608]	@ 0x260
 800266e:	464a      	mov	r2, r9
 8002670:	4630      	mov	r0, r6
 8002672:	f001 fdf1 	bl	8004258 <USB_ReadPacket>
 8002676:	f8d7 3260 	ldr.w	r3, [r7, #608]	@ 0x260
 800267a:	444b      	add	r3, r9
 800267c:	f8c7 3260 	str.w	r3, [r7, #608]	@ 0x260
 8002680:	f8d7 3268 	ldr.w	r3, [r7, #616]	@ 0x268
 8002684:	444b      	add	r3, r9
 8002686:	f8c7 3268 	str.w	r3, [r7, #616]	@ 0x268
 800268a:	6822      	ldr	r2, [r4, #0]
 800268c:	6993      	ldr	r3, [r2, #24]
 800268e:	f043 0310 	orr.w	r3, r3, #16
 8002692:	6193      	str	r3, [r2, #24]
 8002694:	6820      	ldr	r0, [r4, #0]
 8002696:	f001 fe7f 	bl	8004398 <USB_ReadInterrupts>
 800269a:	0301      	lsls	r1, r0, #12
 800269c:	f100 811a 	bmi.w	80028d4 <HAL_PCD_IRQHandler+0x2f0>
 80026a0:	6820      	ldr	r0, [r4, #0]
 80026a2:	f001 fe79 	bl	8004398 <USB_ReadInterrupts>
 80026a6:	0342      	lsls	r2, r0, #13
 80026a8:	d50d      	bpl.n	80026c6 <HAL_PCD_IRQHandler+0xe2>
 80026aa:	6820      	ldr	r0, [r4, #0]
 80026ac:	f001 fe80 	bl	80043b0 <USB_ReadDevAllInEpInterrupt>
 80026b0:	4627      	mov	r7, r4
 80026b2:	9004      	str	r0, [sp, #16]
 80026b4:	f506 6b10 	add.w	fp, r6, #2304	@ 0x900
 80026b8:	f04f 0a00 	mov.w	sl, #0
 80026bc:	9b04      	ldr	r3, [sp, #16]
 80026be:	6820      	ldr	r0, [r4, #0]
 80026c0:	2b00      	cmp	r3, #0
 80026c2:	f040 81d1 	bne.w	8002a68 <HAL_PCD_IRQHandler+0x484>
 80026c6:	6820      	ldr	r0, [r4, #0]
 80026c8:	f001 fe66 	bl	8004398 <USB_ReadInterrupts>
 80026cc:	2800      	cmp	r0, #0
 80026ce:	da13      	bge.n	80026f8 <HAL_PCD_IRQHandler+0x114>
 80026d0:	686b      	ldr	r3, [r5, #4]
 80026d2:	f023 0301 	bic.w	r3, r3, #1
 80026d6:	606b      	str	r3, [r5, #4]
 80026d8:	f894 34cc 	ldrb.w	r3, [r4, #1228]	@ 0x4cc
 80026dc:	2b01      	cmp	r3, #1
 80026de:	f040 8269 	bne.w	8002bb4 <HAL_PCD_IRQHandler+0x5d0>
 80026e2:	2100      	movs	r1, #0
 80026e4:	f884 14cc 	strb.w	r1, [r4, #1228]	@ 0x4cc
 80026e8:	4620      	mov	r0, r4
 80026ea:	f000 fae6 	bl	8002cba <HAL_PCDEx_LPM_Callback>
 80026ee:	6822      	ldr	r2, [r4, #0]
 80026f0:	6953      	ldr	r3, [r2, #20]
 80026f2:	f003 4300 	and.w	r3, r3, #2147483648	@ 0x80000000
 80026f6:	6153      	str	r3, [r2, #20]
 80026f8:	6820      	ldr	r0, [r4, #0]
 80026fa:	f001 fe4d 	bl	8004398 <USB_ReadInterrupts>
 80026fe:	0507      	lsls	r7, r0, #20
 8002700:	d50a      	bpl.n	8002718 <HAL_PCD_IRQHandler+0x134>
 8002702:	68ab      	ldr	r3, [r5, #8]
 8002704:	07d8      	lsls	r0, r3, #31
 8002706:	d502      	bpl.n	800270e <HAL_PCD_IRQHandler+0x12a>
 8002708:	4620      	mov	r0, r4
 800270a:	f004 fb7b 	bl	8006e04 <HAL_PCD_SuspendCallback>
 800270e:	6822      	ldr	r2, [r4, #0]
 8002710:	6953      	ldr	r3, [r2, #20]
 8002712:	f403 6300 	and.w	r3, r3, #2048	@ 0x800
 8002716:	6153      	str	r3, [r2, #20]
 8002718:	6820      	ldr	r0, [r4, #0]
 800271a:	f001 fe3d 	bl	8004398 <USB_ReadInterrupts>
 800271e:	04c1      	lsls	r1, r0, #19
 8002720:	d533      	bpl.n	800278a <HAL_PCD_IRQHandler+0x1a6>
 8002722:	686b      	ldr	r3, [r5, #4]
 8002724:	6820      	ldr	r0, [r4, #0]
 8002726:	f023 0301 	bic.w	r3, r3, #1
 800272a:	606b      	str	r3, [r5, #4]
 800272c:	2110      	movs	r1, #16
 800272e:	f001 fa95 	bl	8003c5c <USB_FlushTxFifo>
 8002732:	7920      	ldrb	r0, [r4, #4]
 8002734:	f506 6310 	add.w	r3, r6, #2304	@ 0x900
 8002738:	f64f 317f 	movw	r1, #64383	@ 0xfb7f
 800273c:	9a03      	ldr	r2, [sp, #12]
 800273e:	4290      	cmp	r0, r2
 8002740:	f200 823c 	bhi.w	8002bbc <HAL_PCD_IRQHandler+0x5d8>
 8002744:	69eb      	ldr	r3, [r5, #28]
 8002746:	f043 1301 	orr.w	r3, r3, #65537	@ 0x10001
 800274a:	61eb      	str	r3, [r5, #28]
 800274c:	7be3      	ldrb	r3, [r4, #15]
 800274e:	2b00      	cmp	r3, #0
 8002750:	f000 8250 	beq.w	8002bf4 <HAL_PCD_IRQHandler+0x610>
 8002754:	f8d5 3084 	ldr.w	r3, [r5, #132]	@ 0x84
 8002758:	f043 030b 	orr.w	r3, r3, #11
 800275c:	f8c5 3084 	str.w	r3, [r5, #132]	@ 0x84
 8002760:	6c6b      	ldr	r3, [r5, #68]	@ 0x44
 8002762:	f043 030b 	orr.w	r3, r3, #11
 8002766:	646b      	str	r3, [r5, #68]	@ 0x44
 8002768:	f8d6 3800 	ldr.w	r3, [r6, #2048]	@ 0x800
 800276c:	6820      	ldr	r0, [r4, #0]
 800276e:	f423 63fe 	bic.w	r3, r3, #2032	@ 0x7f0
 8002772:	f8c6 3800 	str.w	r3, [r6, #2048]	@ 0x800
 8002776:	f204 429c 	addw	r2, r4, #1180	@ 0x49c
 800277a:	79a1      	ldrb	r1, [r4, #6]
 800277c:	f001 fe4c 	bl	8004418 <USB_EP0_OutStart>
 8002780:	6822      	ldr	r2, [r4, #0]
 8002782:	6953      	ldr	r3, [r2, #20]
 8002784:	f403 5380 	and.w	r3, r3, #4096	@ 0x1000
 8002788:	6153      	str	r3, [r2, #20]
 800278a:	6820      	ldr	r0, [r4, #0]
 800278c:	f001 fe04 	bl	8004398 <USB_ReadInterrupts>
 8002790:	0482      	lsls	r2, r0, #18
 8002792:	d516      	bpl.n	80027c2 <HAL_PCD_IRQHandler+0x1de>
 8002794:	6820      	ldr	r0, [r4, #0]
 8002796:	f001 fe31 	bl	80043fc <USB_ActivateSetup>
 800279a:	6820      	ldr	r0, [r4, #0]
 800279c:	f001 fb64 	bl	8003e68 <USB_GetDevSpeed>
 80027a0:	71e0      	strb	r0, [r4, #7]
 80027a2:	6827      	ldr	r7, [r4, #0]
 80027a4:	f000 fd00 	bl	80031a8 <HAL_RCC_GetHCLKFreq>
 80027a8:	79e2      	ldrb	r2, [r4, #7]
 80027aa:	4601      	mov	r1, r0
 80027ac:	4638      	mov	r0, r7
 80027ae:	f001 f9a9 	bl	8003b04 <USB_SetTurnaroundTime>
 80027b2:	4620      	mov	r0, r4
 80027b4:	f004 fb13 	bl	8006dde <HAL_PCD_ResetCallback>
 80027b8:	6822      	ldr	r2, [r4, #0]
 80027ba:	6953      	ldr	r3, [r2, #20]
 80027bc:	f403 5300 	and.w	r3, r3, #8192	@ 0x2000
 80027c0:	6153      	str	r3, [r2, #20]
 80027c2:	6820      	ldr	r0, [r4, #0]
 80027c4:	f001 fde8 	bl	8004398 <USB_ReadInterrupts>
 80027c8:	0703      	lsls	r3, r0, #28
 80027ca:	d507      	bpl.n	80027dc <HAL_PCD_IRQHandler+0x1f8>
 80027cc:	4620      	mov	r0, r4
 80027ce:	f004 fb02 	bl	8006dd6 <HAL_PCD_SOFCallback>
 80027d2:	6822      	ldr	r2, [r4, #0]
 80027d4:	6953      	ldr	r3, [r2, #20]
 80027d6:	f003 0308 	and.w	r3, r3, #8
 80027da:	6153      	str	r3, [r2, #20]
 80027dc:	6820      	ldr	r0, [r4, #0]
 80027de:	f001 fddb 	bl	8004398 <USB_ReadInterrupts>
 80027e2:	0607      	lsls	r7, r0, #24
 80027e4:	f100 8211 	bmi.w	8002c0a <HAL_PCD_IRQHandler+0x626>
 80027e8:	6820      	ldr	r0, [r4, #0]
 80027ea:	f001 fdd5 	bl	8004398 <USB_ReadInterrupts>
 80027ee:	02c0      	lsls	r0, r0, #11
 80027f0:	d50c      	bpl.n	800280c <HAL_PCD_IRQHandler+0x228>
 80027f2:	46a0      	mov	r8, r4
 80027f4:	f506 6912 	add.w	r9, r6, #2336	@ 0x920
 80027f8:	2701      	movs	r7, #1
 80027fa:	7923      	ldrb	r3, [r4, #4]
 80027fc:	42bb      	cmp	r3, r7
 80027fe:	f200 821d 	bhi.w	8002c3c <HAL_PCD_IRQHandler+0x658>
 8002802:	6822      	ldr	r2, [r4, #0]
 8002804:	6953      	ldr	r3, [r2, #20]
 8002806:	f403 1380 	and.w	r3, r3, #1048576	@ 0x100000
 800280a:	6153      	str	r3, [r2, #20]
 800280c:	6820      	ldr	r0, [r4, #0]
 800280e:	f001 fdc3 	bl	8004398 <USB_ReadInterrupts>
 8002812:	0281      	lsls	r1, r0, #10
 8002814:	d52b      	bpl.n	800286e <HAL_PCD_IRQHandler+0x28a>
 8002816:	f894 e004 	ldrb.w	lr, [r4, #4]
 800281a:	4623      	mov	r3, r4
 800281c:	f506 6132 	add.w	r1, r6, #2848	@ 0xb20
 8002820:	f04f 0c01 	mov.w	ip, #1
 8002824:	45e6      	cmp	lr, ip
 8002826:	d91d      	bls.n	8002864 <HAL_PCD_IRQHandler+0x280>
 8002828:	f893 727c 	ldrb.w	r7, [r3, #636]	@ 0x27c
 800282c:	6808      	ldr	r0, [r1, #0]
 800282e:	2f01      	cmp	r7, #1
 8002830:	f040 821a 	bne.w	8002c68 <HAL_PCD_IRQHandler+0x684>
 8002834:	2800      	cmp	r0, #0
 8002836:	f280 8217 	bge.w	8002c68 <HAL_PCD_IRQHandler+0x684>
 800283a:	f8d4 24d4 	ldr.w	r2, [r4, #1236]	@ 0x4d4
 800283e:	ea82 4010 	eor.w	r0, r2, r0, lsr #16
 8002842:	07c2      	lsls	r2, r0, #31
 8002844:	f100 8210 	bmi.w	8002c68 <HAL_PCD_IRQHandler+0x684>
 8002848:	f883 727b 	strb.w	r7, [r3, #635]	@ 0x27b
 800284c:	69b0      	ldr	r0, [r6, #24]
 800284e:	f040 0080 	orr.w	r0, r0, #128	@ 0x80
 8002852:	61b0      	str	r0, [r6, #24]
 8002854:	6970      	ldr	r0, [r6, #20]
 8002856:	0600      	lsls	r0, r0, #24
 8002858:	f100 8206 	bmi.w	8002c68 <HAL_PCD_IRQHandler+0x684>
 800285c:	686b      	ldr	r3, [r5, #4]
 800285e:	f443 7300 	orr.w	r3, r3, #512	@ 0x200
 8002862:	606b      	str	r3, [r5, #4]
 8002864:	6822      	ldr	r2, [r4, #0]
 8002866:	6953      	ldr	r3, [r2, #20]
 8002868:	f403 1300 	and.w	r3, r3, #2097152	@ 0x200000
 800286c:	6153      	str	r3, [r2, #20]
 800286e:	6820      	ldr	r0, [r4, #0]
 8002870:	f001 fd92 	bl	8004398 <USB_ReadInterrupts>
 8002874:	0041      	lsls	r1, r0, #1
 8002876:	d507      	bpl.n	8002888 <HAL_PCD_IRQHandler+0x2a4>
 8002878:	4620      	mov	r0, r4
 800287a:	f004 fae7 	bl	8006e4c <HAL_PCD_ConnectCallback>
 800287e:	6822      	ldr	r2, [r4, #0]
 8002880:	6953      	ldr	r3, [r2, #20]
 8002882:	f003 4380 	and.w	r3, r3, #1073741824	@ 0x40000000
 8002886:	6153      	str	r3, [r2, #20]
 8002888:	6820      	ldr	r0, [r4, #0]
 800288a:	f001 fd85 	bl	8004398 <USB_ReadInterrupts>
 800288e:	0742      	lsls	r2, r0, #29
 8002890:	d50a      	bpl.n	80028a8 <HAL_PCD_IRQHandler+0x2c4>
 8002892:	6823      	ldr	r3, [r4, #0]
 8002894:	685d      	ldr	r5, [r3, #4]
 8002896:	076b      	lsls	r3, r5, #29
 8002898:	d502      	bpl.n	80028a0 <HAL_PCD_IRQHandler+0x2bc>
 800289a:	4620      	mov	r0, r4
 800289c:	f004 fada 	bl	8006e54 <HAL_PCD_DisconnectCallback>
 80028a0:	6822      	ldr	r2, [r4, #0]
 80028a2:	6853      	ldr	r3, [r2, #4]
 80028a4:	432b      	orrs	r3, r5
 80028a6:	6053      	str	r3, [r2, #4]
 80028a8:	b009      	add	sp, #36	@ 0x24
 80028aa:	e8bd 8ff0 	ldmia.w	sp!, {r4, r5, r6, r7, r8, r9, sl, fp, pc}
 80028ae:	f5b3 2f40 	cmp.w	r3, #786432	@ 0xc0000
 80028b2:	f47f aeea 	bne.w	800268a <HAL_PCD_IRQHandler+0xa6>
 80028b6:	2208      	movs	r2, #8
 80028b8:	f204 419c 	addw	r1, r4, #1180	@ 0x49c
 80028bc:	4630      	mov	r0, r6
 80028be:	f001 fccb 	bl	8004258 <USB_ReadPacket>
 80028c2:	2324      	movs	r3, #36	@ 0x24
 80028c4:	fb03 4707 	mla	r7, r3, r7, r4
 80028c8:	f3c8 180a 	ubfx	r8, r8, #4, #11
 80028cc:	f8d7 3268 	ldr.w	r3, [r7, #616]	@ 0x268
 80028d0:	4443      	add	r3, r8
 80028d2:	e6d8      	b.n	8002686 <HAL_PCD_IRQHandler+0xa2>
 80028d4:	6820      	ldr	r0, [r4, #0]
 80028d6:	f001 fd63 	bl	80043a0 <USB_ReadDevAllOutEpInterrupt>
 80028da:	f506 6830 	add.w	r8, r6, #2816	@ 0xb00
 80028de:	9004      	str	r0, [sp, #16]
 80028e0:	46a2      	mov	sl, r4
 80028e2:	2700      	movs	r7, #0
 80028e4:	9b04      	ldr	r3, [sp, #16]
 80028e6:	6820      	ldr	r0, [r4, #0]
 80028e8:	2b00      	cmp	r3, #0
 80028ea:	f43f aed9 	beq.w	80026a0 <HAL_PCD_IRQHandler+0xbc>
 80028ee:	9b04      	ldr	r3, [sp, #16]
 80028f0:	07db      	lsls	r3, r3, #31
 80028f2:	d578      	bpl.n	80029e6 <HAL_PCD_IRQHandler+0x402>
 80028f4:	fa5f fb87 	uxtb.w	fp, r7
 80028f8:	4659      	mov	r1, fp
 80028fa:	f001 fd61 	bl	80043c0 <USB_ReadDevOutEPInterrupt>
 80028fe:	f010 0f01 	tst.w	r0, #1
 8002902:	4681      	mov	r9, r0
 8002904:	d01f      	beq.n	8002946 <HAL_PCD_IRQHandler+0x362>
 8002906:	6820      	ldr	r0, [r4, #0]
 8002908:	2301      	movs	r3, #1
 800290a:	f8c8 3008 	str.w	r3, [r8, #8]
 800290e:	f894 c006 	ldrb.w	ip, [r4, #6]
 8002912:	6c01      	ldr	r1, [r0, #64]	@ 0x40
 8002914:	f500 6330 	add.w	r3, r0, #2816	@ 0xb00
 8002918:	eb03 1347 	add.w	r3, r3, r7, lsl #5
 800291c:	f1bc 0f01 	cmp.w	ip, #1
 8002920:	689a      	ldr	r2, [r3, #8]
 8002922:	f040 808b 	bne.w	8002a3c <HAL_PCD_IRQHandler+0x458>
 8002926:	f012 0f08 	tst.w	r2, #8
 800292a:	d007      	beq.n	800293c <HAL_PCD_IRQHandler+0x358>
 800292c:	48af      	ldr	r0, [pc, #700]	@ (8002bec <HAL_PCD_IRQHandler+0x608>)
 800292e:	4281      	cmp	r1, r0
 8002930:	d909      	bls.n	8002946 <HAL_PCD_IRQHandler+0x362>
 8002932:	0412      	lsls	r2, r2, #16
 8002934:	d507      	bpl.n	8002946 <HAL_PCD_IRQHandler+0x362>
 8002936:	f44f 4200 	mov.w	r2, #32768	@ 0x8000
 800293a:	e003      	b.n	8002944 <HAL_PCD_IRQHandler+0x360>
 800293c:	f012 0f20 	tst.w	r2, #32
 8002940:	d05a      	beq.n	80029f8 <HAL_PCD_IRQHandler+0x414>
 8002942:	2220      	movs	r2, #32
 8002944:	609a      	str	r2, [r3, #8]
 8002946:	f019 0f08 	tst.w	r9, #8
 800294a:	d021      	beq.n	8002990 <HAL_PCD_IRQHandler+0x3ac>
 800294c:	2308      	movs	r3, #8
 800294e:	f8c8 3008 	str.w	r3, [r8, #8]
 8002952:	6823      	ldr	r3, [r4, #0]
 8002954:	49a5      	ldr	r1, [pc, #660]	@ (8002bec <HAL_PCD_IRQHandler+0x608>)
 8002956:	6c1a      	ldr	r2, [r3, #64]	@ 0x40
 8002958:	f503 6330 	add.w	r3, r3, #2816	@ 0xb00
 800295c:	eb03 1347 	add.w	r3, r3, r7, lsl #5
 8002960:	428a      	cmp	r2, r1
 8002962:	6898      	ldr	r0, [r3, #8]
 8002964:	d904      	bls.n	8002970 <HAL_PCD_IRQHandler+0x38c>
 8002966:	0401      	lsls	r1, r0, #16
 8002968:	bf44      	itt	mi
 800296a:	f44f 4000 	movmi.w	r0, #32768	@ 0x8000
 800296e:	6098      	strmi	r0, [r3, #8]
 8002970:	4620      	mov	r0, r4
 8002972:	9205      	str	r2, [sp, #20]
 8002974:	f004 fa18 	bl	8006da8 <HAL_PCD_SetupStageCallback>
 8002978:	9a05      	ldr	r2, [sp, #20]
 800297a:	499c      	ldr	r1, [pc, #624]	@ (8002bec <HAL_PCD_IRQHandler+0x608>)
 800297c:	428a      	cmp	r2, r1
 800297e:	d907      	bls.n	8002990 <HAL_PCD_IRQHandler+0x3ac>
 8002980:	79a1      	ldrb	r1, [r4, #6]
 8002982:	2901      	cmp	r1, #1
 8002984:	d104      	bne.n	8002990 <HAL_PCD_IRQHandler+0x3ac>
 8002986:	6820      	ldr	r0, [r4, #0]
 8002988:	f204 429c 	addw	r2, r4, #1180	@ 0x49c
 800298c:	f001 fd44 	bl	8004418 <USB_EP0_OutStart>
 8002990:	f019 0f10 	tst.w	r9, #16
 8002994:	bf1c      	itt	ne
 8002996:	2310      	movne	r3, #16
 8002998:	f8c8 3008 	strne.w	r3, [r8, #8]
 800299c:	f019 0f02 	tst.w	r9, #2
 80029a0:	d014      	beq.n	80029cc <HAL_PCD_IRQHandler+0x3e8>
 80029a2:	6973      	ldr	r3, [r6, #20]
 80029a4:	061a      	lsls	r2, r3, #24
 80029a6:	bf42      	ittt	mi
 80029a8:	686b      	ldrmi	r3, [r5, #4]
 80029aa:	f443 6380 	orrmi.w	r3, r3, #1024	@ 0x400
 80029ae:	606b      	strmi	r3, [r5, #4]
 80029b0:	f89a 3257 	ldrb.w	r3, [sl, #599]	@ 0x257
 80029b4:	2b01      	cmp	r3, #1
 80029b6:	d106      	bne.n	80029c6 <HAL_PCD_IRQHandler+0x3e2>
 80029b8:	2300      	movs	r3, #0
 80029ba:	f88a 3257 	strb.w	r3, [sl, #599]	@ 0x257
 80029be:	4659      	mov	r1, fp
 80029c0:	4620      	mov	r0, r4
 80029c2:	f004 fa3b 	bl	8006e3c <HAL_PCD_ISOOUTIncompleteCallback>
 80029c6:	2302      	movs	r3, #2
 80029c8:	f8c8 3008 	str.w	r3, [r8, #8]
 80029cc:	f019 0f20 	tst.w	r9, #32
 80029d0:	bf1c      	itt	ne
 80029d2:	2320      	movne	r3, #32
 80029d4:	f8c8 3008 	strne.w	r3, [r8, #8]
 80029d8:	f419 5f00 	tst.w	r9, #8192	@ 0x2000
 80029dc:	bf1c      	itt	ne
 80029de:	f44f 5300 	movne.w	r3, #8192	@ 0x2000
 80029e2:	f8c8 3008 	strne.w	r3, [r8, #8]
 80029e6:	9b04      	ldr	r3, [sp, #16]
 80029e8:	085b      	lsrs	r3, r3, #1
 80029ea:	3701      	adds	r7, #1
 80029ec:	9304      	str	r3, [sp, #16]
 80029ee:	f108 0820 	add.w	r8, r8, #32
 80029f2:	f10a 0a24 	add.w	sl, sl, #36	@ 0x24
 80029f6:	e775      	b.n	80028e4 <HAL_PCD_IRQHandler+0x300>
 80029f8:	f8df c1f0 	ldr.w	ip, [pc, #496]	@ 8002bec <HAL_PCD_IRQHandler+0x608>
 80029fc:	4561      	cmp	r1, ip
 80029fe:	d901      	bls.n	8002a04 <HAL_PCD_IRQHandler+0x420>
 8002a00:	0412      	lsls	r2, r2, #16
 8002a02:	d498      	bmi.n	8002936 <HAL_PCD_IRQHandler+0x352>
 8002a04:	691a      	ldr	r2, [r3, #16]
 8002a06:	f8da 3274 	ldr.w	r3, [sl, #628]	@ 0x274
 8002a0a:	f3c2 0212 	ubfx	r2, r2, #0, #19
 8002a0e:	1a9b      	subs	r3, r3, r2
 8002a10:	f8ca 3268 	str.w	r3, [sl, #616]	@ 0x268
 8002a14:	b96f      	cbnz	r7, 8002a32 <HAL_PCD_IRQHandler+0x44e>
 8002a16:	f8d4 2264 	ldr.w	r2, [r4, #612]	@ 0x264
 8002a1a:	b92a      	cbnz	r2, 8002a28 <HAL_PCD_IRQHandler+0x444>
 8002a1c:	f204 429c 	addw	r2, r4, #1180	@ 0x49c
 8002a20:	2101      	movs	r1, #1
 8002a22:	f001 fcf9 	bl	8004418 <USB_EP0_OutStart>
 8002a26:	e004      	b.n	8002a32 <HAL_PCD_IRQHandler+0x44e>
 8002a28:	f8d4 2260 	ldr.w	r2, [r4, #608]	@ 0x260
 8002a2c:	441a      	add	r2, r3
 8002a2e:	f8c4 2260 	str.w	r2, [r4, #608]	@ 0x260
 8002a32:	4659      	mov	r1, fp
 8002a34:	4620      	mov	r0, r4
 8002a36:	f004 f9bd 	bl	8006db4 <HAL_PCD_DataOutStageCallback>
 8002a3a:	e784      	b.n	8002946 <HAL_PCD_IRQHandler+0x362>
 8002a3c:	f8df c1b0 	ldr.w	ip, [pc, #432]	@ 8002bf0 <HAL_PCD_IRQHandler+0x60c>
 8002a40:	4561      	cmp	r1, ip
 8002a42:	d107      	bne.n	8002a54 <HAL_PCD_IRQHandler+0x470>
 8002a44:	0411      	lsls	r1, r2, #16
 8002a46:	f53f af76 	bmi.w	8002936 <HAL_PCD_IRQHandler+0x352>
 8002a4a:	0690      	lsls	r0, r2, #26
 8002a4c:	d5f1      	bpl.n	8002a32 <HAL_PCD_IRQHandler+0x44e>
 8002a4e:	2220      	movs	r2, #32
 8002a50:	609a      	str	r2, [r3, #8]
 8002a52:	e7ee      	b.n	8002a32 <HAL_PCD_IRQHandler+0x44e>
 8002a54:	2f00      	cmp	r7, #0
 8002a56:	d1ec      	bne.n	8002a32 <HAL_PCD_IRQHandler+0x44e>
 8002a58:	f8d4 3264 	ldr.w	r3, [r4, #612]	@ 0x264
 8002a5c:	2b00      	cmp	r3, #0
 8002a5e:	d1e8      	bne.n	8002a32 <HAL_PCD_IRQHandler+0x44e>
 8002a60:	f204 429c 	addw	r2, r4, #1180	@ 0x49c
 8002a64:	4639      	mov	r1, r7
 8002a66:	e7dc      	b.n	8002a22 <HAL_PCD_IRQHandler+0x43e>
 8002a68:	9b04      	ldr	r3, [sp, #16]
 8002a6a:	07db      	lsls	r3, r3, #31
 8002a6c:	f140 8099 	bpl.w	8002ba2 <HAL_PCD_IRQHandler+0x5be>
 8002a70:	fa5f f38a 	uxtb.w	r3, sl
 8002a74:	4619      	mov	r1, r3
 8002a76:	9305      	str	r3, [sp, #20]
 8002a78:	f001 fcab 	bl	80043d2 <USB_ReadDevInEPInterrupt>
 8002a7c:	f010 0f01 	tst.w	r0, #1
 8002a80:	4680      	mov	r8, r0
 8002a82:	d01f      	beq.n	8002ac4 <HAL_PCD_IRQHandler+0x4e0>
 8002a84:	6b6b      	ldr	r3, [r5, #52]	@ 0x34
 8002a86:	2101      	movs	r1, #1
 8002a88:	f00a 020f 	and.w	r2, sl, #15
 8002a8c:	fa01 f202 	lsl.w	r2, r1, r2
 8002a90:	ea23 0302 	bic.w	r3, r3, r2
 8002a94:	636b      	str	r3, [r5, #52]	@ 0x34
 8002a96:	f8cb 1008 	str.w	r1, [fp, #8]
 8002a9a:	79a1      	ldrb	r1, [r4, #6]
 8002a9c:	2901      	cmp	r1, #1
 8002a9e:	d10d      	bne.n	8002abc <HAL_PCD_IRQHandler+0x4d8>
 8002aa0:	e9d7 2307 	ldrd	r2, r3, [r7, #28]
 8002aa4:	4413      	add	r3, r2
 8002aa6:	623b      	str	r3, [r7, #32]
 8002aa8:	f1ba 0f00 	cmp.w	sl, #0
 8002aac:	d106      	bne.n	8002abc <HAL_PCD_IRQHandler+0x4d8>
 8002aae:	6a63      	ldr	r3, [r4, #36]	@ 0x24
 8002ab0:	b923      	cbnz	r3, 8002abc <HAL_PCD_IRQHandler+0x4d8>
 8002ab2:	6820      	ldr	r0, [r4, #0]
 8002ab4:	f204 429c 	addw	r2, r4, #1180	@ 0x49c
 8002ab8:	f001 fcae 	bl	8004418 <USB_EP0_OutStart>
 8002abc:	9905      	ldr	r1, [sp, #20]
 8002abe:	4620      	mov	r0, r4
 8002ac0:	f004 f981 	bl	8006dc6 <HAL_PCD_DataInStageCallback>
 8002ac4:	f018 0f08 	tst.w	r8, #8
 8002ac8:	bf1c      	itt	ne
 8002aca:	2308      	movne	r3, #8
 8002acc:	f8cb 3008 	strne.w	r3, [fp, #8]
 8002ad0:	f018 0f10 	tst.w	r8, #16
 8002ad4:	bf1c      	itt	ne
 8002ad6:	2310      	movne	r3, #16
 8002ad8:	f8cb 3008 	strne.w	r3, [fp, #8]
 8002adc:	f018 0f40 	tst.w	r8, #64	@ 0x40
 8002ae0:	bf1c      	itt	ne
 8002ae2:	2340      	movne	r3, #64	@ 0x40
 8002ae4:	f8cb 3008 	strne.w	r3, [fp, #8]
 8002ae8:	f018 0f02 	tst.w	r8, #2
 8002aec:	d00f      	beq.n	8002b0e <HAL_PCD_IRQHandler+0x52a>
 8002aee:	4651      	mov	r1, sl
 8002af0:	4630      	mov	r0, r6
 8002af2:	f001 f8b3 	bl	8003c5c <USB_FlushTxFifo>
 8002af6:	7dfb      	ldrb	r3, [r7, #23]
 8002af8:	2b01      	cmp	r3, #1
 8002afa:	d105      	bne.n	8002b08 <HAL_PCD_IRQHandler+0x524>
 8002afc:	2300      	movs	r3, #0
 8002afe:	9905      	ldr	r1, [sp, #20]
 8002b00:	75fb      	strb	r3, [r7, #23]
 8002b02:	4620      	mov	r0, r4
 8002b04:	f004 f99e 	bl	8006e44 <HAL_PCD_ISOINIncompleteCallback>
 8002b08:	2302      	movs	r3, #2
 8002b0a:	f8cb 3008 	str.w	r3, [fp, #8]
 8002b0e:	6823      	ldr	r3, [r4, #0]
 8002b10:	9306      	str	r3, [sp, #24]
 8002b12:	f018 0f80 	tst.w	r8, #128	@ 0x80
 8002b16:	d044      	beq.n	8002ba2 <HAL_PCD_IRQHandler+0x5be>
 8002b18:	e9d7 3209 	ldrd	r3, r2, [r7, #36]	@ 0x24
 8002b1c:	429a      	cmp	r2, r3
 8002b1e:	d840      	bhi.n	8002ba2 <HAL_PCD_IRQHandler+0x5be>
 8002b20:	eba3 0802 	sub.w	r8, r3, r2
 8002b24:	69fb      	ldr	r3, [r7, #28]
 8002b26:	4598      	cmp	r8, r3
 8002b28:	bf28      	it	cs
 8002b2a:	4698      	movcs	r8, r3
 8002b2c:	9b06      	ldr	r3, [sp, #24]
 8002b2e:	f503 6310 	add.w	r3, r3, #2304	@ 0x900
 8002b32:	f108 0803 	add.w	r8, r8, #3
 8002b36:	eb03 134a 	add.w	r3, r3, sl, lsl #5
 8002b3a:	ea4f 0898 	mov.w	r8, r8, lsr #2
 8002b3e:	9307      	str	r3, [sp, #28]
 8002b40:	9b07      	ldr	r3, [sp, #28]
 8002b42:	6999      	ldr	r1, [r3, #24]
 8002b44:	b289      	uxth	r1, r1
 8002b46:	4541      	cmp	r1, r8
 8002b48:	e9d7 3209 	ldrd	r3, r2, [r7, #36]	@ 0x24
 8002b4c:	d327      	bcc.n	8002b9e <HAL_PCD_IRQHandler+0x5ba>
 8002b4e:	4293      	cmp	r3, r2
 8002b50:	d80b      	bhi.n	8002b6a <HAL_PCD_IRQHandler+0x586>
 8002b52:	9b06      	ldr	r3, [sp, #24]
 8002b54:	f00a 000f 	and.w	r0, sl, #15
 8002b58:	f8d3 2834 	ldr.w	r2, [r3, #2100]	@ 0x834
 8002b5c:	2101      	movs	r1, #1
 8002b5e:	4081      	lsls	r1, r0
 8002b60:	ea22 0201 	bic.w	r2, r2, r1
 8002b64:	f8c3 2834 	str.w	r2, [r3, #2100]	@ 0x834
 8002b68:	e01b      	b.n	8002ba2 <HAL_PCD_IRQHandler+0x5be>
 8002b6a:	eba3 0902 	sub.w	r9, r3, r2
 8002b6e:	69fb      	ldr	r3, [r7, #28]
 8002b70:	9a05      	ldr	r2, [sp, #20]
 8002b72:	9806      	ldr	r0, [sp, #24]
 8002b74:	4599      	cmp	r9, r3
 8002b76:	bf28      	it	cs
 8002b78:	4699      	movcs	r9, r3
 8002b7a:	79a3      	ldrb	r3, [r4, #6]
 8002b7c:	9300      	str	r3, [sp, #0]
 8002b7e:	6a39      	ldr	r1, [r7, #32]
 8002b80:	fa1f f389 	uxth.w	r3, r9
 8002b84:	f001 fa52 	bl	800402c <USB_WritePacket>
 8002b88:	6a3b      	ldr	r3, [r7, #32]
 8002b8a:	444b      	add	r3, r9
 8002b8c:	623b      	str	r3, [r7, #32]
 8002b8e:	6abb      	ldr	r3, [r7, #40]	@ 0x28
 8002b90:	f109 0803 	add.w	r8, r9, #3
 8002b94:	444b      	add	r3, r9
 8002b96:	ea4f 0898 	mov.w	r8, r8, lsr #2
 8002b9a:	62bb      	str	r3, [r7, #40]	@ 0x28
 8002b9c:	e7d0      	b.n	8002b40 <HAL_PCD_IRQHandler+0x55c>
 8002b9e:	4293      	cmp	r3, r2
 8002ba0:	d9d7      	bls.n	8002b52 <HAL_PCD_IRQHandler+0x56e>
 8002ba2:	9b04      	ldr	r3, [sp, #16]
 8002ba4:	085b      	lsrs	r3, r3, #1
 8002ba6:	f10a 0a01 	add.w	sl, sl, #1
 8002baa:	9304      	str	r3, [sp, #16]
 8002bac:	3724      	adds	r7, #36	@ 0x24
 8002bae:	f10b 0b20 	add.w	fp, fp, #32
 8002bb2:	e583      	b.n	80026bc <HAL_PCD_IRQHandler+0xd8>
 8002bb4:	4620      	mov	r0, r4
 8002bb6:	f004 f93d 	bl	8006e34 <HAL_PCD_ResumeCallback>
 8002bba:	e598      	b.n	80026ee <HAL_PCD_IRQHandler+0x10a>
 8002bbc:	6099      	str	r1, [r3, #8]
 8002bbe:	681a      	ldr	r2, [r3, #0]
 8002bc0:	f422 1200 	bic.w	r2, r2, #2097152	@ 0x200000
 8002bc4:	601a      	str	r2, [r3, #0]
 8002bc6:	f8c3 1208 	str.w	r1, [r3, #520]	@ 0x208
 8002bca:	f8d3 2200 	ldr.w	r2, [r3, #512]	@ 0x200
 8002bce:	f422 1200 	bic.w	r2, r2, #2097152	@ 0x200000
 8002bd2:	f8c3 2200 	str.w	r2, [r3, #512]	@ 0x200
 8002bd6:	f8d3 2200 	ldr.w	r2, [r3, #512]	@ 0x200
 8002bda:	f042 6200 	orr.w	r2, r2, #134217728	@ 0x8000000
 8002bde:	f8c3 2200 	str.w	r2, [r3, #512]	@ 0x200
 8002be2:	9a03      	ldr	r2, [sp, #12]
 8002be4:	3201      	adds	r2, #1
 8002be6:	9203      	str	r2, [sp, #12]
 8002be8:	3320      	adds	r3, #32
 8002bea:	e5a7      	b.n	800273c <HAL_PCD_IRQHandler+0x158>
 8002bec:	4f54300a 	.word	0x4f54300a
 8002bf0:	4f54310a 	.word	0x4f54310a
 8002bf4:	696b      	ldr	r3, [r5, #20]
 8002bf6:	f443 5300 	orr.w	r3, r3, #8192	@ 0x2000
 8002bfa:	f043 032b 	orr.w	r3, r3, #43	@ 0x2b
 8002bfe:	616b      	str	r3, [r5, #20]
 8002c00:	692b      	ldr	r3, [r5, #16]
 8002c02:	f043 030b 	orr.w	r3, r3, #11
 8002c06:	612b      	str	r3, [r5, #16]
 8002c08:	e5ae      	b.n	8002768 <HAL_PCD_IRQHandler+0x184>
 8002c0a:	69b3      	ldr	r3, [r6, #24]
 8002c0c:	f023 0380 	bic.w	r3, r3, #128	@ 0x80
 8002c10:	61b3      	str	r3, [r6, #24]
 8002c12:	2701      	movs	r7, #1
 8002c14:	f204 2857 	addw	r8, r4, #599	@ 0x257
 8002c18:	f04f 0924 	mov.w	r9, #36	@ 0x24
 8002c1c:	7923      	ldrb	r3, [r4, #4]
 8002c1e:	42bb      	cmp	r3, r7
 8002c20:	f67f ade2 	bls.w	80027e8 <HAL_PCD_IRQHandler+0x204>
 8002c24:	fb09 f307 	mul.w	r3, r9, r7
 8002c28:	f818 3003 	ldrb.w	r3, [r8, r3]
 8002c2c:	2b01      	cmp	r3, #1
 8002c2e:	d103      	bne.n	8002c38 <HAL_PCD_IRQHandler+0x654>
 8002c30:	b2f9      	uxtb	r1, r7
 8002c32:	4620      	mov	r0, r4
 8002c34:	f7ff fcc6 	bl	80025c4 <HAL_PCD_EP_Abort>
 8002c38:	3701      	adds	r7, #1
 8002c3a:	e7ef      	b.n	8002c1c <HAL_PCD_IRQHandler+0x638>
 8002c3c:	f898 303c 	ldrb.w	r3, [r8, #60]	@ 0x3c
 8002c40:	f8d9 2000 	ldr.w	r2, [r9]
 8002c44:	2b01      	cmp	r3, #1
 8002c46:	d109      	bne.n	8002c5c <HAL_PCD_IRQHandler+0x678>
 8002c48:	2a00      	cmp	r2, #0
 8002c4a:	da07      	bge.n	8002c5c <HAL_PCD_IRQHandler+0x678>
 8002c4c:	f067 017f 	orn	r1, r7, #127	@ 0x7f
 8002c50:	f888 303b 	strb.w	r3, [r8, #59]	@ 0x3b
 8002c54:	b2c9      	uxtb	r1, r1
 8002c56:	4620      	mov	r0, r4
 8002c58:	f7ff fcb4 	bl	80025c4 <HAL_PCD_EP_Abort>
 8002c5c:	3701      	adds	r7, #1
 8002c5e:	f108 0824 	add.w	r8, r8, #36	@ 0x24
 8002c62:	f109 0920 	add.w	r9, r9, #32
 8002c66:	e5c8      	b.n	80027fa <HAL_PCD_IRQHandler+0x216>
 8002c68:	f10c 0c01 	add.w	ip, ip, #1
 8002c6c:	3324      	adds	r3, #36	@ 0x24
 8002c6e:	3120      	adds	r1, #32
 8002c70:	e5d8      	b.n	8002824 <HAL_PCD_IRQHandler+0x240>
 8002c72:	bf00      	nop

08002c74 <HAL_PCDEx_SetTxFiFo>:
 8002c74:	6800      	ldr	r0, [r0, #0]
 8002c76:	b570      	push	{r4, r5, r6, lr}
 8002c78:	6a43      	ldr	r3, [r0, #36]	@ 0x24
 8002c7a:	0412      	lsls	r2, r2, #16
 8002c7c:	b919      	cbnz	r1, 8002c86 <HAL_PCDEx_SetTxFiFo+0x12>
 8002c7e:	4313      	orrs	r3, r2
 8002c80:	6283      	str	r3, [r0, #40]	@ 0x28
 8002c82:	2000      	movs	r0, #0
 8002c84:	bd70      	pop	{r4, r5, r6, pc}
 8002c86:	6a84      	ldr	r4, [r0, #40]	@ 0x28
 8002c88:	1e4e      	subs	r6, r1, #1
 8002c8a:	eb03 4314 	add.w	r3, r3, r4, lsr #16
 8002c8e:	2400      	movs	r4, #0
 8002c90:	42b4      	cmp	r4, r6
 8002c92:	d305      	bcc.n	8002ca0 <HAL_PCDEx_SetTxFiFo+0x2c>
 8002c94:	313f      	adds	r1, #63	@ 0x3f
 8002c96:	eb00 0081 	add.w	r0, r0, r1, lsl #2
 8002c9a:	4313      	orrs	r3, r2
 8002c9c:	6043      	str	r3, [r0, #4]
 8002c9e:	e7f0      	b.n	8002c82 <HAL_PCDEx_SetTxFiFo+0xe>
 8002ca0:	f104 0540 	add.w	r5, r4, #64	@ 0x40
 8002ca4:	eb00 0585 	add.w	r5, r0, r5, lsl #2
 8002ca8:	3401      	adds	r4, #1
 8002caa:	686d      	ldr	r5, [r5, #4]
 8002cac:	eb03 4315 	add.w	r3, r3, r5, lsr #16
 8002cb0:	e7ee      	b.n	8002c90 <HAL_PCDEx_SetTxFiFo+0x1c>

08002cb2 <HAL_PCDEx_SetRxFiFo>:
 8002cb2:	6803      	ldr	r3, [r0, #0]
 8002cb4:	2000      	movs	r0, #0
 8002cb6:	6259      	str	r1, [r3, #36]	@ 0x24
 8002cb8:	4770      	bx	lr

08002cba <HAL_PCDEx_LPM_Callback>:
 8002cba:	4770      	bx	lr

08002cbc <HAL_RCC_OscConfig>:
 8002cbc:	e92d 41f3 	stmdb	sp!, {r0, r1, r4, r5, r6, r7, r8, lr}
 8002cc0:	4604      	mov	r4, r0
 8002cc2:	b340      	cbz	r0, 8002d16 <HAL_RCC_OscConfig+0x5a>
 8002cc4:	6803      	ldr	r3, [r0, #0]
 8002cc6:	07de      	lsls	r6, r3, #31
 8002cc8:	d410      	bmi.n	8002cec <HAL_RCC_OscConfig+0x30>
 8002cca:	6823      	ldr	r3, [r4, #0]
 8002ccc:	079d      	lsls	r5, r3, #30
 8002cce:	d45b      	bmi.n	8002d88 <HAL_RCC_OscConfig+0xcc>
 8002cd0:	6823      	ldr	r3, [r4, #0]
 8002cd2:	0719      	lsls	r1, r3, #28
 8002cd4:	f100 809d 	bmi.w	8002e12 <HAL_RCC_OscConfig+0x156>
 8002cd8:	6823      	ldr	r3, [r4, #0]
 8002cda:	075a      	lsls	r2, r3, #29
 8002cdc:	f100 80bd 	bmi.w	8002e5a <HAL_RCC_OscConfig+0x19e>
 8002ce0:	69a3      	ldr	r3, [r4, #24]
 8002ce2:	2b00      	cmp	r3, #0
 8002ce4:	f040 8124 	bne.w	8002f30 <HAL_RCC_OscConfig+0x274>
 8002ce8:	2000      	movs	r0, #0
 8002cea:	e02c      	b.n	8002d46 <HAL_RCC_OscConfig+0x8a>
 8002cec:	4b8d      	ldr	r3, [pc, #564]	@ (8002f24 <HAL_RCC_OscConfig+0x268>)
 8002cee:	689a      	ldr	r2, [r3, #8]
 8002cf0:	f002 020c 	and.w	r2, r2, #12
 8002cf4:	2a04      	cmp	r2, #4
 8002cf6:	d007      	beq.n	8002d08 <HAL_RCC_OscConfig+0x4c>
 8002cf8:	689a      	ldr	r2, [r3, #8]
 8002cfa:	f002 020c 	and.w	r2, r2, #12
 8002cfe:	2a08      	cmp	r2, #8
 8002d00:	d10b      	bne.n	8002d1a <HAL_RCC_OscConfig+0x5e>
 8002d02:	685b      	ldr	r3, [r3, #4]
 8002d04:	0259      	lsls	r1, r3, #9
 8002d06:	d508      	bpl.n	8002d1a <HAL_RCC_OscConfig+0x5e>
 8002d08:	4b86      	ldr	r3, [pc, #536]	@ (8002f24 <HAL_RCC_OscConfig+0x268>)
 8002d0a:	681b      	ldr	r3, [r3, #0]
 8002d0c:	039a      	lsls	r2, r3, #14
 8002d0e:	d5dc      	bpl.n	8002cca <HAL_RCC_OscConfig+0xe>
 8002d10:	6863      	ldr	r3, [r4, #4]
 8002d12:	2b00      	cmp	r3, #0
 8002d14:	d1d9      	bne.n	8002cca <HAL_RCC_OscConfig+0xe>
 8002d16:	2001      	movs	r0, #1
 8002d18:	e015      	b.n	8002d46 <HAL_RCC_OscConfig+0x8a>
 8002d1a:	6863      	ldr	r3, [r4, #4]
 8002d1c:	4d81      	ldr	r5, [pc, #516]	@ (8002f24 <HAL_RCC_OscConfig+0x268>)
 8002d1e:	f5b3 3f80 	cmp.w	r3, #65536	@ 0x10000
 8002d22:	d113      	bne.n	8002d4c <HAL_RCC_OscConfig+0x90>
 8002d24:	682b      	ldr	r3, [r5, #0]
 8002d26:	f443 3380 	orr.w	r3, r3, #65536	@ 0x10000
 8002d2a:	602b      	str	r3, [r5, #0]
 8002d2c:	f7ff f932 	bl	8001f94 <HAL_GetTick>
 8002d30:	4e7c      	ldr	r6, [pc, #496]	@ (8002f24 <HAL_RCC_OscConfig+0x268>)
 8002d32:	4605      	mov	r5, r0
 8002d34:	6833      	ldr	r3, [r6, #0]
 8002d36:	039b      	lsls	r3, r3, #14
 8002d38:	d4c7      	bmi.n	8002cca <HAL_RCC_OscConfig+0xe>
 8002d3a:	f7ff f92b 	bl	8001f94 <HAL_GetTick>
 8002d3e:	1b40      	subs	r0, r0, r5
 8002d40:	2864      	cmp	r0, #100	@ 0x64
 8002d42:	d9f7      	bls.n	8002d34 <HAL_RCC_OscConfig+0x78>
 8002d44:	2003      	movs	r0, #3
 8002d46:	b002      	add	sp, #8
 8002d48:	e8bd 81f0 	ldmia.w	sp!, {r4, r5, r6, r7, r8, pc}
 8002d4c:	f5b3 2fa0 	cmp.w	r3, #327680	@ 0x50000
 8002d50:	d104      	bne.n	8002d5c <HAL_RCC_OscConfig+0xa0>
 8002d52:	682b      	ldr	r3, [r5, #0]
 8002d54:	f443 2380 	orr.w	r3, r3, #262144	@ 0x40000
 8002d58:	602b      	str	r3, [r5, #0]
 8002d5a:	e7e3      	b.n	8002d24 <HAL_RCC_OscConfig+0x68>
 8002d5c:	682a      	ldr	r2, [r5, #0]
 8002d5e:	f422 3280 	bic.w	r2, r2, #65536	@ 0x10000
 8002d62:	602a      	str	r2, [r5, #0]
 8002d64:	682a      	ldr	r2, [r5, #0]
 8002d66:	f422 2280 	bic.w	r2, r2, #262144	@ 0x40000
 8002d6a:	602a      	str	r2, [r5, #0]
 8002d6c:	2b00      	cmp	r3, #0
 8002d6e:	d1dd      	bne.n	8002d2c <HAL_RCC_OscConfig+0x70>
 8002d70:	f7ff f910 	bl	8001f94 <HAL_GetTick>
 8002d74:	4606      	mov	r6, r0
 8002d76:	682b      	ldr	r3, [r5, #0]
 8002d78:	039f      	lsls	r7, r3, #14
 8002d7a:	d5a6      	bpl.n	8002cca <HAL_RCC_OscConfig+0xe>
 8002d7c:	f7ff f90a 	bl	8001f94 <HAL_GetTick>
 8002d80:	1b80      	subs	r0, r0, r6
 8002d82:	2864      	cmp	r0, #100	@ 0x64
 8002d84:	d9f7      	bls.n	8002d76 <HAL_RCC_OscConfig+0xba>
 8002d86:	e7dd      	b.n	8002d44 <HAL_RCC_OscConfig+0x88>
 8002d88:	4b66      	ldr	r3, [pc, #408]	@ (8002f24 <HAL_RCC_OscConfig+0x268>)
 8002d8a:	689a      	ldr	r2, [r3, #8]
 8002d8c:	f012 0f0c 	tst.w	r2, #12
 8002d90:	d007      	beq.n	8002da2 <HAL_RCC_OscConfig+0xe6>
 8002d92:	689a      	ldr	r2, [r3, #8]
 8002d94:	f002 020c 	and.w	r2, r2, #12
 8002d98:	2a08      	cmp	r2, #8
 8002d9a:	d111      	bne.n	8002dc0 <HAL_RCC_OscConfig+0x104>
 8002d9c:	685b      	ldr	r3, [r3, #4]
 8002d9e:	025d      	lsls	r5, r3, #9
 8002da0:	d40e      	bmi.n	8002dc0 <HAL_RCC_OscConfig+0x104>
 8002da2:	4a60      	ldr	r2, [pc, #384]	@ (8002f24 <HAL_RCC_OscConfig+0x268>)
 8002da4:	6813      	ldr	r3, [r2, #0]
 8002da6:	0799      	lsls	r1, r3, #30
 8002da8:	d502      	bpl.n	8002db0 <HAL_RCC_OscConfig+0xf4>
 8002daa:	68e3      	ldr	r3, [r4, #12]
 8002dac:	2b01      	cmp	r3, #1
 8002dae:	d1b2      	bne.n	8002d16 <HAL_RCC_OscConfig+0x5a>
 8002db0:	6813      	ldr	r3, [r2, #0]
 8002db2:	6921      	ldr	r1, [r4, #16]
 8002db4:	f023 03f8 	bic.w	r3, r3, #248	@ 0xf8
 8002db8:	ea43 03c1 	orr.w	r3, r3, r1, lsl #3
 8002dbc:	6013      	str	r3, [r2, #0]
 8002dbe:	e787      	b.n	8002cd0 <HAL_RCC_OscConfig+0x14>
 8002dc0:	68e2      	ldr	r2, [r4, #12]
 8002dc2:	4b59      	ldr	r3, [pc, #356]	@ (8002f28 <HAL_RCC_OscConfig+0x26c>)
 8002dc4:	b1b2      	cbz	r2, 8002df4 <HAL_RCC_OscConfig+0x138>
 8002dc6:	2201      	movs	r2, #1
 8002dc8:	601a      	str	r2, [r3, #0]
 8002dca:	f7ff f8e3 	bl	8001f94 <HAL_GetTick>
 8002dce:	4d55      	ldr	r5, [pc, #340]	@ (8002f24 <HAL_RCC_OscConfig+0x268>)
 8002dd0:	4606      	mov	r6, r0
 8002dd2:	682b      	ldr	r3, [r5, #0]
 8002dd4:	079b      	lsls	r3, r3, #30
 8002dd6:	d507      	bpl.n	8002de8 <HAL_RCC_OscConfig+0x12c>
 8002dd8:	682b      	ldr	r3, [r5, #0]
 8002dda:	6922      	ldr	r2, [r4, #16]
 8002ddc:	f023 03f8 	bic.w	r3, r3, #248	@ 0xf8
 8002de0:	ea43 03c2 	orr.w	r3, r3, r2, lsl #3
 8002de4:	602b      	str	r3, [r5, #0]
 8002de6:	e773      	b.n	8002cd0 <HAL_RCC_OscConfig+0x14>
 8002de8:	f7ff f8d4 	bl	8001f94 <HAL_GetTick>
 8002dec:	1b80      	subs	r0, r0, r6
 8002dee:	2802      	cmp	r0, #2
 8002df0:	d9ef      	bls.n	8002dd2 <HAL_RCC_OscConfig+0x116>
 8002df2:	e7a7      	b.n	8002d44 <HAL_RCC_OscConfig+0x88>
 8002df4:	601a      	str	r2, [r3, #0]
 8002df6:	f7ff f8cd 	bl	8001f94 <HAL_GetTick>
 8002dfa:	4e4a      	ldr	r6, [pc, #296]	@ (8002f24 <HAL_RCC_OscConfig+0x268>)
 8002dfc:	4605      	mov	r5, r0
 8002dfe:	6833      	ldr	r3, [r6, #0]
 8002e00:	079f      	lsls	r7, r3, #30
 8002e02:	f57f af65 	bpl.w	8002cd0 <HAL_RCC_OscConfig+0x14>
 8002e06:	f7ff f8c5 	bl	8001f94 <HAL_GetTick>
 8002e0a:	1b40      	subs	r0, r0, r5
 8002e0c:	2802      	cmp	r0, #2
 8002e0e:	d9f6      	bls.n	8002dfe <HAL_RCC_OscConfig+0x142>
 8002e10:	e798      	b.n	8002d44 <HAL_RCC_OscConfig+0x88>
 8002e12:	6962      	ldr	r2, [r4, #20]
 8002e14:	4b44      	ldr	r3, [pc, #272]	@ (8002f28 <HAL_RCC_OscConfig+0x26c>)
 8002e16:	b182      	cbz	r2, 8002e3a <HAL_RCC_OscConfig+0x17e>
 8002e18:	2201      	movs	r2, #1
 8002e1a:	f8c3 2e80 	str.w	r2, [r3, #3712]	@ 0xe80
 8002e1e:	f7ff f8b9 	bl	8001f94 <HAL_GetTick>
 8002e22:	4e40      	ldr	r6, [pc, #256]	@ (8002f24 <HAL_RCC_OscConfig+0x268>)
 8002e24:	4605      	mov	r5, r0
 8002e26:	6f73      	ldr	r3, [r6, #116]	@ 0x74
 8002e28:	079b      	lsls	r3, r3, #30
 8002e2a:	f53f af55 	bmi.w	8002cd8 <HAL_RCC_OscConfig+0x1c>
 8002e2e:	f7ff f8b1 	bl	8001f94 <HAL_GetTick>
 8002e32:	1b40      	subs	r0, r0, r5
 8002e34:	2802      	cmp	r0, #2
 8002e36:	d9f6      	bls.n	8002e26 <HAL_RCC_OscConfig+0x16a>
 8002e38:	e784      	b.n	8002d44 <HAL_RCC_OscConfig+0x88>
 8002e3a:	f8c3 2e80 	str.w	r2, [r3, #3712]	@ 0xe80
 8002e3e:	f7ff f8a9 	bl	8001f94 <HAL_GetTick>
 8002e42:	4e38      	ldr	r6, [pc, #224]	@ (8002f24 <HAL_RCC_OscConfig+0x268>)
 8002e44:	4605      	mov	r5, r0
 8002e46:	6f73      	ldr	r3, [r6, #116]	@ 0x74
 8002e48:	079f      	lsls	r7, r3, #30
 8002e4a:	f57f af45 	bpl.w	8002cd8 <HAL_RCC_OscConfig+0x1c>
 8002e4e:	f7ff f8a1 	bl	8001f94 <HAL_GetTick>
 8002e52:	1b40      	subs	r0, r0, r5
 8002e54:	2802      	cmp	r0, #2
 8002e56:	d9f6      	bls.n	8002e46 <HAL_RCC_OscConfig+0x18a>
 8002e58:	e774      	b.n	8002d44 <HAL_RCC_OscConfig+0x88>
 8002e5a:	4b32      	ldr	r3, [pc, #200]	@ (8002f24 <HAL_RCC_OscConfig+0x268>)
 8002e5c:	6c1a      	ldr	r2, [r3, #64]	@ 0x40
 8002e5e:	f012 5280 	ands.w	r2, r2, #268435456	@ 0x10000000
 8002e62:	d128      	bne.n	8002eb6 <HAL_RCC_OscConfig+0x1fa>
 8002e64:	9201      	str	r2, [sp, #4]
 8002e66:	6c1a      	ldr	r2, [r3, #64]	@ 0x40
 8002e68:	f042 5280 	orr.w	r2, r2, #268435456	@ 0x10000000
 8002e6c:	641a      	str	r2, [r3, #64]	@ 0x40
 8002e6e:	6c1b      	ldr	r3, [r3, #64]	@ 0x40
 8002e70:	f003 5380 	and.w	r3, r3, #268435456	@ 0x10000000
 8002e74:	9301      	str	r3, [sp, #4]
 8002e76:	9b01      	ldr	r3, [sp, #4]
 8002e78:	2701      	movs	r7, #1
 8002e7a:	4d2c      	ldr	r5, [pc, #176]	@ (8002f2c <HAL_RCC_OscConfig+0x270>)
 8002e7c:	682b      	ldr	r3, [r5, #0]
 8002e7e:	05d8      	lsls	r0, r3, #23
 8002e80:	d51b      	bpl.n	8002eba <HAL_RCC_OscConfig+0x1fe>
 8002e82:	68a3      	ldr	r3, [r4, #8]
 8002e84:	4d27      	ldr	r5, [pc, #156]	@ (8002f24 <HAL_RCC_OscConfig+0x268>)
 8002e86:	2b01      	cmp	r3, #1
 8002e88:	d127      	bne.n	8002eda <HAL_RCC_OscConfig+0x21e>
 8002e8a:	6f2b      	ldr	r3, [r5, #112]	@ 0x70
 8002e8c:	f043 0301 	orr.w	r3, r3, #1
 8002e90:	672b      	str	r3, [r5, #112]	@ 0x70
 8002e92:	f7ff f87f 	bl	8001f94 <HAL_GetTick>
 8002e96:	4e23      	ldr	r6, [pc, #140]	@ (8002f24 <HAL_RCC_OscConfig+0x268>)
 8002e98:	4605      	mov	r5, r0
 8002e9a:	f241 3888 	movw	r8, #5000	@ 0x1388
 8002e9e:	6f33      	ldr	r3, [r6, #112]	@ 0x70
 8002ea0:	079a      	lsls	r2, r3, #30
 8002ea2:	d539      	bpl.n	8002f18 <HAL_RCC_OscConfig+0x25c>
 8002ea4:	2f00      	cmp	r7, #0
 8002ea6:	f43f af1b 	beq.w	8002ce0 <HAL_RCC_OscConfig+0x24>
 8002eaa:	4a1e      	ldr	r2, [pc, #120]	@ (8002f24 <HAL_RCC_OscConfig+0x268>)
 8002eac:	6c13      	ldr	r3, [r2, #64]	@ 0x40
 8002eae:	f023 5380 	bic.w	r3, r3, #268435456	@ 0x10000000
 8002eb2:	6413      	str	r3, [r2, #64]	@ 0x40
 8002eb4:	e714      	b.n	8002ce0 <HAL_RCC_OscConfig+0x24>
 8002eb6:	2700      	movs	r7, #0
 8002eb8:	e7df      	b.n	8002e7a <HAL_RCC_OscConfig+0x1be>
 8002eba:	682b      	ldr	r3, [r5, #0]
 8002ebc:	f443 7380 	orr.w	r3, r3, #256	@ 0x100
 8002ec0:	602b      	str	r3, [r5, #0]
 8002ec2:	f7ff f867 	bl	8001f94 <HAL_GetTick>
 8002ec6:	4606      	mov	r6, r0
 8002ec8:	682b      	ldr	r3, [r5, #0]
 8002eca:	05d9      	lsls	r1, r3, #23
 8002ecc:	d4d9      	bmi.n	8002e82 <HAL_RCC_OscConfig+0x1c6>
 8002ece:	f7ff f861 	bl	8001f94 <HAL_GetTick>
 8002ed2:	1b80      	subs	r0, r0, r6
 8002ed4:	2802      	cmp	r0, #2
 8002ed6:	d9f7      	bls.n	8002ec8 <HAL_RCC_OscConfig+0x20c>
 8002ed8:	e734      	b.n	8002d44 <HAL_RCC_OscConfig+0x88>
 8002eda:	2b05      	cmp	r3, #5
 8002edc:	d104      	bne.n	8002ee8 <HAL_RCC_OscConfig+0x22c>
 8002ede:	6f2b      	ldr	r3, [r5, #112]	@ 0x70
 8002ee0:	f043 0304 	orr.w	r3, r3, #4
 8002ee4:	672b      	str	r3, [r5, #112]	@ 0x70
 8002ee6:	e7d0      	b.n	8002e8a <HAL_RCC_OscConfig+0x1ce>
 8002ee8:	6f2a      	ldr	r2, [r5, #112]	@ 0x70
 8002eea:	f022 0201 	bic.w	r2, r2, #1
 8002eee:	672a      	str	r2, [r5, #112]	@ 0x70
 8002ef0:	6f2a      	ldr	r2, [r5, #112]	@ 0x70
 8002ef2:	f022 0204 	bic.w	r2, r2, #4
 8002ef6:	672a      	str	r2, [r5, #112]	@ 0x70
 8002ef8:	2b00      	cmp	r3, #0
 8002efa:	d1ca      	bne.n	8002e92 <HAL_RCC_OscConfig+0x1d6>
 8002efc:	f7ff f84a 	bl	8001f94 <HAL_GetTick>
 8002f00:	f241 3888 	movw	r8, #5000	@ 0x1388
 8002f04:	4606      	mov	r6, r0
 8002f06:	6f2b      	ldr	r3, [r5, #112]	@ 0x70
 8002f08:	079b      	lsls	r3, r3, #30
 8002f0a:	d5cb      	bpl.n	8002ea4 <HAL_RCC_OscConfig+0x1e8>
 8002f0c:	f7ff f842 	bl	8001f94 <HAL_GetTick>
 8002f10:	1b80      	subs	r0, r0, r6
 8002f12:	4540      	cmp	r0, r8
 8002f14:	d9f7      	bls.n	8002f06 <HAL_RCC_OscConfig+0x24a>
 8002f16:	e715      	b.n	8002d44 <HAL_RCC_OscConfig+0x88>
 8002f18:	f7ff f83c 	bl	8001f94 <HAL_GetTick>
 8002f1c:	1b40      	subs	r0, r0, r5
 8002f1e:	4540      	cmp	r0, r8
 8002f20:	d9bd      	bls.n	8002e9e <HAL_RCC_OscConfig+0x1e2>
 8002f22:	e70f      	b.n	8002d44 <HAL_RCC_OscConfig+0x88>
 8002f24:	40023800 	.word	0x40023800
 8002f28:	42470000 	.word	0x42470000
 8002f2c:	40007000 	.word	0x40007000
 8002f30:	4d37      	ldr	r5, [pc, #220]	@ (8003010 <HAL_RCC_OscConfig+0x354>)
 8002f32:	68aa      	ldr	r2, [r5, #8]
 8002f34:	f002 020c 	and.w	r2, r2, #12
 8002f38:	2a08      	cmp	r2, #8
 8002f3a:	d03e      	beq.n	8002fba <HAL_RCC_OscConfig+0x2fe>
 8002f3c:	2b02      	cmp	r3, #2
 8002f3e:	4b35      	ldr	r3, [pc, #212]	@ (8003014 <HAL_RCC_OscConfig+0x358>)
 8002f40:	f04f 0200 	mov.w	r2, #0
 8002f44:	661a      	str	r2, [r3, #96]	@ 0x60
 8002f46:	d12b      	bne.n	8002fa0 <HAL_RCC_OscConfig+0x2e4>
 8002f48:	f7ff f824 	bl	8001f94 <HAL_GetTick>
 8002f4c:	4606      	mov	r6, r0
 8002f4e:	682b      	ldr	r3, [r5, #0]
 8002f50:	0199      	lsls	r1, r3, #6
 8002f52:	d41f      	bmi.n	8002f94 <HAL_RCC_OscConfig+0x2d8>
 8002f54:	e9d4 3207 	ldrd	r3, r2, [r4, #28]
 8002f58:	4313      	orrs	r3, r2
 8002f5a:	6a62      	ldr	r2, [r4, #36]	@ 0x24
 8002f5c:	ea43 1382 	orr.w	r3, r3, r2, lsl #6
 8002f60:	6ae2      	ldr	r2, [r4, #44]	@ 0x2c
 8002f62:	ea43 6302 	orr.w	r3, r3, r2, lsl #24
 8002f66:	6aa2      	ldr	r2, [r4, #40]	@ 0x28
 8002f68:	0852      	lsrs	r2, r2, #1
 8002f6a:	3a01      	subs	r2, #1
 8002f6c:	ea43 4302 	orr.w	r3, r3, r2, lsl #16
 8002f70:	606b      	str	r3, [r5, #4]
 8002f72:	4b28      	ldr	r3, [pc, #160]	@ (8003014 <HAL_RCC_OscConfig+0x358>)
 8002f74:	4d26      	ldr	r5, [pc, #152]	@ (8003010 <HAL_RCC_OscConfig+0x354>)
 8002f76:	2201      	movs	r2, #1
 8002f78:	661a      	str	r2, [r3, #96]	@ 0x60
 8002f7a:	f7ff f80b 	bl	8001f94 <HAL_GetTick>
 8002f7e:	4604      	mov	r4, r0
 8002f80:	682b      	ldr	r3, [r5, #0]
 8002f82:	019a      	lsls	r2, r3, #6
 8002f84:	f53f aeb0 	bmi.w	8002ce8 <HAL_RCC_OscConfig+0x2c>
 8002f88:	f7ff f804 	bl	8001f94 <HAL_GetTick>
 8002f8c:	1b00      	subs	r0, r0, r4
 8002f8e:	2802      	cmp	r0, #2
 8002f90:	d9f6      	bls.n	8002f80 <HAL_RCC_OscConfig+0x2c4>
 8002f92:	e6d7      	b.n	8002d44 <HAL_RCC_OscConfig+0x88>
 8002f94:	f7fe fffe 	bl	8001f94 <HAL_GetTick>
 8002f98:	1b80      	subs	r0, r0, r6
 8002f9a:	2802      	cmp	r0, #2
 8002f9c:	d9d7      	bls.n	8002f4e <HAL_RCC_OscConfig+0x292>
 8002f9e:	e6d1      	b.n	8002d44 <HAL_RCC_OscConfig+0x88>
 8002fa0:	f7fe fff8 	bl	8001f94 <HAL_GetTick>
 8002fa4:	4604      	mov	r4, r0
 8002fa6:	682b      	ldr	r3, [r5, #0]
 8002fa8:	019b      	lsls	r3, r3, #6
 8002faa:	f57f ae9d 	bpl.w	8002ce8 <HAL_RCC_OscConfig+0x2c>
 8002fae:	f7fe fff1 	bl	8001f94 <HAL_GetTick>
 8002fb2:	1b00      	subs	r0, r0, r4
 8002fb4:	2802      	cmp	r0, #2
 8002fb6:	d9f6      	bls.n	8002fa6 <HAL_RCC_OscConfig+0x2ea>
 8002fb8:	e6c4      	b.n	8002d44 <HAL_RCC_OscConfig+0x88>
 8002fba:	2b01      	cmp	r3, #1
 8002fbc:	f43f aeab 	beq.w	8002d16 <HAL_RCC_OscConfig+0x5a>
 8002fc0:	686b      	ldr	r3, [r5, #4]
 8002fc2:	69e2      	ldr	r2, [r4, #28]
 8002fc4:	f403 0180 	and.w	r1, r3, #4194304	@ 0x400000
 8002fc8:	4291      	cmp	r1, r2
 8002fca:	f47f aea4 	bne.w	8002d16 <HAL_RCC_OscConfig+0x5a>
 8002fce:	6a21      	ldr	r1, [r4, #32]
 8002fd0:	f003 023f 	and.w	r2, r3, #63	@ 0x3f
 8002fd4:	428a      	cmp	r2, r1
 8002fd6:	f47f ae9e 	bne.w	8002d16 <HAL_RCC_OscConfig+0x5a>
 8002fda:	6a61      	ldr	r1, [r4, #36]	@ 0x24
 8002fdc:	f647 72c0 	movw	r2, #32704	@ 0x7fc0
 8002fe0:	401a      	ands	r2, r3
 8002fe2:	ebb2 1f81 	cmp.w	r2, r1, lsl #6
 8002fe6:	f47f ae96 	bne.w	8002d16 <HAL_RCC_OscConfig+0x5a>
 8002fea:	6aa2      	ldr	r2, [r4, #40]	@ 0x28
 8002fec:	0852      	lsrs	r2, r2, #1
 8002fee:	f403 3140 	and.w	r1, r3, #196608	@ 0x30000
 8002ff2:	3a01      	subs	r2, #1
 8002ff4:	ebb1 4f02 	cmp.w	r1, r2, lsl #16
 8002ff8:	f47f ae8d 	bne.w	8002d16 <HAL_RCC_OscConfig+0x5a>
 8002ffc:	6ae2      	ldr	r2, [r4, #44]	@ 0x2c
 8002ffe:	f003 6370 	and.w	r3, r3, #251658240	@ 0xf000000
 8003002:	ebb3 6f02 	cmp.w	r3, r2, lsl #24
 8003006:	bf14      	ite	ne
 8003008:	2001      	movne	r0, #1
 800300a:	2000      	moveq	r0, #0
 800300c:	e69b      	b.n	8002d46 <HAL_RCC_OscConfig+0x8a>
 800300e:	bf00      	nop
 8003010:	40023800 	.word	0x40023800
 8003014:	42470000 	.word	0x42470000

08003018 <HAL_RCC_GetSysClockFreq>:
 8003018:	4913      	ldr	r1, [pc, #76]	@ (8003068 <HAL_RCC_GetSysClockFreq+0x50>)
 800301a:	b508      	push	{r3, lr}
 800301c:	688b      	ldr	r3, [r1, #8]
 800301e:	f003 030c 	and.w	r3, r3, #12
 8003022:	2b04      	cmp	r3, #4
 8003024:	d01c      	beq.n	8003060 <HAL_RCC_GetSysClockFreq+0x48>
 8003026:	2b08      	cmp	r3, #8
 8003028:	d11c      	bne.n	8003064 <HAL_RCC_GetSysClockFreq+0x4c>
 800302a:	684a      	ldr	r2, [r1, #4]
 800302c:	684b      	ldr	r3, [r1, #4]
 800302e:	6849      	ldr	r1, [r1, #4]
 8003030:	f413 0380 	ands.w	r3, r3, #4194304	@ 0x400000
 8003034:	bf14      	ite	ne
 8003036:	480d      	ldrne	r0, [pc, #52]	@ (800306c <HAL_RCC_GetSysClockFreq+0x54>)
 8003038:	480d      	ldreq	r0, [pc, #52]	@ (8003070 <HAL_RCC_GetSysClockFreq+0x58>)
 800303a:	f3c1 1188 	ubfx	r1, r1, #6, #9
 800303e:	bf18      	it	ne
 8003040:	2300      	movne	r3, #0
 8003042:	f002 023f 	and.w	r2, r2, #63	@ 0x3f
 8003046:	fba1 0100 	umull	r0, r1, r1, r0
 800304a:	f7fd f929 	bl	80002a0 <__aeabi_uldivmod>
 800304e:	4b06      	ldr	r3, [pc, #24]	@ (8003068 <HAL_RCC_GetSysClockFreq+0x50>)
 8003050:	685b      	ldr	r3, [r3, #4]
 8003052:	f3c3 4301 	ubfx	r3, r3, #16, #2
 8003056:	3301      	adds	r3, #1
 8003058:	005b      	lsls	r3, r3, #1
 800305a:	fbb0 f0f3 	udiv	r0, r0, r3
 800305e:	bd08      	pop	{r3, pc}
 8003060:	4802      	ldr	r0, [pc, #8]	@ (800306c <HAL_RCC_GetSysClockFreq+0x54>)
 8003062:	e7fc      	b.n	800305e <HAL_RCC_GetSysClockFreq+0x46>
 8003064:	4802      	ldr	r0, [pc, #8]	@ (8003070 <HAL_RCC_GetSysClockFreq+0x58>)
 8003066:	e7fa      	b.n	800305e <HAL_RCC_GetSysClockFreq+0x46>
 8003068:	40023800 	.word	0x40023800
 800306c:	007a1200 	.word	0x007a1200
 8003070:	00f42400 	.word	0x00f42400

08003074 <HAL_RCC_ClockConfig>:
 8003074:	e92d 41f0 	stmdb	sp!, {r4, r5, r6, r7, r8, lr}
 8003078:	460d      	mov	r5, r1
 800307a:	4604      	mov	r4, r0
 800307c:	b910      	cbnz	r0, 8003084 <HAL_RCC_ClockConfig+0x10>
 800307e:	2001      	movs	r0, #1
 8003080:	e8bd 81f0 	ldmia.w	sp!, {r4, r5, r6, r7, r8, pc}
 8003084:	4b43      	ldr	r3, [pc, #268]	@ (8003194 <HAL_RCC_ClockConfig+0x120>)
 8003086:	681a      	ldr	r2, [r3, #0]
 8003088:	f002 0207 	and.w	r2, r2, #7
 800308c:	428a      	cmp	r2, r1
 800308e:	d328      	bcc.n	80030e2 <HAL_RCC_ClockConfig+0x6e>
 8003090:	6821      	ldr	r1, [r4, #0]
 8003092:	078f      	lsls	r7, r1, #30
 8003094:	d42d      	bmi.n	80030f2 <HAL_RCC_ClockConfig+0x7e>
 8003096:	07c8      	lsls	r0, r1, #31
 8003098:	d440      	bmi.n	800311c <HAL_RCC_ClockConfig+0xa8>
 800309a:	4b3e      	ldr	r3, [pc, #248]	@ (8003194 <HAL_RCC_ClockConfig+0x120>)
 800309c:	681a      	ldr	r2, [r3, #0]
 800309e:	f002 0207 	and.w	r2, r2, #7
 80030a2:	42aa      	cmp	r2, r5
 80030a4:	d865      	bhi.n	8003172 <HAL_RCC_ClockConfig+0xfe>
 80030a6:	6822      	ldr	r2, [r4, #0]
 80030a8:	0751      	lsls	r1, r2, #29
 80030aa:	d46b      	bmi.n	8003184 <HAL_RCC_ClockConfig+0x110>
 80030ac:	0713      	lsls	r3, r2, #28
 80030ae:	d507      	bpl.n	80030c0 <HAL_RCC_ClockConfig+0x4c>
 80030b0:	4a39      	ldr	r2, [pc, #228]	@ (8003198 <HAL_RCC_ClockConfig+0x124>)
 80030b2:	6921      	ldr	r1, [r4, #16]
 80030b4:	6893      	ldr	r3, [r2, #8]
 80030b6:	f423 4360 	bic.w	r3, r3, #57344	@ 0xe000
 80030ba:	ea43 03c1 	orr.w	r3, r3, r1, lsl #3
 80030be:	6093      	str	r3, [r2, #8]
 80030c0:	f7ff ffaa 	bl	8003018 <HAL_RCC_GetSysClockFreq>
 80030c4:	4b34      	ldr	r3, [pc, #208]	@ (8003198 <HAL_RCC_ClockConfig+0x124>)
 80030c6:	4a35      	ldr	r2, [pc, #212]	@ (800319c <HAL_RCC_ClockConfig+0x128>)
 80030c8:	689b      	ldr	r3, [r3, #8]
 80030ca:	f3c3 1303 	ubfx	r3, r3, #4, #4
 80030ce:	5cd3      	ldrb	r3, [r2, r3]
 80030d0:	40d8      	lsrs	r0, r3
 80030d2:	4b33      	ldr	r3, [pc, #204]	@ (80031a0 <HAL_RCC_ClockConfig+0x12c>)
 80030d4:	6018      	str	r0, [r3, #0]
 80030d6:	4b33      	ldr	r3, [pc, #204]	@ (80031a4 <HAL_RCC_ClockConfig+0x130>)
 80030d8:	6818      	ldr	r0, [r3, #0]
 80030da:	f7fe ff11 	bl	8001f00 <HAL_InitTick>
 80030de:	2000      	movs	r0, #0
 80030e0:	e7ce      	b.n	8003080 <HAL_RCC_ClockConfig+0xc>
 80030e2:	b2ca      	uxtb	r2, r1
 80030e4:	701a      	strb	r2, [r3, #0]
 80030e6:	681b      	ldr	r3, [r3, #0]
 80030e8:	f003 0307 	and.w	r3, r3, #7
 80030ec:	428b      	cmp	r3, r1
 80030ee:	d1c6      	bne.n	800307e <HAL_RCC_ClockConfig+0xa>
 80030f0:	e7ce      	b.n	8003090 <HAL_RCC_ClockConfig+0x1c>
 80030f2:	4b29      	ldr	r3, [pc, #164]	@ (8003198 <HAL_RCC_ClockConfig+0x124>)
 80030f4:	f011 0f04 	tst.w	r1, #4
 80030f8:	bf1e      	ittt	ne
 80030fa:	689a      	ldrne	r2, [r3, #8]
 80030fc:	f442 52e0 	orrne.w	r2, r2, #7168	@ 0x1c00
 8003100:	609a      	strne	r2, [r3, #8]
 8003102:	070e      	lsls	r6, r1, #28
 8003104:	bf42      	ittt	mi
 8003106:	689a      	ldrmi	r2, [r3, #8]
 8003108:	f442 4260 	orrmi.w	r2, r2, #57344	@ 0xe000
 800310c:	609a      	strmi	r2, [r3, #8]
 800310e:	689a      	ldr	r2, [r3, #8]
 8003110:	68a0      	ldr	r0, [r4, #8]
 8003112:	f022 02f0 	bic.w	r2, r2, #240	@ 0xf0
 8003116:	4302      	orrs	r2, r0
 8003118:	609a      	str	r2, [r3, #8]
 800311a:	e7bc      	b.n	8003096 <HAL_RCC_ClockConfig+0x22>
 800311c:	6862      	ldr	r2, [r4, #4]
 800311e:	4b1e      	ldr	r3, [pc, #120]	@ (8003198 <HAL_RCC_ClockConfig+0x124>)
 8003120:	2a01      	cmp	r2, #1
 8003122:	d11c      	bne.n	800315e <HAL_RCC_ClockConfig+0xea>
 8003124:	681b      	ldr	r3, [r3, #0]
 8003126:	f413 3f00 	tst.w	r3, #131072	@ 0x20000
 800312a:	d0a8      	beq.n	800307e <HAL_RCC_ClockConfig+0xa>
 800312c:	4e1a      	ldr	r6, [pc, #104]	@ (8003198 <HAL_RCC_ClockConfig+0x124>)
 800312e:	68b3      	ldr	r3, [r6, #8]
 8003130:	f023 0303 	bic.w	r3, r3, #3
 8003134:	4313      	orrs	r3, r2
 8003136:	60b3      	str	r3, [r6, #8]
 8003138:	f7fe ff2c 	bl	8001f94 <HAL_GetTick>
 800313c:	f241 3888 	movw	r8, #5000	@ 0x1388
 8003140:	4607      	mov	r7, r0
 8003142:	68b3      	ldr	r3, [r6, #8]
 8003144:	6862      	ldr	r2, [r4, #4]
 8003146:	f003 030c 	and.w	r3, r3, #12
 800314a:	ebb3 0f82 	cmp.w	r3, r2, lsl #2
 800314e:	d0a4      	beq.n	800309a <HAL_RCC_ClockConfig+0x26>
 8003150:	f7fe ff20 	bl	8001f94 <HAL_GetTick>
 8003154:	1bc0      	subs	r0, r0, r7
 8003156:	4540      	cmp	r0, r8
 8003158:	d9f3      	bls.n	8003142 <HAL_RCC_ClockConfig+0xce>
 800315a:	2003      	movs	r0, #3
 800315c:	e790      	b.n	8003080 <HAL_RCC_ClockConfig+0xc>
 800315e:	1e91      	subs	r1, r2, #2
 8003160:	2901      	cmp	r1, #1
 8003162:	681b      	ldr	r3, [r3, #0]
 8003164:	d802      	bhi.n	800316c <HAL_RCC_ClockConfig+0xf8>
 8003166:	f013 7f00 	tst.w	r3, #33554432	@ 0x2000000
 800316a:	e7de      	b.n	800312a <HAL_RCC_ClockConfig+0xb6>
 800316c:	f013 0f02 	tst.w	r3, #2
 8003170:	e7db      	b.n	800312a <HAL_RCC_ClockConfig+0xb6>
 8003172:	b2ea      	uxtb	r2, r5
 8003174:	701a      	strb	r2, [r3, #0]
 8003176:	681b      	ldr	r3, [r3, #0]
 8003178:	f003 0307 	and.w	r3, r3, #7
 800317c:	42ab      	cmp	r3, r5
 800317e:	f47f af7e 	bne.w	800307e <HAL_RCC_ClockConfig+0xa>
 8003182:	e790      	b.n	80030a6 <HAL_RCC_ClockConfig+0x32>
 8003184:	4904      	ldr	r1, [pc, #16]	@ (8003198 <HAL_RCC_ClockConfig+0x124>)
 8003186:	68e0      	ldr	r0, [r4, #12]
 8003188:	688b      	ldr	r3, [r1, #8]
 800318a:	f423 53e0 	bic.w	r3, r3, #7168	@ 0x1c00
 800318e:	4303      	orrs	r3, r0
 8003190:	608b      	str	r3, [r1, #8]
 8003192:	e78b      	b.n	80030ac <HAL_RCC_ClockConfig+0x38>
 8003194:	40023c00 	.word	0x40023c00
 8003198:	40023800 	.word	0x40023800
 800319c:	08009138 	.word	0x08009138
 80031a0:	2000031c 	.word	0x2000031c
 80031a4:	20000324 	.word	0x20000324

080031a8 <HAL_RCC_GetHCLKFreq>:
 80031a8:	4b01      	ldr	r3, [pc, #4]	@ (80031b0 <HAL_RCC_GetHCLKFreq+0x8>)
 80031aa:	6818      	ldr	r0, [r3, #0]
 80031ac:	4770      	bx	lr
 80031ae:	bf00      	nop
 80031b0:	2000031c 	.word	0x2000031c

080031b4 <TIM_OC1_SetConfig>:
 80031b4:	6a03      	ldr	r3, [r0, #32]
 80031b6:	6a02      	ldr	r2, [r0, #32]
 80031b8:	f022 0201 	bic.w	r2, r2, #1
 80031bc:	b570      	push	{r4, r5, r6, lr}
 80031be:	6202      	str	r2, [r0, #32]
 80031c0:	6844      	ldr	r4, [r0, #4]
 80031c2:	6982      	ldr	r2, [r0, #24]
 80031c4:	680d      	ldr	r5, [r1, #0]
 80031c6:	f022 0273 	bic.w	r2, r2, #115	@ 0x73
 80031ca:	432a      	orrs	r2, r5
 80031cc:	688d      	ldr	r5, [r1, #8]
 80031ce:	f023 0302 	bic.w	r3, r3, #2
 80031d2:	432b      	orrs	r3, r5
 80031d4:	4d0c      	ldr	r5, [pc, #48]	@ (8003208 <TIM_OC1_SetConfig+0x54>)
 80031d6:	42a8      	cmp	r0, r5
 80031d8:	d003      	beq.n	80031e2 <TIM_OC1_SetConfig+0x2e>
 80031da:	f505 6580 	add.w	r5, r5, #1024	@ 0x400
 80031de:	42a8      	cmp	r0, r5
 80031e0:	d10b      	bne.n	80031fa <TIM_OC1_SetConfig+0x46>
 80031e2:	68cd      	ldr	r5, [r1, #12]
 80031e4:	f023 0308 	bic.w	r3, r3, #8
 80031e8:	432b      	orrs	r3, r5
 80031ea:	e9d1 5605 	ldrd	r5, r6, [r1, #20]
 80031ee:	f424 7440 	bic.w	r4, r4, #768	@ 0x300
 80031f2:	4335      	orrs	r5, r6
 80031f4:	f023 0304 	bic.w	r3, r3, #4
 80031f8:	432c      	orrs	r4, r5
 80031fa:	6044      	str	r4, [r0, #4]
 80031fc:	6182      	str	r2, [r0, #24]
 80031fe:	684a      	ldr	r2, [r1, #4]
 8003200:	6342      	str	r2, [r0, #52]	@ 0x34
 8003202:	6203      	str	r3, [r0, #32]
 8003204:	bd70      	pop	{r4, r5, r6, pc}
 8003206:	bf00      	nop
 8003208:	40010000 	.word	0x40010000

0800320c <TIM_OC3_SetConfig>:
 800320c:	6a03      	ldr	r3, [r0, #32]
 800320e:	6a02      	ldr	r2, [r0, #32]
 8003210:	f422 7280 	bic.w	r2, r2, #256	@ 0x100
 8003214:	b570      	push	{r4, r5, r6, lr}
 8003216:	6202      	str	r2, [r0, #32]
 8003218:	6844      	ldr	r4, [r0, #4]
 800321a:	69c2      	ldr	r2, [r0, #28]
 800321c:	680d      	ldr	r5, [r1, #0]
 800321e:	f022 0273 	bic.w	r2, r2, #115	@ 0x73
 8003222:	432a      	orrs	r2, r5
 8003224:	688d      	ldr	r5, [r1, #8]
 8003226:	f423 7300 	bic.w	r3, r3, #512	@ 0x200
 800322a:	ea43 2305 	orr.w	r3, r3, r5, lsl #8
 800322e:	4d0d      	ldr	r5, [pc, #52]	@ (8003264 <TIM_OC3_SetConfig+0x58>)
 8003230:	42a8      	cmp	r0, r5
 8003232:	d003      	beq.n	800323c <TIM_OC3_SetConfig+0x30>
 8003234:	f505 6580 	add.w	r5, r5, #1024	@ 0x400
 8003238:	42a8      	cmp	r0, r5
 800323a:	d10d      	bne.n	8003258 <TIM_OC3_SetConfig+0x4c>
 800323c:	68cd      	ldr	r5, [r1, #12]
 800323e:	f423 6300 	bic.w	r3, r3, #2048	@ 0x800
 8003242:	ea43 2305 	orr.w	r3, r3, r5, lsl #8
 8003246:	e9d1 5605 	ldrd	r5, r6, [r1, #20]
 800324a:	f424 5440 	bic.w	r4, r4, #12288	@ 0x3000
 800324e:	4335      	orrs	r5, r6
 8003250:	f423 6380 	bic.w	r3, r3, #1024	@ 0x400
 8003254:	ea44 1405 	orr.w	r4, r4, r5, lsl #4
 8003258:	6044      	str	r4, [r0, #4]
 800325a:	61c2      	str	r2, [r0, #28]
 800325c:	684a      	ldr	r2, [r1, #4]
 800325e:	63c2      	str	r2, [r0, #60]	@ 0x3c
 8003260:	6203      	str	r3, [r0, #32]
 8003262:	bd70      	pop	{r4, r5, r6, pc}
 8003264:	40010000 	.word	0x40010000

08003268 <TIM_OC4_SetConfig>:
 8003268:	6a03      	ldr	r3, [r0, #32]
 800326a:	6a02      	ldr	r2, [r0, #32]
 800326c:	f422 5280 	bic.w	r2, r2, #4096	@ 0x1000
 8003270:	b530      	push	{r4, r5, lr}
 8003272:	6202      	str	r2, [r0, #32]
 8003274:	6844      	ldr	r4, [r0, #4]
 8003276:	69c2      	ldr	r2, [r0, #28]
 8003278:	680d      	ldr	r5, [r1, #0]
 800327a:	f422 42e6 	bic.w	r2, r2, #29440	@ 0x7300
 800327e:	ea42 2205 	orr.w	r2, r2, r5, lsl #8
 8003282:	688d      	ldr	r5, [r1, #8]
 8003284:	f423 5300 	bic.w	r3, r3, #8192	@ 0x2000
 8003288:	ea43 3305 	orr.w	r3, r3, r5, lsl #12
 800328c:	4d08      	ldr	r5, [pc, #32]	@ (80032b0 <TIM_OC4_SetConfig+0x48>)
 800328e:	42a8      	cmp	r0, r5
 8003290:	d003      	beq.n	800329a <TIM_OC4_SetConfig+0x32>
 8003292:	f505 6580 	add.w	r5, r5, #1024	@ 0x400
 8003296:	42a8      	cmp	r0, r5
 8003298:	d104      	bne.n	80032a4 <TIM_OC4_SetConfig+0x3c>
 800329a:	694d      	ldr	r5, [r1, #20]
 800329c:	f424 4480 	bic.w	r4, r4, #16384	@ 0x4000
 80032a0:	ea44 1485 	orr.w	r4, r4, r5, lsl #6
 80032a4:	6044      	str	r4, [r0, #4]
 80032a6:	61c2      	str	r2, [r0, #28]
 80032a8:	684a      	ldr	r2, [r1, #4]
 80032aa:	6402      	str	r2, [r0, #64]	@ 0x40
 80032ac:	6203      	str	r3, [r0, #32]
 80032ae:	bd30      	pop	{r4, r5, pc}
 80032b0:	40010000 	.word	0x40010000

080032b4 <HAL_TIM_Base_Start>:
 80032b4:	f890 303d 	ldrb.w	r3, [r0, #61]	@ 0x3d
 80032b8:	2b01      	cmp	r3, #1
 80032ba:	d12c      	bne.n	8003316 <HAL_TIM_Base_Start+0x62>
 80032bc:	2302      	movs	r3, #2
 80032be:	4a17      	ldr	r2, [pc, #92]	@ (800331c <HAL_TIM_Base_Start+0x68>)
 80032c0:	f880 303d 	strb.w	r3, [r0, #61]	@ 0x3d
 80032c4:	6803      	ldr	r3, [r0, #0]
 80032c6:	4293      	cmp	r3, r2
 80032c8:	d01a      	beq.n	8003300 <HAL_TIM_Base_Start+0x4c>
 80032ca:	f1b3 4f80 	cmp.w	r3, #1073741824	@ 0x40000000
 80032ce:	d017      	beq.n	8003300 <HAL_TIM_Base_Start+0x4c>
 80032d0:	f5a2 427c 	sub.w	r2, r2, #64512	@ 0xfc00
 80032d4:	4293      	cmp	r3, r2
 80032d6:	d013      	beq.n	8003300 <HAL_TIM_Base_Start+0x4c>
 80032d8:	f502 6280 	add.w	r2, r2, #1024	@ 0x400
 80032dc:	4293      	cmp	r3, r2
 80032de:	d00f      	beq.n	8003300 <HAL_TIM_Base_Start+0x4c>
 80032e0:	f502 6280 	add.w	r2, r2, #1024	@ 0x400
 80032e4:	4293      	cmp	r3, r2
 80032e6:	d00b      	beq.n	8003300 <HAL_TIM_Base_Start+0x4c>
 80032e8:	f502 4278 	add.w	r2, r2, #63488	@ 0xf800
 80032ec:	4293      	cmp	r3, r2
 80032ee:	d007      	beq.n	8003300 <HAL_TIM_Base_Start+0x4c>
 80032f0:	f502 5270 	add.w	r2, r2, #15360	@ 0x3c00
 80032f4:	4293      	cmp	r3, r2
 80032f6:	d003      	beq.n	8003300 <HAL_TIM_Base_Start+0x4c>
 80032f8:	f5a2 3294 	sub.w	r2, r2, #75776	@ 0x12800
 80032fc:	4293      	cmp	r3, r2
 80032fe:	d104      	bne.n	800330a <HAL_TIM_Base_Start+0x56>
 8003300:	689a      	ldr	r2, [r3, #8]
 8003302:	f002 0207 	and.w	r2, r2, #7
 8003306:	2a06      	cmp	r2, #6
 8003308:	d003      	beq.n	8003312 <HAL_TIM_Base_Start+0x5e>
 800330a:	681a      	ldr	r2, [r3, #0]
 800330c:	f042 0201 	orr.w	r2, r2, #1
 8003310:	601a      	str	r2, [r3, #0]
 8003312:	2000      	movs	r0, #0
 8003314:	4770      	bx	lr
 8003316:	2001      	movs	r0, #1
 8003318:	4770      	bx	lr
 800331a:	bf00      	nop
 800331c:	40010000 	.word	0x40010000

08003320 <HAL_TIM_PWM_MspInit>:
 8003320:	4770      	bx	lr

08003322 <HAL_TIM_PeriodElapsedCallback>:
 8003322:	4770      	bx	lr

08003324 <HAL_TIM_OC_DelayElapsedCallback>:
 8003324:	4770      	bx	lr

08003326 <HAL_TIM_IC_CaptureCallback>:
 8003326:	4770      	bx	lr

08003328 <HAL_TIM_PWM_PulseFinishedCallback>:
 8003328:	4770      	bx	lr

0800332a <HAL_TIM_TriggerCallback>:
 800332a:	4770      	bx	lr

0800332c <HAL_TIM_IRQHandler>:
 800332c:	6803      	ldr	r3, [r0, #0]
 800332e:	b570      	push	{r4, r5, r6, lr}
 8003330:	68dd      	ldr	r5, [r3, #12]
 8003332:	691e      	ldr	r6, [r3, #16]
 8003334:	07b1      	lsls	r1, r6, #30
 8003336:	4604      	mov	r4, r0
 8003338:	d50d      	bpl.n	8003356 <HAL_TIM_IRQHandler+0x2a>
 800333a:	07aa      	lsls	r2, r5, #30
 800333c:	d50b      	bpl.n	8003356 <HAL_TIM_IRQHandler+0x2a>
 800333e:	f06f 0202 	mvn.w	r2, #2
 8003342:	611a      	str	r2, [r3, #16]
 8003344:	2201      	movs	r2, #1
 8003346:	7702      	strb	r2, [r0, #28]
 8003348:	699b      	ldr	r3, [r3, #24]
 800334a:	079b      	lsls	r3, r3, #30
 800334c:	d069      	beq.n	8003422 <HAL_TIM_IRQHandler+0xf6>
 800334e:	f7ff ffea 	bl	8003326 <HAL_TIM_IC_CaptureCallback>
 8003352:	2300      	movs	r3, #0
 8003354:	7723      	strb	r3, [r4, #28]
 8003356:	0771      	lsls	r1, r6, #29
 8003358:	d510      	bpl.n	800337c <HAL_TIM_IRQHandler+0x50>
 800335a:	076a      	lsls	r2, r5, #29
 800335c:	d50e      	bpl.n	800337c <HAL_TIM_IRQHandler+0x50>
 800335e:	6823      	ldr	r3, [r4, #0]
 8003360:	f06f 0204 	mvn.w	r2, #4
 8003364:	611a      	str	r2, [r3, #16]
 8003366:	2202      	movs	r2, #2
 8003368:	7722      	strb	r2, [r4, #28]
 800336a:	699b      	ldr	r3, [r3, #24]
 800336c:	f413 7f40 	tst.w	r3, #768	@ 0x300
 8003370:	4620      	mov	r0, r4
 8003372:	d05c      	beq.n	800342e <HAL_TIM_IRQHandler+0x102>
 8003374:	f7ff ffd7 	bl	8003326 <HAL_TIM_IC_CaptureCallback>
 8003378:	2300      	movs	r3, #0
 800337a:	7723      	strb	r3, [r4, #28]
 800337c:	0733      	lsls	r3, r6, #28
 800337e:	d50f      	bpl.n	80033a0 <HAL_TIM_IRQHandler+0x74>
 8003380:	0728      	lsls	r0, r5, #28
 8003382:	d50d      	bpl.n	80033a0 <HAL_TIM_IRQHandler+0x74>
 8003384:	6823      	ldr	r3, [r4, #0]
 8003386:	f06f 0208 	mvn.w	r2, #8
 800338a:	611a      	str	r2, [r3, #16]
 800338c:	2204      	movs	r2, #4
 800338e:	7722      	strb	r2, [r4, #28]
 8003390:	69db      	ldr	r3, [r3, #28]
 8003392:	0799      	lsls	r1, r3, #30
 8003394:	4620      	mov	r0, r4
 8003396:	d050      	beq.n	800343a <HAL_TIM_IRQHandler+0x10e>
 8003398:	f7ff ffc5 	bl	8003326 <HAL_TIM_IC_CaptureCallback>
 800339c:	2300      	movs	r3, #0
 800339e:	7723      	strb	r3, [r4, #28]
 80033a0:	06f2      	lsls	r2, r6, #27
 80033a2:	d510      	bpl.n	80033c6 <HAL_TIM_IRQHandler+0x9a>
 80033a4:	06eb      	lsls	r3, r5, #27
 80033a6:	d50e      	bpl.n	80033c6 <HAL_TIM_IRQHandler+0x9a>
 80033a8:	6823      	ldr	r3, [r4, #0]
 80033aa:	f06f 0210 	mvn.w	r2, #16
 80033ae:	611a      	str	r2, [r3, #16]
 80033b0:	2208      	movs	r2, #8
 80033b2:	7722      	strb	r2, [r4, #28]
 80033b4:	69db      	ldr	r3, [r3, #28]
 80033b6:	f413 7f40 	tst.w	r3, #768	@ 0x300
 80033ba:	4620      	mov	r0, r4
 80033bc:	d043      	beq.n	8003446 <HAL_TIM_IRQHandler+0x11a>
 80033be:	f7ff ffb2 	bl	8003326 <HAL_TIM_IC_CaptureCallback>
 80033c2:	2300      	movs	r3, #0
 80033c4:	7723      	strb	r3, [r4, #28]
 80033c6:	07f0      	lsls	r0, r6, #31
 80033c8:	d508      	bpl.n	80033dc <HAL_TIM_IRQHandler+0xb0>
 80033ca:	07e9      	lsls	r1, r5, #31
 80033cc:	d506      	bpl.n	80033dc <HAL_TIM_IRQHandler+0xb0>
 80033ce:	6823      	ldr	r3, [r4, #0]
 80033d0:	f06f 0201 	mvn.w	r2, #1
 80033d4:	611a      	str	r2, [r3, #16]
 80033d6:	4620      	mov	r0, r4
 80033d8:	f7ff ffa3 	bl	8003322 <HAL_TIM_PeriodElapsedCallback>
 80033dc:	0632      	lsls	r2, r6, #24
 80033de:	d508      	bpl.n	80033f2 <HAL_TIM_IRQHandler+0xc6>
 80033e0:	062b      	lsls	r3, r5, #24
 80033e2:	d506      	bpl.n	80033f2 <HAL_TIM_IRQHandler+0xc6>
 80033e4:	6823      	ldr	r3, [r4, #0]
 80033e6:	f06f 0280 	mvn.w	r2, #128	@ 0x80
 80033ea:	611a      	str	r2, [r3, #16]
 80033ec:	4620      	mov	r0, r4
 80033ee:	f000 fb1c 	bl	8003a2a <HAL_TIMEx_BreakCallback>
 80033f2:	0670      	lsls	r0, r6, #25
 80033f4:	d508      	bpl.n	8003408 <HAL_TIM_IRQHandler+0xdc>
 80033f6:	0669      	lsls	r1, r5, #25
 80033f8:	d506      	bpl.n	8003408 <HAL_TIM_IRQHandler+0xdc>
 80033fa:	6823      	ldr	r3, [r4, #0]
 80033fc:	f06f 0240 	mvn.w	r2, #64	@ 0x40
 8003400:	611a      	str	r2, [r3, #16]
 8003402:	4620      	mov	r0, r4
 8003404:	f7ff ff91 	bl	800332a <HAL_TIM_TriggerCallback>
 8003408:	06b2      	lsls	r2, r6, #26
 800340a:	d522      	bpl.n	8003452 <HAL_TIM_IRQHandler+0x126>
 800340c:	06ab      	lsls	r3, r5, #26
 800340e:	d520      	bpl.n	8003452 <HAL_TIM_IRQHandler+0x126>
 8003410:	6823      	ldr	r3, [r4, #0]
 8003412:	f06f 0220 	mvn.w	r2, #32
 8003416:	4620      	mov	r0, r4
 8003418:	611a      	str	r2, [r3, #16]
 800341a:	e8bd 4070 	ldmia.w	sp!, {r4, r5, r6, lr}
 800341e:	f000 bb03 	b.w	8003a28 <HAL_TIMEx_CommutCallback>
 8003422:	f7ff ff7f 	bl	8003324 <HAL_TIM_OC_DelayElapsedCallback>
 8003426:	4620      	mov	r0, r4
 8003428:	f7ff ff7e 	bl	8003328 <HAL_TIM_PWM_PulseFinishedCallback>
 800342c:	e791      	b.n	8003352 <HAL_TIM_IRQHandler+0x26>
 800342e:	f7ff ff79 	bl	8003324 <HAL_TIM_OC_DelayElapsedCallback>
 8003432:	4620      	mov	r0, r4
 8003434:	f7ff ff78 	bl	8003328 <HAL_TIM_PWM_PulseFinishedCallback>
 8003438:	e79e      	b.n	8003378 <HAL_TIM_IRQHandler+0x4c>
 800343a:	f7ff ff73 	bl	8003324 <HAL_TIM_OC_DelayElapsedCallback>
 800343e:	4620      	mov	r0, r4
 8003440:	f7ff ff72 	bl	8003328 <HAL_TIM_PWM_PulseFinishedCallback>
 8003444:	e7aa      	b.n	800339c <HAL_TIM_IRQHandler+0x70>
 8003446:	f7ff ff6d 	bl	8003324 <HAL_TIM_OC_DelayElapsedCallback>
 800344a:	4620      	mov	r0, r4
 800344c:	f7ff ff6c 	bl	8003328 <HAL_TIM_PWM_PulseFinishedCallback>
 8003450:	e7b7      	b.n	80033c2 <HAL_TIM_IRQHandler+0x96>
 8003452:	bd70      	pop	{r4, r5, r6, pc}

08003454 <TIM_Base_SetConfig>:
 8003454:	4a27      	ldr	r2, [pc, #156]	@ (80034f4 <TIM_Base_SetConfig+0xa0>)
 8003456:	6803      	ldr	r3, [r0, #0]
 8003458:	4290      	cmp	r0, r2
 800345a:	d012      	beq.n	8003482 <TIM_Base_SetConfig+0x2e>
 800345c:	f1b0 4f80 	cmp.w	r0, #1073741824	@ 0x40000000
 8003460:	d00f      	beq.n	8003482 <TIM_Base_SetConfig+0x2e>
 8003462:	f5a2 427c 	sub.w	r2, r2, #64512	@ 0xfc00
 8003466:	4290      	cmp	r0, r2
 8003468:	d00b      	beq.n	8003482 <TIM_Base_SetConfig+0x2e>
 800346a:	f502 6280 	add.w	r2, r2, #1024	@ 0x400
 800346e:	4290      	cmp	r0, r2
 8003470:	d007      	beq.n	8003482 <TIM_Base_SetConfig+0x2e>
 8003472:	f502 6280 	add.w	r2, r2, #1024	@ 0x400
 8003476:	4290      	cmp	r0, r2
 8003478:	d003      	beq.n	8003482 <TIM_Base_SetConfig+0x2e>
 800347a:	f502 4278 	add.w	r2, r2, #63488	@ 0xf800
 800347e:	4290      	cmp	r0, r2
 8003480:	d108      	bne.n	8003494 <TIM_Base_SetConfig+0x40>
 8003482:	684a      	ldr	r2, [r1, #4]
 8003484:	f023 0370 	bic.w	r3, r3, #112	@ 0x70
 8003488:	4313      	orrs	r3, r2
 800348a:	68ca      	ldr	r2, [r1, #12]
 800348c:	f423 7340 	bic.w	r3, r3, #768	@ 0x300
 8003490:	4313      	orrs	r3, r2
 8003492:	e016      	b.n	80034c2 <TIM_Base_SetConfig+0x6e>
 8003494:	4a18      	ldr	r2, [pc, #96]	@ (80034f8 <TIM_Base_SetConfig+0xa4>)
 8003496:	4290      	cmp	r0, r2
 8003498:	d0f7      	beq.n	800348a <TIM_Base_SetConfig+0x36>
 800349a:	f502 6280 	add.w	r2, r2, #1024	@ 0x400
 800349e:	4290      	cmp	r0, r2
 80034a0:	d0f3      	beq.n	800348a <TIM_Base_SetConfig+0x36>
 80034a2:	f502 6280 	add.w	r2, r2, #1024	@ 0x400
 80034a6:	4290      	cmp	r0, r2
 80034a8:	d0ef      	beq.n	800348a <TIM_Base_SetConfig+0x36>
 80034aa:	f5a2 3298 	sub.w	r2, r2, #77824	@ 0x13000
 80034ae:	4290      	cmp	r0, r2
 80034b0:	d0eb      	beq.n	800348a <TIM_Base_SetConfig+0x36>
 80034b2:	f502 6280 	add.w	r2, r2, #1024	@ 0x400
 80034b6:	4290      	cmp	r0, r2
 80034b8:	d0e7      	beq.n	800348a <TIM_Base_SetConfig+0x36>
 80034ba:	f502 6280 	add.w	r2, r2, #1024	@ 0x400
 80034be:	4290      	cmp	r0, r2
 80034c0:	d0e3      	beq.n	800348a <TIM_Base_SetConfig+0x36>
 80034c2:	694a      	ldr	r2, [r1, #20]
 80034c4:	f023 0380 	bic.w	r3, r3, #128	@ 0x80
 80034c8:	4313      	orrs	r3, r2
 80034ca:	688a      	ldr	r2, [r1, #8]
 80034cc:	62c2      	str	r2, [r0, #44]	@ 0x2c
 80034ce:	680a      	ldr	r2, [r1, #0]
 80034d0:	6282      	str	r2, [r0, #40]	@ 0x28
 80034d2:	4a08      	ldr	r2, [pc, #32]	@ (80034f4 <TIM_Base_SetConfig+0xa0>)
 80034d4:	4290      	cmp	r0, r2
 80034d6:	d003      	beq.n	80034e0 <TIM_Base_SetConfig+0x8c>
 80034d8:	f502 6280 	add.w	r2, r2, #1024	@ 0x400
 80034dc:	4290      	cmp	r0, r2
 80034de:	d101      	bne.n	80034e4 <TIM_Base_SetConfig+0x90>
 80034e0:	690a      	ldr	r2, [r1, #16]
 80034e2:	6302      	str	r2, [r0, #48]	@ 0x30
 80034e4:	6802      	ldr	r2, [r0, #0]
 80034e6:	f042 0204 	orr.w	r2, r2, #4
 80034ea:	6002      	str	r2, [r0, #0]
 80034ec:	2201      	movs	r2, #1
 80034ee:	6142      	str	r2, [r0, #20]
 80034f0:	6003      	str	r3, [r0, #0]
 80034f2:	4770      	bx	lr
 80034f4:	40010000 	.word	0x40010000
 80034f8:	40014000 	.word	0x40014000

080034fc <HAL_TIM_Base_Init>:
 80034fc:	b510      	push	{r4, lr}
 80034fe:	4604      	mov	r4, r0
 8003500:	b330      	cbz	r0, 8003550 <HAL_TIM_Base_Init+0x54>
 8003502:	f890 303d 	ldrb.w	r3, [r0, #61]	@ 0x3d
 8003506:	f003 02ff 	and.w	r2, r3, #255	@ 0xff
 800350a:	b91b      	cbnz	r3, 8003514 <HAL_TIM_Base_Init+0x18>
 800350c:	f880 203c 	strb.w	r2, [r0, #60]	@ 0x3c
 8003510:	f7fe fbd0 	bl	8001cb4 <HAL_TIM_Base_MspInit>
 8003514:	2302      	movs	r3, #2
 8003516:	6820      	ldr	r0, [r4, #0]
 8003518:	f884 303d 	strb.w	r3, [r4, #61]	@ 0x3d
 800351c:	1d21      	adds	r1, r4, #4
 800351e:	f7ff ff99 	bl	8003454 <TIM_Base_SetConfig>
 8003522:	2301      	movs	r3, #1
 8003524:	f884 3046 	strb.w	r3, [r4, #70]	@ 0x46
 8003528:	2000      	movs	r0, #0
 800352a:	f884 303e 	strb.w	r3, [r4, #62]	@ 0x3e
 800352e:	f884 303f 	strb.w	r3, [r4, #63]	@ 0x3f
 8003532:	f884 3040 	strb.w	r3, [r4, #64]	@ 0x40
 8003536:	f884 3041 	strb.w	r3, [r4, #65]	@ 0x41
 800353a:	f884 3042 	strb.w	r3, [r4, #66]	@ 0x42
 800353e:	f884 3043 	strb.w	r3, [r4, #67]	@ 0x43
 8003542:	f884 3044 	strb.w	r3, [r4, #68]	@ 0x44
 8003546:	f884 3045 	strb.w	r3, [r4, #69]	@ 0x45
 800354a:	f884 303d 	strb.w	r3, [r4, #61]	@ 0x3d
 800354e:	bd10      	pop	{r4, pc}
 8003550:	2001      	movs	r0, #1
 8003552:	e7fc      	b.n	800354e <HAL_TIM_Base_Init+0x52>

08003554 <HAL_TIM_PWM_Init>:
 8003554:	b510      	push	{r4, lr}
 8003556:	4604      	mov	r4, r0
 8003558:	b330      	cbz	r0, 80035a8 <HAL_TIM_PWM_Init+0x54>
 800355a:	f890 303d 	ldrb.w	r3, [r0, #61]	@ 0x3d
 800355e:	f003 02ff 	and.w	r2, r3, #255	@ 0xff
 8003562:	b91b      	cbnz	r3, 800356c <HAL_TIM_PWM_Init+0x18>
 8003564:	f880 203c 	strb.w	r2, [r0, #60]	@ 0x3c
 8003568:	f7ff feda 	bl	8003320 <HAL_TIM_PWM_MspInit>
 800356c:	2302      	movs	r3, #2
 800356e:	6820      	ldr	r0, [r4, #0]
 8003570:	f884 303d 	strb.w	r3, [r4, #61]	@ 0x3d
 8003574:	1d21      	adds	r1, r4, #4
 8003576:	f7ff ff6d 	bl	8003454 <TIM_Base_SetConfig>
 800357a:	2301      	movs	r3, #1
 800357c:	f884 3046 	strb.w	r3, [r4, #70]	@ 0x46
 8003580:	2000      	movs	r0, #0
 8003582:	f884 303e 	strb.w	r3, [r4, #62]	@ 0x3e
 8003586:	f884 303f 	strb.w	r3, [r4, #63]	@ 0x3f
 800358a:	f884 3040 	strb.w	r3, [r4, #64]	@ 0x40
 800358e:	f884 3041 	strb.w	r3, [r4, #65]	@ 0x41
 8003592:	f884 3042 	strb.w	r3, [r4, #66]	@ 0x42
 8003596:	f884 3043 	strb.w	r3, [r4, #67]	@ 0x43
 800359a:	f884 3044 	strb.w	r3, [r4, #68]	@ 0x44
 800359e:	f884 3045 	strb.w	r3, [r4, #69]	@ 0x45
 80035a2:	f884 303d 	strb.w	r3, [r4, #61]	@ 0x3d
 80035a6:	bd10      	pop	{r4, pc}
 80035a8:	2001      	movs	r0, #1
 80035aa:	e7fc      	b.n	80035a6 <HAL_TIM_PWM_Init+0x52>

080035ac <TIM_OC2_SetConfig>:
 80035ac:	6a03      	ldr	r3, [r0, #32]
 80035ae:	6a02      	ldr	r2, [r0, #32]
 80035b0:	f022 0210 	bic.w	r2, r2, #16
 80035b4:	b570      	push	{r4, r5, r6, lr}
 80035b6:	6202      	str	r2, [r0, #32]
 80035b8:	6844      	ldr	r4, [r0, #4]
 80035ba:	6982      	ldr	r2, [r0, #24]
 80035bc:	680d      	ldr	r5, [r1, #0]
 80035be:	f422 42e6 	bic.w	r2, r2, #29440	@ 0x7300
 80035c2:	ea42 2205 	orr.w	r2, r2, r5, lsl #8
 80035c6:	688d      	ldr	r5, [r1, #8]
 80035c8:	f023 0320 	bic.w	r3, r3, #32
 80035cc:	ea43 1305 	orr.w	r3, r3, r5, lsl #4
 80035d0:	4d0d      	ldr	r5, [pc, #52]	@ (8003608 <TIM_OC2_SetConfig+0x5c>)
 80035d2:	42a8      	cmp	r0, r5
 80035d4:	d003      	beq.n	80035de <TIM_OC2_SetConfig+0x32>
 80035d6:	f505 6580 	add.w	r5, r5, #1024	@ 0x400
 80035da:	42a8      	cmp	r0, r5
 80035dc:	d10d      	bne.n	80035fa <TIM_OC2_SetConfig+0x4e>
 80035de:	68cd      	ldr	r5, [r1, #12]
 80035e0:	f023 0380 	bic.w	r3, r3, #128	@ 0x80
 80035e4:	ea43 1305 	orr.w	r3, r3, r5, lsl #4
 80035e8:	e9d1 5605 	ldrd	r5, r6, [r1, #20]
 80035ec:	f424 6440 	bic.w	r4, r4, #3072	@ 0xc00
 80035f0:	4335      	orrs	r5, r6
 80035f2:	f023 0340 	bic.w	r3, r3, #64	@ 0x40
 80035f6:	ea44 0485 	orr.w	r4, r4, r5, lsl #2
 80035fa:	6044      	str	r4, [r0, #4]
 80035fc:	6182      	str	r2, [r0, #24]
 80035fe:	684a      	ldr	r2, [r1, #4]
 8003600:	6382      	str	r2, [r0, #56]	@ 0x38
 8003602:	6203      	str	r3, [r0, #32]
 8003604:	bd70      	pop	{r4, r5, r6, pc}
 8003606:	bf00      	nop
 8003608:	40010000 	.word	0x40010000

0800360c <HAL_TIM_PWM_ConfigChannel>:
 800360c:	b538      	push	{r3, r4, r5, lr}
 800360e:	f890 303c 	ldrb.w	r3, [r0, #60]	@ 0x3c
 8003612:	2b01      	cmp	r3, #1
 8003614:	4604      	mov	r4, r0
 8003616:	d04f      	beq.n	80036b8 <HAL_TIM_PWM_ConfigChannel+0xac>
 8003618:	2001      	movs	r0, #1
 800361a:	2a08      	cmp	r2, #8
 800361c:	f884 003c 	strb.w	r0, [r4, #60]	@ 0x3c
 8003620:	d03a      	beq.n	8003698 <HAL_TIM_PWM_ConfigChannel+0x8c>
 8003622:	d806      	bhi.n	8003632 <HAL_TIM_PWM_ConfigChannel+0x26>
 8003624:	b1ba      	cbz	r2, 8003656 <HAL_TIM_PWM_ConfigChannel+0x4a>
 8003626:	2a04      	cmp	r2, #4
 8003628:	d026      	beq.n	8003678 <HAL_TIM_PWM_ConfigChannel+0x6c>
 800362a:	2300      	movs	r3, #0
 800362c:	f884 303c 	strb.w	r3, [r4, #60]	@ 0x3c
 8003630:	bd38      	pop	{r3, r4, r5, pc}
 8003632:	2a0c      	cmp	r2, #12
 8003634:	d1f9      	bne.n	800362a <HAL_TIM_PWM_ConfigChannel+0x1e>
 8003636:	6820      	ldr	r0, [r4, #0]
 8003638:	f7ff fe16 	bl	8003268 <TIM_OC4_SetConfig>
 800363c:	69c3      	ldr	r3, [r0, #28]
 800363e:	690a      	ldr	r2, [r1, #16]
 8003640:	f443 6300 	orr.w	r3, r3, #2048	@ 0x800
 8003644:	61c3      	str	r3, [r0, #28]
 8003646:	69c3      	ldr	r3, [r0, #28]
 8003648:	f423 6380 	bic.w	r3, r3, #1024	@ 0x400
 800364c:	61c3      	str	r3, [r0, #28]
 800364e:	69c3      	ldr	r3, [r0, #28]
 8003650:	ea43 2302 	orr.w	r3, r3, r2, lsl #8
 8003654:	e02e      	b.n	80036b4 <HAL_TIM_PWM_ConfigChannel+0xa8>
 8003656:	6820      	ldr	r0, [r4, #0]
 8003658:	f7ff fdac 	bl	80031b4 <TIM_OC1_SetConfig>
 800365c:	6983      	ldr	r3, [r0, #24]
 800365e:	690a      	ldr	r2, [r1, #16]
 8003660:	f043 0308 	orr.w	r3, r3, #8
 8003664:	6183      	str	r3, [r0, #24]
 8003666:	6983      	ldr	r3, [r0, #24]
 8003668:	f023 0304 	bic.w	r3, r3, #4
 800366c:	6183      	str	r3, [r0, #24]
 800366e:	6983      	ldr	r3, [r0, #24]
 8003670:	4313      	orrs	r3, r2
 8003672:	6183      	str	r3, [r0, #24]
 8003674:	2000      	movs	r0, #0
 8003676:	e7d8      	b.n	800362a <HAL_TIM_PWM_ConfigChannel+0x1e>
 8003678:	6820      	ldr	r0, [r4, #0]
 800367a:	f7ff ff97 	bl	80035ac <TIM_OC2_SetConfig>
 800367e:	6983      	ldr	r3, [r0, #24]
 8003680:	690a      	ldr	r2, [r1, #16]
 8003682:	f443 6300 	orr.w	r3, r3, #2048	@ 0x800
 8003686:	6183      	str	r3, [r0, #24]
 8003688:	6983      	ldr	r3, [r0, #24]
 800368a:	f423 6380 	bic.w	r3, r3, #1024	@ 0x400
 800368e:	6183      	str	r3, [r0, #24]
 8003690:	6983      	ldr	r3, [r0, #24]
 8003692:	ea43 2302 	orr.w	r3, r3, r2, lsl #8
 8003696:	e7ec      	b.n	8003672 <HAL_TIM_PWM_ConfigChannel+0x66>
 8003698:	6820      	ldr	r0, [r4, #0]
 800369a:	f7ff fdb7 	bl	800320c <TIM_OC3_SetConfig>
 800369e:	69c3      	ldr	r3, [r0, #28]
 80036a0:	690a      	ldr	r2, [r1, #16]
 80036a2:	f043 0308 	orr.w	r3, r3, #8
 80036a6:	61c3      	str	r3, [r0, #28]
 80036a8:	69c3      	ldr	r3, [r0, #28]
 80036aa:	f023 0304 	bic.w	r3, r3, #4
 80036ae:	61c3      	str	r3, [r0, #28]
 80036b0:	69c3      	ldr	r3, [r0, #28]
 80036b2:	4313      	orrs	r3, r2
 80036b4:	61c3      	str	r3, [r0, #28]
 80036b6:	e7dd      	b.n	8003674 <HAL_TIM_PWM_ConfigChannel+0x68>
 80036b8:	2002      	movs	r0, #2
 80036ba:	e7b9      	b.n	8003630 <HAL_TIM_PWM_ConfigChannel+0x24>

080036bc <TIM_ETR_SetConfig>:
 80036bc:	b510      	push	{r4, lr}
 80036be:	6884      	ldr	r4, [r0, #8]
 80036c0:	430a      	orrs	r2, r1
 80036c2:	f424 447f 	bic.w	r4, r4, #65280	@ 0xff00
 80036c6:	ea42 2203 	orr.w	r2, r2, r3, lsl #8
 80036ca:	4322      	orrs	r2, r4
 80036cc:	6082      	str	r2, [r0, #8]
 80036ce:	bd10      	pop	{r4, pc}

080036d0 <HAL_TIM_ConfigClockSource>:
 80036d0:	b538      	push	{r3, r4, r5, lr}
 80036d2:	f890 303c 	ldrb.w	r3, [r0, #60]	@ 0x3c
 80036d6:	2b01      	cmp	r3, #1
 80036d8:	4604      	mov	r4, r0
 80036da:	f04f 0002 	mov.w	r0, #2
 80036de:	f000 808e 	beq.w	80037fe <HAL_TIM_ConfigClockSource+0x12e>
 80036e2:	f884 003d 	strb.w	r0, [r4, #61]	@ 0x3d
 80036e6:	2201      	movs	r2, #1
 80036e8:	6820      	ldr	r0, [r4, #0]
 80036ea:	f884 203c 	strb.w	r2, [r4, #60]	@ 0x3c
 80036ee:	6883      	ldr	r3, [r0, #8]
 80036f0:	f423 437f 	bic.w	r3, r3, #65280	@ 0xff00
 80036f4:	f023 0377 	bic.w	r3, r3, #119	@ 0x77
 80036f8:	6083      	str	r3, [r0, #8]
 80036fa:	680b      	ldr	r3, [r1, #0]
 80036fc:	2b60      	cmp	r3, #96	@ 0x60
 80036fe:	d04f      	beq.n	80037a0 <HAL_TIM_ConfigClockSource+0xd0>
 8003700:	d832      	bhi.n	8003768 <HAL_TIM_ConfigClockSource+0x98>
 8003702:	2b40      	cmp	r3, #64	@ 0x40
 8003704:	d064      	beq.n	80037d0 <HAL_TIM_ConfigClockSource+0x100>
 8003706:	d816      	bhi.n	8003736 <HAL_TIM_ConfigClockSource+0x66>
 8003708:	2b20      	cmp	r3, #32
 800370a:	d00d      	beq.n	8003728 <HAL_TIM_ConfigClockSource+0x58>
 800370c:	d80a      	bhi.n	8003724 <HAL_TIM_ConfigClockSource+0x54>
 800370e:	f033 0110 	bics.w	r1, r3, #16
 8003712:	d009      	beq.n	8003728 <HAL_TIM_ConfigClockSource+0x58>
 8003714:	2301      	movs	r3, #1
 8003716:	f884 303d 	strb.w	r3, [r4, #61]	@ 0x3d
 800371a:	2300      	movs	r3, #0
 800371c:	f884 303c 	strb.w	r3, [r4, #60]	@ 0x3c
 8003720:	4610      	mov	r0, r2
 8003722:	bd38      	pop	{r3, r4, r5, pc}
 8003724:	2b30      	cmp	r3, #48	@ 0x30
 8003726:	d1f5      	bne.n	8003714 <HAL_TIM_ConfigClockSource+0x44>
 8003728:	6882      	ldr	r2, [r0, #8]
 800372a:	f022 0270 	bic.w	r2, r2, #112	@ 0x70
 800372e:	4313      	orrs	r3, r2
 8003730:	f043 0307 	orr.w	r3, r3, #7
 8003734:	e028      	b.n	8003788 <HAL_TIM_ConfigClockSource+0xb8>
 8003736:	2b50      	cmp	r3, #80	@ 0x50
 8003738:	d1ec      	bne.n	8003714 <HAL_TIM_ConfigClockSource+0x44>
 800373a:	684a      	ldr	r2, [r1, #4]
 800373c:	68cd      	ldr	r5, [r1, #12]
 800373e:	6a01      	ldr	r1, [r0, #32]
 8003740:	6a03      	ldr	r3, [r0, #32]
 8003742:	f023 0301 	bic.w	r3, r3, #1
 8003746:	6203      	str	r3, [r0, #32]
 8003748:	6983      	ldr	r3, [r0, #24]
 800374a:	f021 010a 	bic.w	r1, r1, #10
 800374e:	f023 03f0 	bic.w	r3, r3, #240	@ 0xf0
 8003752:	ea43 1305 	orr.w	r3, r3, r5, lsl #4
 8003756:	430a      	orrs	r2, r1
 8003758:	6183      	str	r3, [r0, #24]
 800375a:	6202      	str	r2, [r0, #32]
 800375c:	6883      	ldr	r3, [r0, #8]
 800375e:	f023 0370 	bic.w	r3, r3, #112	@ 0x70
 8003762:	f043 0357 	orr.w	r3, r3, #87	@ 0x57
 8003766:	e00f      	b.n	8003788 <HAL_TIM_ConfigClockSource+0xb8>
 8003768:	f5b3 5f80 	cmp.w	r3, #4096	@ 0x1000
 800376c:	d00d      	beq.n	800378a <HAL_TIM_ConfigClockSource+0xba>
 800376e:	f5b3 5f00 	cmp.w	r3, #8192	@ 0x2000
 8003772:	d00c      	beq.n	800378e <HAL_TIM_ConfigClockSource+0xbe>
 8003774:	2b70      	cmp	r3, #112	@ 0x70
 8003776:	d1cd      	bne.n	8003714 <HAL_TIM_ConfigClockSource+0x44>
 8003778:	68cb      	ldr	r3, [r1, #12]
 800377a:	e9d1 2101 	ldrd	r2, r1, [r1, #4]
 800377e:	f7ff ff9d 	bl	80036bc <TIM_ETR_SetConfig>
 8003782:	6883      	ldr	r3, [r0, #8]
 8003784:	f043 0377 	orr.w	r3, r3, #119	@ 0x77
 8003788:	6083      	str	r3, [r0, #8]
 800378a:	2200      	movs	r2, #0
 800378c:	e7c2      	b.n	8003714 <HAL_TIM_ConfigClockSource+0x44>
 800378e:	68cb      	ldr	r3, [r1, #12]
 8003790:	e9d1 2101 	ldrd	r2, r1, [r1, #4]
 8003794:	f7ff ff92 	bl	80036bc <TIM_ETR_SetConfig>
 8003798:	6883      	ldr	r3, [r0, #8]
 800379a:	f443 4380 	orr.w	r3, r3, #16384	@ 0x4000
 800379e:	e7f3      	b.n	8003788 <HAL_TIM_ConfigClockSource+0xb8>
 80037a0:	6a03      	ldr	r3, [r0, #32]
 80037a2:	6a02      	ldr	r2, [r0, #32]
 80037a4:	684d      	ldr	r5, [r1, #4]
 80037a6:	68c9      	ldr	r1, [r1, #12]
 80037a8:	f022 0210 	bic.w	r2, r2, #16
 80037ac:	6202      	str	r2, [r0, #32]
 80037ae:	6982      	ldr	r2, [r0, #24]
 80037b0:	f023 03a0 	bic.w	r3, r3, #160	@ 0xa0
 80037b4:	f422 4270 	bic.w	r2, r2, #61440	@ 0xf000
 80037b8:	ea43 1305 	orr.w	r3, r3, r5, lsl #4
 80037bc:	ea42 3201 	orr.w	r2, r2, r1, lsl #12
 80037c0:	6182      	str	r2, [r0, #24]
 80037c2:	6203      	str	r3, [r0, #32]
 80037c4:	6883      	ldr	r3, [r0, #8]
 80037c6:	f023 0370 	bic.w	r3, r3, #112	@ 0x70
 80037ca:	f043 0367 	orr.w	r3, r3, #103	@ 0x67
 80037ce:	e7db      	b.n	8003788 <HAL_TIM_ConfigClockSource+0xb8>
 80037d0:	684a      	ldr	r2, [r1, #4]
 80037d2:	68cd      	ldr	r5, [r1, #12]
 80037d4:	6a01      	ldr	r1, [r0, #32]
 80037d6:	6a03      	ldr	r3, [r0, #32]
 80037d8:	f023 0301 	bic.w	r3, r3, #1
 80037dc:	6203      	str	r3, [r0, #32]
 80037de:	6983      	ldr	r3, [r0, #24]
 80037e0:	f021 010a 	bic.w	r1, r1, #10
 80037e4:	f023 03f0 	bic.w	r3, r3, #240	@ 0xf0
 80037e8:	ea43 1305 	orr.w	r3, r3, r5, lsl #4
 80037ec:	430a      	orrs	r2, r1
 80037ee:	6183      	str	r3, [r0, #24]
 80037f0:	6202      	str	r2, [r0, #32]
 80037f2:	6883      	ldr	r3, [r0, #8]
 80037f4:	f023 0370 	bic.w	r3, r3, #112	@ 0x70
 80037f8:	f043 0347 	orr.w	r3, r3, #71	@ 0x47
 80037fc:	e7c4      	b.n	8003788 <HAL_TIM_ConfigClockSource+0xb8>
 80037fe:	4602      	mov	r2, r0
 8003800:	e78e      	b.n	8003720 <HAL_TIM_ConfigClockSource+0x50>

08003802 <TIM_CCxChannelCmd>:
 8003802:	6a03      	ldr	r3, [r0, #32]
 8003804:	b510      	push	{r4, lr}
 8003806:	f001 011f 	and.w	r1, r1, #31
 800380a:	2401      	movs	r4, #1
 800380c:	408c      	lsls	r4, r1
 800380e:	ea23 0304 	bic.w	r3, r3, r4
 8003812:	6203      	str	r3, [r0, #32]
 8003814:	6a03      	ldr	r3, [r0, #32]
 8003816:	408a      	lsls	r2, r1
 8003818:	431a      	orrs	r2, r3
 800381a:	6202      	str	r2, [r0, #32]
 800381c:	bd10      	pop	{r4, pc}
	...

08003820 <HAL_TIM_OC_Start>:
 8003820:	b508      	push	{r3, lr}
 8003822:	b929      	cbnz	r1, 8003830 <HAL_TIM_OC_Start+0x10>
 8003824:	f890 303e 	ldrb.w	r3, [r0, #62]	@ 0x3e
 8003828:	2b01      	cmp	r3, #1
 800382a:	d01f      	beq.n	800386c <HAL_TIM_OC_Start+0x4c>
 800382c:	2001      	movs	r0, #1
 800382e:	e035      	b.n	800389c <HAL_TIM_OC_Start+0x7c>
 8003830:	2904      	cmp	r1, #4
 8003832:	d107      	bne.n	8003844 <HAL_TIM_OC_Start+0x24>
 8003834:	f890 303f 	ldrb.w	r3, [r0, #63]	@ 0x3f
 8003838:	2b01      	cmp	r3, #1
 800383a:	d1f7      	bne.n	800382c <HAL_TIM_OC_Start+0xc>
 800383c:	2302      	movs	r3, #2
 800383e:	f880 303f 	strb.w	r3, [r0, #63]	@ 0x3f
 8003842:	e016      	b.n	8003872 <HAL_TIM_OC_Start+0x52>
 8003844:	2908      	cmp	r1, #8
 8003846:	bf0c      	ite	eq
 8003848:	f890 3040 	ldrbeq.w	r3, [r0, #64]	@ 0x40
 800384c:	f890 3041 	ldrbne.w	r3, [r0, #65]	@ 0x41
 8003850:	3b01      	subs	r3, #1
 8003852:	bf18      	it	ne
 8003854:	2301      	movne	r3, #1
 8003856:	2b00      	cmp	r3, #0
 8003858:	d1e8      	bne.n	800382c <HAL_TIM_OC_Start+0xc>
 800385a:	2908      	cmp	r1, #8
 800385c:	f04f 0302 	mov.w	r3, #2
 8003860:	bf0c      	ite	eq
 8003862:	f880 3040 	strbeq.w	r3, [r0, #64]	@ 0x40
 8003866:	f880 3041 	strbne.w	r3, [r0, #65]	@ 0x41
 800386a:	e002      	b.n	8003872 <HAL_TIM_OC_Start+0x52>
 800386c:	2302      	movs	r3, #2
 800386e:	f880 303e 	strb.w	r3, [r0, #62]	@ 0x3e
 8003872:	6800      	ldr	r0, [r0, #0]
 8003874:	2201      	movs	r2, #1
 8003876:	f7ff ffc4 	bl	8003802 <TIM_CCxChannelCmd>
 800387a:	4b16      	ldr	r3, [pc, #88]	@ (80038d4 <HAL_TIM_OC_Start+0xb4>)
 800387c:	4298      	cmp	r0, r3
 800387e:	d003      	beq.n	8003888 <HAL_TIM_OC_Start+0x68>
 8003880:	f503 6380 	add.w	r3, r3, #1024	@ 0x400
 8003884:	4298      	cmp	r0, r3
 8003886:	d10a      	bne.n	800389e <HAL_TIM_OC_Start+0x7e>
 8003888:	6c43      	ldr	r3, [r0, #68]	@ 0x44
 800388a:	f443 4300 	orr.w	r3, r3, #32768	@ 0x8000
 800388e:	6443      	str	r3, [r0, #68]	@ 0x44
 8003890:	6883      	ldr	r3, [r0, #8]
 8003892:	f003 0307 	and.w	r3, r3, #7
 8003896:	2b06      	cmp	r3, #6
 8003898:	d117      	bne.n	80038ca <HAL_TIM_OC_Start+0xaa>
 800389a:	2000      	movs	r0, #0
 800389c:	bd08      	pop	{r3, pc}
 800389e:	f1b0 4f80 	cmp.w	r0, #1073741824	@ 0x40000000
 80038a2:	d0f5      	beq.n	8003890 <HAL_TIM_OC_Start+0x70>
 80038a4:	4b0c      	ldr	r3, [pc, #48]	@ (80038d8 <HAL_TIM_OC_Start+0xb8>)
 80038a6:	4298      	cmp	r0, r3
 80038a8:	d0f2      	beq.n	8003890 <HAL_TIM_OC_Start+0x70>
 80038aa:	f503 6380 	add.w	r3, r3, #1024	@ 0x400
 80038ae:	4298      	cmp	r0, r3
 80038b0:	d0ee      	beq.n	8003890 <HAL_TIM_OC_Start+0x70>
 80038b2:	f503 6380 	add.w	r3, r3, #1024	@ 0x400
 80038b6:	4298      	cmp	r0, r3
 80038b8:	d0ea      	beq.n	8003890 <HAL_TIM_OC_Start+0x70>
 80038ba:	f503 339a 	add.w	r3, r3, #78848	@ 0x13400
 80038be:	4298      	cmp	r0, r3
 80038c0:	d0e6      	beq.n	8003890 <HAL_TIM_OC_Start+0x70>
 80038c2:	f5a3 3394 	sub.w	r3, r3, #75776	@ 0x12800
 80038c6:	4298      	cmp	r0, r3
 80038c8:	d0e2      	beq.n	8003890 <HAL_TIM_OC_Start+0x70>
 80038ca:	6803      	ldr	r3, [r0, #0]
 80038cc:	f043 0301 	orr.w	r3, r3, #1
 80038d0:	6003      	str	r3, [r0, #0]
 80038d2:	e7e2      	b.n	800389a <HAL_TIM_OC_Start+0x7a>
 80038d4:	40010000 	.word	0x40010000
 80038d8:	40000400 	.word	0x40000400

080038dc <HAL_TIM_PWM_Start>:
 80038dc:	f7ff bfa0 	b.w	8003820 <HAL_TIM_OC_Start>

080038e0 <HAL_TIM_OC_Stop>:
 80038e0:	b538      	push	{r3, r4, r5, lr}
 80038e2:	2200      	movs	r2, #0
 80038e4:	4604      	mov	r4, r0
 80038e6:	6800      	ldr	r0, [r0, #0]
 80038e8:	460d      	mov	r5, r1
 80038ea:	f7ff ff8a 	bl	8003802 <TIM_CCxChannelCmd>
 80038ee:	4b1a      	ldr	r3, [pc, #104]	@ (8003958 <HAL_TIM_OC_Stop+0x78>)
 80038f0:	4298      	cmp	r0, r3
 80038f2:	d003      	beq.n	80038fc <HAL_TIM_OC_Stop+0x1c>
 80038f4:	f503 6380 	add.w	r3, r3, #1024	@ 0x400
 80038f8:	4298      	cmp	r0, r3
 80038fa:	d10d      	bne.n	8003918 <HAL_TIM_OC_Stop+0x38>
 80038fc:	6a02      	ldr	r2, [r0, #32]
 80038fe:	f241 1311 	movw	r3, #4369	@ 0x1111
 8003902:	421a      	tst	r2, r3
 8003904:	d108      	bne.n	8003918 <HAL_TIM_OC_Stop+0x38>
 8003906:	6a02      	ldr	r2, [r0, #32]
 8003908:	f240 4344 	movw	r3, #1092	@ 0x444
 800390c:	421a      	tst	r2, r3
 800390e:	bf02      	ittt	eq
 8003910:	6c43      	ldreq	r3, [r0, #68]	@ 0x44
 8003912:	f423 4300 	biceq.w	r3, r3, #32768	@ 0x8000
 8003916:	6443      	streq	r3, [r0, #68]	@ 0x44
 8003918:	6a02      	ldr	r2, [r0, #32]
 800391a:	f241 1311 	movw	r3, #4369	@ 0x1111
 800391e:	421a      	tst	r2, r3
 8003920:	d108      	bne.n	8003934 <HAL_TIM_OC_Stop+0x54>
 8003922:	6a02      	ldr	r2, [r0, #32]
 8003924:	f240 4344 	movw	r3, #1092	@ 0x444
 8003928:	421a      	tst	r2, r3
 800392a:	bf02      	ittt	eq
 800392c:	6803      	ldreq	r3, [r0, #0]
 800392e:	f023 0301 	biceq.w	r3, r3, #1
 8003932:	6003      	streq	r3, [r0, #0]
 8003934:	2301      	movs	r3, #1
 8003936:	b91d      	cbnz	r5, 8003940 <HAL_TIM_OC_Stop+0x60>
 8003938:	f884 303e 	strb.w	r3, [r4, #62]	@ 0x3e
 800393c:	2000      	movs	r0, #0
 800393e:	bd38      	pop	{r3, r4, r5, pc}
 8003940:	2d04      	cmp	r5, #4
 8003942:	d102      	bne.n	800394a <HAL_TIM_OC_Stop+0x6a>
 8003944:	f884 303f 	strb.w	r3, [r4, #63]	@ 0x3f
 8003948:	e7f8      	b.n	800393c <HAL_TIM_OC_Stop+0x5c>
 800394a:	2d08      	cmp	r5, #8
 800394c:	bf0c      	ite	eq
 800394e:	f884 3040 	strbeq.w	r3, [r4, #64]	@ 0x40
 8003952:	f884 3041 	strbne.w	r3, [r4, #65]	@ 0x41
 8003956:	e7f1      	b.n	800393c <HAL_TIM_OC_Stop+0x5c>
 8003958:	40010000 	.word	0x40010000

0800395c <HAL_TIM_PWM_Stop>:
 800395c:	f7ff bfc0 	b.w	80038e0 <HAL_TIM_OC_Stop>

08003960 <HAL_TIMEx_MasterConfigSynchronization>:
 8003960:	b530      	push	{r4, r5, lr}
 8003962:	f890 303c 	ldrb.w	r3, [r0, #60]	@ 0x3c
 8003966:	2b01      	cmp	r3, #1
 8003968:	4602      	mov	r2, r0
 800396a:	f04f 0002 	mov.w	r0, #2
 800396e:	d032      	beq.n	80039d6 <HAL_TIMEx_MasterConfigSynchronization+0x76>
 8003970:	6813      	ldr	r3, [r2, #0]
 8003972:	f882 003d 	strb.w	r0, [r2, #61]	@ 0x3d
 8003976:	685c      	ldr	r4, [r3, #4]
 8003978:	680d      	ldr	r5, [r1, #0]
 800397a:	6898      	ldr	r0, [r3, #8]
 800397c:	f024 0470 	bic.w	r4, r4, #112	@ 0x70
 8003980:	432c      	orrs	r4, r5
 8003982:	605c      	str	r4, [r3, #4]
 8003984:	4c14      	ldr	r4, [pc, #80]	@ (80039d8 <HAL_TIMEx_MasterConfigSynchronization+0x78>)
 8003986:	42a3      	cmp	r3, r4
 8003988:	d01a      	beq.n	80039c0 <HAL_TIMEx_MasterConfigSynchronization+0x60>
 800398a:	f1b3 4f80 	cmp.w	r3, #1073741824	@ 0x40000000
 800398e:	d017      	beq.n	80039c0 <HAL_TIMEx_MasterConfigSynchronization+0x60>
 8003990:	f5a4 447c 	sub.w	r4, r4, #64512	@ 0xfc00
 8003994:	42a3      	cmp	r3, r4
 8003996:	d013      	beq.n	80039c0 <HAL_TIMEx_MasterConfigSynchronization+0x60>
 8003998:	f504 6480 	add.w	r4, r4, #1024	@ 0x400
 800399c:	42a3      	cmp	r3, r4
 800399e:	d00f      	beq.n	80039c0 <HAL_TIMEx_MasterConfigSynchronization+0x60>
 80039a0:	f504 6480 	add.w	r4, r4, #1024	@ 0x400
 80039a4:	42a3      	cmp	r3, r4
 80039a6:	d00b      	beq.n	80039c0 <HAL_TIMEx_MasterConfigSynchronization+0x60>
 80039a8:	f504 4478 	add.w	r4, r4, #63488	@ 0xf800
 80039ac:	42a3      	cmp	r3, r4
 80039ae:	d007      	beq.n	80039c0 <HAL_TIMEx_MasterConfigSynchronization+0x60>
 80039b0:	f504 5470 	add.w	r4, r4, #15360	@ 0x3c00
 80039b4:	42a3      	cmp	r3, r4
 80039b6:	d003      	beq.n	80039c0 <HAL_TIMEx_MasterConfigSynchronization+0x60>
 80039b8:	f5a4 3494 	sub.w	r4, r4, #75776	@ 0x12800
 80039bc:	42a3      	cmp	r3, r4
 80039be:	d104      	bne.n	80039ca <HAL_TIMEx_MasterConfigSynchronization+0x6a>
 80039c0:	6849      	ldr	r1, [r1, #4]
 80039c2:	f020 0080 	bic.w	r0, r0, #128	@ 0x80
 80039c6:	4301      	orrs	r1, r0
 80039c8:	6099      	str	r1, [r3, #8]
 80039ca:	2301      	movs	r3, #1
 80039cc:	2000      	movs	r0, #0
 80039ce:	f882 303d 	strb.w	r3, [r2, #61]	@ 0x3d
 80039d2:	f882 003c 	strb.w	r0, [r2, #60]	@ 0x3c
 80039d6:	bd30      	pop	{r4, r5, pc}
 80039d8:	40010000 	.word	0x40010000

080039dc <HAL_TIMEx_ConfigBreakDeadTime>:
 80039dc:	f890 303c 	ldrb.w	r3, [r0, #60]	@ 0x3c
 80039e0:	2b01      	cmp	r3, #1
 80039e2:	4602      	mov	r2, r0
 80039e4:	d01e      	beq.n	8003a24 <HAL_TIMEx_ConfigBreakDeadTime+0x48>
 80039e6:	68cb      	ldr	r3, [r1, #12]
 80039e8:	6888      	ldr	r0, [r1, #8]
 80039ea:	f423 7340 	bic.w	r3, r3, #768	@ 0x300
 80039ee:	4303      	orrs	r3, r0
 80039f0:	6848      	ldr	r0, [r1, #4]
 80039f2:	f423 6380 	bic.w	r3, r3, #1024	@ 0x400
 80039f6:	4303      	orrs	r3, r0
 80039f8:	6808      	ldr	r0, [r1, #0]
 80039fa:	f423 6300 	bic.w	r3, r3, #2048	@ 0x800
 80039fe:	4303      	orrs	r3, r0
 8003a00:	6908      	ldr	r0, [r1, #16]
 8003a02:	f423 5380 	bic.w	r3, r3, #4096	@ 0x1000
 8003a06:	4303      	orrs	r3, r0
 8003a08:	6948      	ldr	r0, [r1, #20]
 8003a0a:	69c9      	ldr	r1, [r1, #28]
 8003a0c:	f423 5300 	bic.w	r3, r3, #8192	@ 0x2000
 8003a10:	4303      	orrs	r3, r0
 8003a12:	f423 4380 	bic.w	r3, r3, #16384	@ 0x4000
 8003a16:	430b      	orrs	r3, r1
 8003a18:	6811      	ldr	r1, [r2, #0]
 8003a1a:	2000      	movs	r0, #0
 8003a1c:	644b      	str	r3, [r1, #68]	@ 0x44
 8003a1e:	f882 003c 	strb.w	r0, [r2, #60]	@ 0x3c
 8003a22:	4770      	bx	lr
 8003a24:	2002      	movs	r0, #2
 8003a26:	4770      	bx	lr

08003a28 <HAL_TIMEx_CommutCallback>:
 8003a28:	4770      	bx	lr

08003a2a <HAL_TIMEx_BreakCallback>:
 8003a2a:	4770      	bx	lr

08003a2c <USB_CoreReset>:
 8003a2c:	b082      	sub	sp, #8
 8003a2e:	2300      	movs	r3, #0
 8003a30:	4602      	mov	r2, r0
 8003a32:	9301      	str	r3, [sp, #4]
 8003a34:	9b01      	ldr	r3, [sp, #4]
 8003a36:	3301      	adds	r3, #1
 8003a38:	9301      	str	r3, [sp, #4]
 8003a3a:	9b01      	ldr	r3, [sp, #4]
 8003a3c:	f1b3 6f70 	cmp.w	r3, #251658240	@ 0xf000000
 8003a40:	d81a      	bhi.n	8003a78 <USB_CoreReset+0x4c>
 8003a42:	6913      	ldr	r3, [r2, #16]
 8003a44:	2b00      	cmp	r3, #0
 8003a46:	daf5      	bge.n	8003a34 <USB_CoreReset+0x8>
 8003a48:	230a      	movs	r3, #10
 8003a4a:	9301      	str	r3, [sp, #4]
 8003a4c:	9b01      	ldr	r3, [sp, #4]
 8003a4e:	b983      	cbnz	r3, 8003a72 <USB_CoreReset+0x46>
 8003a50:	6913      	ldr	r3, [r2, #16]
 8003a52:	f043 0301 	orr.w	r3, r3, #1
 8003a56:	6113      	str	r3, [r2, #16]
 8003a58:	9b01      	ldr	r3, [sp, #4]
 8003a5a:	3301      	adds	r3, #1
 8003a5c:	9301      	str	r3, [sp, #4]
 8003a5e:	9b01      	ldr	r3, [sp, #4]
 8003a60:	f1b3 6f70 	cmp.w	r3, #251658240	@ 0xf000000
 8003a64:	d808      	bhi.n	8003a78 <USB_CoreReset+0x4c>
 8003a66:	6910      	ldr	r0, [r2, #16]
 8003a68:	f010 0001 	ands.w	r0, r0, #1
 8003a6c:	d1f4      	bne.n	8003a58 <USB_CoreReset+0x2c>
 8003a6e:	b002      	add	sp, #8
 8003a70:	4770      	bx	lr
 8003a72:	9b01      	ldr	r3, [sp, #4]
 8003a74:	3b01      	subs	r3, #1
 8003a76:	e7e8      	b.n	8003a4a <USB_CoreReset+0x1e>
 8003a78:	2003      	movs	r0, #3
 8003a7a:	e7f8      	b.n	8003a6e <USB_CoreReset+0x42>

08003a7c <USB_CoreInit>:
 8003a7c:	b084      	sub	sp, #16
 8003a7e:	b538      	push	{r3, r4, r5, lr}
 8003a80:	ad05      	add	r5, sp, #20
 8003a82:	e885 000e 	stmia.w	r5, {r1, r2, r3}
 8003a86:	f89d 3019 	ldrb.w	r3, [sp, #25]
 8003a8a:	2b01      	cmp	r3, #1
 8003a8c:	4604      	mov	r4, r0
 8003a8e:	d127      	bne.n	8003ae0 <USB_CoreInit+0x64>
 8003a90:	6b83      	ldr	r3, [r0, #56]	@ 0x38
 8003a92:	f423 3380 	bic.w	r3, r3, #65536	@ 0x10000
 8003a96:	6383      	str	r3, [r0, #56]	@ 0x38
 8003a98:	68c3      	ldr	r3, [r0, #12]
 8003a9a:	f423 0384 	bic.w	r3, r3, #4325376	@ 0x420000
 8003a9e:	f023 0340 	bic.w	r3, r3, #64	@ 0x40
 8003aa2:	60c3      	str	r3, [r0, #12]
 8003aa4:	68c3      	ldr	r3, [r0, #12]
 8003aa6:	f423 1340 	bic.w	r3, r3, #3145728	@ 0x300000
 8003aaa:	60c3      	str	r3, [r0, #12]
 8003aac:	f89d 3020 	ldrb.w	r3, [sp, #32]
 8003ab0:	2b01      	cmp	r3, #1
 8003ab2:	bf02      	ittt	eq
 8003ab4:	68c3      	ldreq	r3, [r0, #12]
 8003ab6:	f443 1380 	orreq.w	r3, r3, #1048576	@ 0x100000
 8003aba:	60c3      	streq	r3, [r0, #12]
 8003abc:	f7ff ffb6 	bl	8003a2c <USB_CoreReset>
 8003ac0:	f89d 3016 	ldrb.w	r3, [sp, #22]
 8003ac4:	2b01      	cmp	r3, #1
 8003ac6:	d107      	bne.n	8003ad8 <USB_CoreInit+0x5c>
 8003ac8:	68a3      	ldr	r3, [r4, #8]
 8003aca:	f043 0306 	orr.w	r3, r3, #6
 8003ace:	60a3      	str	r3, [r4, #8]
 8003ad0:	68a3      	ldr	r3, [r4, #8]
 8003ad2:	f043 0320 	orr.w	r3, r3, #32
 8003ad6:	60a3      	str	r3, [r4, #8]
 8003ad8:	e8bd 4038 	ldmia.w	sp!, {r3, r4, r5, lr}
 8003adc:	b004      	add	sp, #16
 8003ade:	4770      	bx	lr
 8003ae0:	68c3      	ldr	r3, [r0, #12]
 8003ae2:	f043 0340 	orr.w	r3, r3, #64	@ 0x40
 8003ae6:	60c3      	str	r3, [r0, #12]
 8003ae8:	f7ff ffa0 	bl	8003a2c <USB_CoreReset>
 8003aec:	f89d 301d 	ldrb.w	r3, [sp, #29]
 8003af0:	b923      	cbnz	r3, 8003afc <USB_CoreInit+0x80>
 8003af2:	6ba3      	ldr	r3, [r4, #56]	@ 0x38
 8003af4:	f443 3380 	orr.w	r3, r3, #65536	@ 0x10000
 8003af8:	63a3      	str	r3, [r4, #56]	@ 0x38
 8003afa:	e7e1      	b.n	8003ac0 <USB_CoreInit+0x44>
 8003afc:	6ba3      	ldr	r3, [r4, #56]	@ 0x38
 8003afe:	f423 3380 	bic.w	r3, r3, #65536	@ 0x10000
 8003b02:	e7f9      	b.n	8003af8 <USB_CoreInit+0x7c>

08003b04 <USB_SetTurnaroundTime>:
 8003b04:	2a02      	cmp	r2, #2
 8003b06:	d14a      	bne.n	8003b9e <USB_SetTurnaroundTime+0x9a>
 8003b08:	4b27      	ldr	r3, [pc, #156]	@ (8003ba8 <USB_SetTurnaroundTime+0xa4>)
 8003b0a:	4a28      	ldr	r2, [pc, #160]	@ (8003bac <USB_SetTurnaroundTime+0xa8>)
 8003b0c:	440b      	add	r3, r1
 8003b0e:	4293      	cmp	r3, r2
 8003b10:	d939      	bls.n	8003b86 <USB_SetTurnaroundTime+0x82>
 8003b12:	4b27      	ldr	r3, [pc, #156]	@ (8003bb0 <USB_SetTurnaroundTime+0xac>)
 8003b14:	4a27      	ldr	r2, [pc, #156]	@ (8003bb4 <USB_SetTurnaroundTime+0xb0>)
 8003b16:	440b      	add	r3, r1
 8003b18:	4293      	cmp	r3, r2
 8003b1a:	d936      	bls.n	8003b8a <USB_SetTurnaroundTime+0x86>
 8003b1c:	4a26      	ldr	r2, [pc, #152]	@ (8003bb8 <USB_SetTurnaroundTime+0xb4>)
 8003b1e:	f5a1 0374 	sub.w	r3, r1, #15990784	@ 0xf40000
 8003b22:	f5a3 5310 	sub.w	r3, r3, #9216	@ 0x2400
 8003b26:	4293      	cmp	r3, r2
 8003b28:	d931      	bls.n	8003b8e <USB_SetTurnaroundTime+0x8a>
 8003b2a:	4a24      	ldr	r2, [pc, #144]	@ (8003bbc <USB_SetTurnaroundTime+0xb8>)
 8003b2c:	f1a1 7383 	sub.w	r3, r1, #17170432	@ 0x1060000
 8003b30:	f5a3 43e7 	sub.w	r3, r3, #29568	@ 0x7380
 8003b34:	4293      	cmp	r3, r2
 8003b36:	d32c      	bcc.n	8003b92 <USB_SetTurnaroundTime+0x8e>
 8003b38:	4b21      	ldr	r3, [pc, #132]	@ (8003bc0 <USB_SetTurnaroundTime+0xbc>)
 8003b3a:	4a22      	ldr	r2, [pc, #136]	@ (8003bc4 <USB_SetTurnaroundTime+0xc0>)
 8003b3c:	440b      	add	r3, r1
 8003b3e:	4293      	cmp	r3, r2
 8003b40:	d929      	bls.n	8003b96 <USB_SetTurnaroundTime+0x92>
 8003b42:	4b21      	ldr	r3, [pc, #132]	@ (8003bc8 <USB_SetTurnaroundTime+0xc4>)
 8003b44:	4a21      	ldr	r2, [pc, #132]	@ (8003bcc <USB_SetTurnaroundTime+0xc8>)
 8003b46:	440b      	add	r3, r1
 8003b48:	4293      	cmp	r3, r2
 8003b4a:	d326      	bcc.n	8003b9a <USB_SetTurnaroundTime+0x96>
 8003b4c:	4b20      	ldr	r3, [pc, #128]	@ (8003bd0 <USB_SetTurnaroundTime+0xcc>)
 8003b4e:	4a21      	ldr	r2, [pc, #132]	@ (8003bd4 <USB_SetTurnaroundTime+0xd0>)
 8003b50:	440b      	add	r3, r1
 8003b52:	4293      	cmp	r3, r2
 8003b54:	d323      	bcc.n	8003b9e <USB_SetTurnaroundTime+0x9a>
 8003b56:	4a20      	ldr	r2, [pc, #128]	@ (8003bd8 <USB_SetTurnaroundTime+0xd4>)
 8003b58:	f1a1 73b7 	sub.w	r3, r1, #23986176	@ 0x16e0000
 8003b5c:	f5a3 5358 	sub.w	r3, r3, #13824	@ 0x3600
 8003b60:	4293      	cmp	r3, r2
 8003b62:	d31e      	bcc.n	8003ba2 <USB_SetTurnaroundTime+0x9e>
 8003b64:	4b1d      	ldr	r3, [pc, #116]	@ (8003bdc <USB_SetTurnaroundTime+0xd8>)
 8003b66:	4a1e      	ldr	r2, [pc, #120]	@ (8003be0 <USB_SetTurnaroundTime+0xdc>)
 8003b68:	440b      	add	r3, r1
 8003b6a:	4293      	cmp	r3, r2
 8003b6c:	bf2c      	ite	cs
 8003b6e:	2306      	movcs	r3, #6
 8003b70:	2307      	movcc	r3, #7
 8003b72:	68c2      	ldr	r2, [r0, #12]
 8003b74:	f422 5270 	bic.w	r2, r2, #15360	@ 0x3c00
 8003b78:	60c2      	str	r2, [r0, #12]
 8003b7a:	68c2      	ldr	r2, [r0, #12]
 8003b7c:	ea42 2383 	orr.w	r3, r2, r3, lsl #10
 8003b80:	60c3      	str	r3, [r0, #12]
 8003b82:	2000      	movs	r0, #0
 8003b84:	4770      	bx	lr
 8003b86:	230f      	movs	r3, #15
 8003b88:	e7f3      	b.n	8003b72 <USB_SetTurnaroundTime+0x6e>
 8003b8a:	230e      	movs	r3, #14
 8003b8c:	e7f1      	b.n	8003b72 <USB_SetTurnaroundTime+0x6e>
 8003b8e:	230d      	movs	r3, #13
 8003b90:	e7ef      	b.n	8003b72 <USB_SetTurnaroundTime+0x6e>
 8003b92:	230c      	movs	r3, #12
 8003b94:	e7ed      	b.n	8003b72 <USB_SetTurnaroundTime+0x6e>
 8003b96:	230b      	movs	r3, #11
 8003b98:	e7eb      	b.n	8003b72 <USB_SetTurnaroundTime+0x6e>
 8003b9a:	230a      	movs	r3, #10
 8003b9c:	e7e9      	b.n	8003b72 <USB_SetTurnaroundTime+0x6e>
 8003b9e:	2309      	movs	r3, #9
 8003ba0:	e7e7      	b.n	8003b72 <USB_SetTurnaroundTime+0x6e>
 8003ba2:	2308      	movs	r3, #8
 8003ba4:	e7e5      	b.n	8003b72 <USB_SetTurnaroundTime+0x6e>
 8003ba6:	bf00      	nop
 8003ba8:	ff275340 	.word	0xff275340
 8003bac:	000c34ff 	.word	0x000c34ff
 8003bb0:	ff1b1e40 	.word	0xff1b1e40
 8003bb4:	000f423f 	.word	0x000f423f
 8003bb8:	00124f7f 	.word	0x00124f7f
 8003bbc:	0013d620 	.word	0x0013d620
 8003bc0:	fee5b660 	.word	0xfee5b660
 8003bc4:	0016e35f 	.word	0x0016e35f
 8003bc8:	feced300 	.word	0xfeced300
 8003bcc:	001b7740 	.word	0x001b7740
 8003bd0:	feb35bc0 	.word	0xfeb35bc0
 8003bd4:	002191c0 	.word	0x002191c0
 8003bd8:	00387520 	.word	0x00387520
 8003bdc:	fe5954e0 	.word	0xfe5954e0
 8003be0:	00419ce0 	.word	0x00419ce0

08003be4 <USB_EnableGlobalInt>:
 8003be4:	6883      	ldr	r3, [r0, #8]
 8003be6:	f043 0301 	orr.w	r3, r3, #1
 8003bea:	6083      	str	r3, [r0, #8]
 8003bec:	2000      	movs	r0, #0
 8003bee:	4770      	bx	lr

08003bf0 <USB_DisableGlobalInt>:
 8003bf0:	6883      	ldr	r3, [r0, #8]
 8003bf2:	f023 0301 	bic.w	r3, r3, #1
 8003bf6:	6083      	str	r3, [r0, #8]
 8003bf8:	2000      	movs	r0, #0
 8003bfa:	4770      	bx	lr

08003bfc <USB_SetCurrentMode>:
 8003bfc:	b538      	push	{r3, r4, r5, lr}
 8003bfe:	68c3      	ldr	r3, [r0, #12]
 8003c00:	2901      	cmp	r1, #1
 8003c02:	f023 43c0 	bic.w	r3, r3, #1610612736	@ 0x60000000
 8003c06:	4605      	mov	r5, r0
 8003c08:	460c      	mov	r4, r1
 8003c0a:	60c3      	str	r3, [r0, #12]
 8003c0c:	d114      	bne.n	8003c38 <USB_SetCurrentMode+0x3c>
 8003c0e:	68c3      	ldr	r3, [r0, #12]
 8003c10:	f043 5300 	orr.w	r3, r3, #536870912	@ 0x20000000
 8003c14:	60c3      	str	r3, [r0, #12]
 8003c16:	2400      	movs	r4, #0
 8003c18:	200a      	movs	r0, #10
 8003c1a:	f7fe f9c1 	bl	8001fa0 <HAL_Delay>
 8003c1e:	696b      	ldr	r3, [r5, #20]
 8003c20:	07d9      	lsls	r1, r3, #31
 8003c22:	f104 040a 	add.w	r4, r4, #10
 8003c26:	d402      	bmi.n	8003c2e <USB_SetCurrentMode+0x32>
 8003c28:	2cc8      	cmp	r4, #200	@ 0xc8
 8003c2a:	d1f5      	bne.n	8003c18 <USB_SetCurrentMode+0x1c>
 8003c2c:	24c8      	movs	r4, #200	@ 0xc8
 8003c2e:	f1a4 03c8 	sub.w	r3, r4, #200	@ 0xc8
 8003c32:	4258      	negs	r0, r3
 8003c34:	4158      	adcs	r0, r3
 8003c36:	bd38      	pop	{r3, r4, r5, pc}
 8003c38:	b971      	cbnz	r1, 8003c58 <USB_SetCurrentMode+0x5c>
 8003c3a:	68c3      	ldr	r3, [r0, #12]
 8003c3c:	f043 4380 	orr.w	r3, r3, #1073741824	@ 0x40000000
 8003c40:	60c3      	str	r3, [r0, #12]
 8003c42:	200a      	movs	r0, #10
 8003c44:	f7fe f9ac 	bl	8001fa0 <HAL_Delay>
 8003c48:	696b      	ldr	r3, [r5, #20]
 8003c4a:	07da      	lsls	r2, r3, #31
 8003c4c:	f104 040a 	add.w	r4, r4, #10
 8003c50:	d5ed      	bpl.n	8003c2e <USB_SetCurrentMode+0x32>
 8003c52:	2cc8      	cmp	r4, #200	@ 0xc8
 8003c54:	d1f5      	bne.n	8003c42 <USB_SetCurrentMode+0x46>
 8003c56:	e7e9      	b.n	8003c2c <USB_SetCurrentMode+0x30>
 8003c58:	2001      	movs	r0, #1
 8003c5a:	e7ec      	b.n	8003c36 <USB_SetCurrentMode+0x3a>

08003c5c <USB_FlushTxFifo>:
 8003c5c:	b082      	sub	sp, #8
 8003c5e:	2300      	movs	r3, #0
 8003c60:	4602      	mov	r2, r0
 8003c62:	9301      	str	r3, [sp, #4]
 8003c64:	9b01      	ldr	r3, [sp, #4]
 8003c66:	3301      	adds	r3, #1
 8003c68:	9301      	str	r3, [sp, #4]
 8003c6a:	9b01      	ldr	r3, [sp, #4]
 8003c6c:	f1b3 6f70 	cmp.w	r3, #251658240	@ 0xf000000
 8003c70:	d815      	bhi.n	8003c9e <USB_FlushTxFifo+0x42>
 8003c72:	6913      	ldr	r3, [r2, #16]
 8003c74:	2b00      	cmp	r3, #0
 8003c76:	daf5      	bge.n	8003c64 <USB_FlushTxFifo+0x8>
 8003c78:	0189      	lsls	r1, r1, #6
 8003c7a:	2300      	movs	r3, #0
 8003c7c:	f041 0120 	orr.w	r1, r1, #32
 8003c80:	9301      	str	r3, [sp, #4]
 8003c82:	6111      	str	r1, [r2, #16]
 8003c84:	9b01      	ldr	r3, [sp, #4]
 8003c86:	3301      	adds	r3, #1
 8003c88:	9301      	str	r3, [sp, #4]
 8003c8a:	9b01      	ldr	r3, [sp, #4]
 8003c8c:	f1b3 6f70 	cmp.w	r3, #251658240	@ 0xf000000
 8003c90:	d805      	bhi.n	8003c9e <USB_FlushTxFifo+0x42>
 8003c92:	6910      	ldr	r0, [r2, #16]
 8003c94:	f010 0020 	ands.w	r0, r0, #32
 8003c98:	d1f4      	bne.n	8003c84 <USB_FlushTxFifo+0x28>
 8003c9a:	b002      	add	sp, #8
 8003c9c:	4770      	bx	lr
 8003c9e:	2003      	movs	r0, #3
 8003ca0:	e7fb      	b.n	8003c9a <USB_FlushTxFifo+0x3e>

08003ca2 <USB_FlushRxFifo>:
 8003ca2:	b082      	sub	sp, #8
 8003ca4:	2300      	movs	r3, #0
 8003ca6:	4602      	mov	r2, r0
 8003ca8:	9301      	str	r3, [sp, #4]
 8003caa:	9b01      	ldr	r3, [sp, #4]
 8003cac:	3301      	adds	r3, #1
 8003cae:	9301      	str	r3, [sp, #4]
 8003cb0:	9b01      	ldr	r3, [sp, #4]
 8003cb2:	f1b3 6f70 	cmp.w	r3, #251658240	@ 0xf000000
 8003cb6:	d813      	bhi.n	8003ce0 <USB_FlushRxFifo+0x3e>
 8003cb8:	6913      	ldr	r3, [r2, #16]
 8003cba:	2b00      	cmp	r3, #0
 8003cbc:	daf5      	bge.n	8003caa <USB_FlushRxFifo+0x8>
 8003cbe:	2300      	movs	r3, #0
 8003cc0:	9301      	str	r3, [sp, #4]
 8003cc2:	2310      	movs	r3, #16
 8003cc4:	6113      	str	r3, [r2, #16]
 8003cc6:	9b01      	ldr	r3, [sp, #4]
 8003cc8:	3301      	adds	r3, #1
 8003cca:	9301      	str	r3, [sp, #4]
 8003ccc:	9b01      	ldr	r3, [sp, #4]
 8003cce:	f1b3 6f70 	cmp.w	r3, #251658240	@ 0xf000000
 8003cd2:	d805      	bhi.n	8003ce0 <USB_FlushRxFifo+0x3e>
 8003cd4:	6910      	ldr	r0, [r2, #16]
 8003cd6:	f010 0010 	ands.w	r0, r0, #16
 8003cda:	d1f4      	bne.n	8003cc6 <USB_FlushRxFifo+0x24>
 8003cdc:	b002      	add	sp, #8
 8003cde:	4770      	bx	lr
 8003ce0:	2003      	movs	r0, #3
 8003ce2:	e7fb      	b.n	8003cdc <USB_FlushRxFifo+0x3a>

08003ce4 <USB_SetDevSpeed>:
 8003ce4:	f8d0 3800 	ldr.w	r3, [r0, #2048]	@ 0x800
 8003ce8:	4319      	orrs	r1, r3
 8003cea:	f8c0 1800 	str.w	r1, [r0, #2048]	@ 0x800
 8003cee:	2000      	movs	r0, #0
 8003cf0:	4770      	bx	lr
	...

08003cf4 <USB_DevInit>:
 8003cf4:	b084      	sub	sp, #16
 8003cf6:	e92d 43f8 	stmdb	sp!, {r3, r4, r5, r6, r7, r8, r9, lr}
 8003cfa:	4604      	mov	r4, r0
 8003cfc:	a809      	add	r0, sp, #36	@ 0x24
 8003cfe:	e880 000e 	stmia.w	r0, {r1, r2, r3}
 8003d02:	2300      	movs	r3, #0
 8003d04:	f89d 6024 	ldrb.w	r6, [sp, #36]	@ 0x24
 8003d08:	f89d 502e 	ldrb.w	r5, [sp, #46]	@ 0x2e
 8003d0c:	4619      	mov	r1, r3
 8003d0e:	f103 0240 	add.w	r2, r3, #64	@ 0x40
 8003d12:	eb04 0282 	add.w	r2, r4, r2, lsl #2
 8003d16:	3301      	adds	r3, #1
 8003d18:	2b0f      	cmp	r3, #15
 8003d1a:	6051      	str	r1, [r2, #4]
 8003d1c:	d1f7      	bne.n	8003d0e <USB_DevInit+0x1a>
 8003d1e:	f504 6700 	add.w	r7, r4, #2048	@ 0x800
 8003d22:	2d00      	cmp	r5, #0
 8003d24:	d16c      	bne.n	8003e00 <USB_DevInit+0x10c>
 8003d26:	687b      	ldr	r3, [r7, #4]
 8003d28:	f043 0302 	orr.w	r3, r3, #2
 8003d2c:	607b      	str	r3, [r7, #4]
 8003d2e:	6ba3      	ldr	r3, [r4, #56]	@ 0x38
 8003d30:	f443 1300 	orr.w	r3, r3, #2097152	@ 0x200000
 8003d34:	63a3      	str	r3, [r4, #56]	@ 0x38
 8003d36:	6ba3      	ldr	r3, [r4, #56]	@ 0x38
 8003d38:	f423 2300 	bic.w	r3, r3, #524288	@ 0x80000
 8003d3c:	63a3      	str	r3, [r4, #56]	@ 0x38
 8003d3e:	6ba3      	ldr	r3, [r4, #56]	@ 0x38
 8003d40:	f423 2380 	bic.w	r3, r3, #262144	@ 0x40000
 8003d44:	63a3      	str	r3, [r4, #56]	@ 0x38
 8003d46:	2300      	movs	r3, #0
 8003d48:	f8c4 3e00 	str.w	r3, [r4, #3584]	@ 0xe00
 8003d4c:	f89d 3029 	ldrb.w	r3, [sp, #41]	@ 0x29
 8003d50:	2b01      	cmp	r3, #1
 8003d52:	d15f      	bne.n	8003e14 <USB_DevInit+0x120>
 8003d54:	f89d 1027 	ldrb.w	r1, [sp, #39]	@ 0x27
 8003d58:	2900      	cmp	r1, #0
 8003d5a:	d159      	bne.n	8003e10 <USB_DevInit+0x11c>
 8003d5c:	4620      	mov	r0, r4
 8003d5e:	f7ff ffc1 	bl	8003ce4 <USB_SetDevSpeed>
 8003d62:	2110      	movs	r1, #16
 8003d64:	4620      	mov	r0, r4
 8003d66:	f7ff ff79 	bl	8003c5c <USB_FlushTxFifo>
 8003d6a:	4601      	mov	r1, r0
 8003d6c:	4620      	mov	r0, r4
 8003d6e:	f7ff ff98 	bl	8003ca2 <USB_FlushRxFifo>
 8003d72:	4308      	orrs	r0, r1
 8003d74:	b2c0      	uxtb	r0, r0
 8003d76:	2300      	movs	r3, #0
 8003d78:	3800      	subs	r0, #0
 8003d7a:	613b      	str	r3, [r7, #16]
 8003d7c:	bf18      	it	ne
 8003d7e:	2001      	movne	r0, #1
 8003d80:	617b      	str	r3, [r7, #20]
 8003d82:	f504 6210 	add.w	r2, r4, #2304	@ 0x900
 8003d86:	61fb      	str	r3, [r7, #28]
 8003d88:	4619      	mov	r1, r3
 8003d8a:	f04f 4c90 	mov.w	ip, #1207959552	@ 0x48000000
 8003d8e:	f04f 6e00 	mov.w	lr, #134217728	@ 0x8000000
 8003d92:	f64f 387f 	movw	r8, #64383	@ 0xfb7f
 8003d96:	429e      	cmp	r6, r3
 8003d98:	d83e      	bhi.n	8003e18 <USB_DevInit+0x124>
 8003d9a:	2200      	movs	r2, #0
 8003d9c:	f504 6330 	add.w	r3, r4, #2816	@ 0xb00
 8003da0:	4611      	mov	r1, r2
 8003da2:	f04f 4c90 	mov.w	ip, #1207959552	@ 0x48000000
 8003da6:	f04f 6e00 	mov.w	lr, #134217728	@ 0x8000000
 8003daa:	f64f 387f 	movw	r8, #64383	@ 0xfb7f
 8003dae:	4296      	cmp	r6, r2
 8003db0:	d845      	bhi.n	8003e3e <USB_DevInit+0x14a>
 8003db2:	693b      	ldr	r3, [r7, #16]
 8003db4:	f423 7380 	bic.w	r3, r3, #256	@ 0x100
 8003db8:	613b      	str	r3, [r7, #16]
 8003dba:	2300      	movs	r3, #0
 8003dbc:	61a3      	str	r3, [r4, #24]
 8003dbe:	f06f 4380 	mvn.w	r3, #1073741824	@ 0x40000000
 8003dc2:	6163      	str	r3, [r4, #20]
 8003dc4:	f89d 3026 	ldrb.w	r3, [sp, #38]	@ 0x26
 8003dc8:	b91b      	cbnz	r3, 8003dd2 <USB_DevInit+0xde>
 8003dca:	69a3      	ldr	r3, [r4, #24]
 8003dcc:	f043 0310 	orr.w	r3, r3, #16
 8003dd0:	61a3      	str	r3, [r4, #24]
 8003dd2:	69a2      	ldr	r2, [r4, #24]
 8003dd4:	4b23      	ldr	r3, [pc, #140]	@ (8003e64 <USB_DevInit+0x170>)
 8003dd6:	4313      	orrs	r3, r2
 8003dd8:	61a3      	str	r3, [r4, #24]
 8003dda:	f89d 302a 	ldrb.w	r3, [sp, #42]	@ 0x2a
 8003dde:	b11b      	cbz	r3, 8003de8 <USB_DevInit+0xf4>
 8003de0:	69a3      	ldr	r3, [r4, #24]
 8003de2:	f043 0308 	orr.w	r3, r3, #8
 8003de6:	61a3      	str	r3, [r4, #24]
 8003de8:	2d01      	cmp	r5, #1
 8003dea:	bf01      	itttt	eq
 8003dec:	69a3      	ldreq	r3, [r4, #24]
 8003dee:	f043 4380 	orreq.w	r3, r3, #1073741824	@ 0x40000000
 8003df2:	f043 0304 	orreq.w	r3, r3, #4
 8003df6:	61a3      	streq	r3, [r4, #24]
 8003df8:	e8bd 43f8 	ldmia.w	sp!, {r3, r4, r5, r6, r7, r8, r9, lr}
 8003dfc:	b004      	add	sp, #16
 8003dfe:	4770      	bx	lr
 8003e00:	6ba3      	ldr	r3, [r4, #56]	@ 0x38
 8003e02:	f423 1300 	bic.w	r3, r3, #2097152	@ 0x200000
 8003e06:	63a3      	str	r3, [r4, #56]	@ 0x38
 8003e08:	6ba3      	ldr	r3, [r4, #56]	@ 0x38
 8003e0a:	f443 2300 	orr.w	r3, r3, #524288	@ 0x80000
 8003e0e:	e799      	b.n	8003d44 <USB_DevInit+0x50>
 8003e10:	4619      	mov	r1, r3
 8003e12:	e7a3      	b.n	8003d5c <USB_DevInit+0x68>
 8003e14:	2103      	movs	r1, #3
 8003e16:	e7a1      	b.n	8003d5c <USB_DevInit+0x68>
 8003e18:	f8d2 9000 	ldr.w	r9, [r2]
 8003e1c:	f1b9 0f00 	cmp.w	r9, #0
 8003e20:	da0b      	bge.n	8003e3a <USB_DevInit+0x146>
 8003e22:	b93b      	cbnz	r3, 8003e34 <USB_DevInit+0x140>
 8003e24:	f8c2 e000 	str.w	lr, [r2]
 8003e28:	6111      	str	r1, [r2, #16]
 8003e2a:	3301      	adds	r3, #1
 8003e2c:	f8c2 8008 	str.w	r8, [r2, #8]
 8003e30:	3220      	adds	r2, #32
 8003e32:	e7b0      	b.n	8003d96 <USB_DevInit+0xa2>
 8003e34:	f8c2 c000 	str.w	ip, [r2]
 8003e38:	e7f6      	b.n	8003e28 <USB_DevInit+0x134>
 8003e3a:	6011      	str	r1, [r2, #0]
 8003e3c:	e7f4      	b.n	8003e28 <USB_DevInit+0x134>
 8003e3e:	f8d3 9000 	ldr.w	r9, [r3]
 8003e42:	f1b9 0f00 	cmp.w	r9, #0
 8003e46:	da0b      	bge.n	8003e60 <USB_DevInit+0x16c>
 8003e48:	b93a      	cbnz	r2, 8003e5a <USB_DevInit+0x166>
 8003e4a:	f8c3 e000 	str.w	lr, [r3]
 8003e4e:	6119      	str	r1, [r3, #16]
 8003e50:	3201      	adds	r2, #1
 8003e52:	f8c3 8008 	str.w	r8, [r3, #8]
 8003e56:	3320      	adds	r3, #32
 8003e58:	e7a9      	b.n	8003dae <USB_DevInit+0xba>
 8003e5a:	f8c3 c000 	str.w	ip, [r3]
 8003e5e:	e7f6      	b.n	8003e4e <USB_DevInit+0x15a>
 8003e60:	6019      	str	r1, [r3, #0]
 8003e62:	e7f4      	b.n	8003e4e <USB_DevInit+0x15a>
 8003e64:	803c3800 	.word	0x803c3800

08003e68 <USB_GetDevSpeed>:
 8003e68:	f8d0 3808 	ldr.w	r3, [r0, #2056]	@ 0x808
 8003e6c:	f013 0006 	ands.w	r0, r3, #6
 8003e70:	d004      	beq.n	8003e7c <USB_GetDevSpeed+0x14>
 8003e72:	f013 0f02 	tst.w	r3, #2
 8003e76:	bf14      	ite	ne
 8003e78:	2002      	movne	r0, #2
 8003e7a:	200f      	moveq	r0, #15
 8003e7c:	4770      	bx	lr

08003e7e <USB_ActivateEndpoint>:
 8003e7e:	b530      	push	{r4, r5, lr}
 8003e80:	780c      	ldrb	r4, [r1, #0]
 8003e82:	2201      	movs	r2, #1
 8003e84:	f004 050f 	and.w	r5, r4, #15
 8003e88:	40aa      	lsls	r2, r5
 8003e8a:	784d      	ldrb	r5, [r1, #1]
 8003e8c:	2d01      	cmp	r5, #1
 8003e8e:	f500 6300 	add.w	r3, r0, #2048	@ 0x800
 8003e92:	eb00 1044 	add.w	r0, r0, r4, lsl #5
 8003e96:	d119      	bne.n	8003ecc <USB_ActivateEndpoint+0x4e>
 8003e98:	69dd      	ldr	r5, [r3, #28]
 8003e9a:	432a      	orrs	r2, r5
 8003e9c:	61da      	str	r2, [r3, #28]
 8003e9e:	f8d0 3900 	ldr.w	r3, [r0, #2304]	@ 0x900
 8003ea2:	041a      	lsls	r2, r3, #16
 8003ea4:	d410      	bmi.n	8003ec8 <USB_ActivateEndpoint+0x4a>
 8003ea6:	688a      	ldr	r2, [r1, #8]
 8003ea8:	f8d0 5900 	ldr.w	r5, [r0, #2304]	@ 0x900
 8003eac:	f3c2 030a 	ubfx	r3, r2, #0, #11
 8003eb0:	790a      	ldrb	r2, [r1, #4]
 8003eb2:	432b      	orrs	r3, r5
 8003eb4:	ea43 4382 	orr.w	r3, r3, r2, lsl #18
 8003eb8:	ea43 5384 	orr.w	r3, r3, r4, lsl #22
 8003ebc:	f043 5380 	orr.w	r3, r3, #268435456	@ 0x10000000
 8003ec0:	f443 4300 	orr.w	r3, r3, #32768	@ 0x8000
 8003ec4:	f8c0 3900 	str.w	r3, [r0, #2304]	@ 0x900
 8003ec8:	2000      	movs	r0, #0
 8003eca:	bd30      	pop	{r4, r5, pc}
 8003ecc:	69dc      	ldr	r4, [r3, #28]
 8003ece:	ea44 4202 	orr.w	r2, r4, r2, lsl #16
 8003ed2:	61da      	str	r2, [r3, #28]
 8003ed4:	f8d0 3b00 	ldr.w	r3, [r0, #2816]	@ 0xb00
 8003ed8:	041b      	lsls	r3, r3, #16
 8003eda:	d4f5      	bmi.n	8003ec8 <USB_ActivateEndpoint+0x4a>
 8003edc:	688b      	ldr	r3, [r1, #8]
 8003ede:	f8d0 2b00 	ldr.w	r2, [r0, #2816]	@ 0xb00
 8003ee2:	f3c3 030a 	ubfx	r3, r3, #0, #11
 8003ee6:	4313      	orrs	r3, r2
 8003ee8:	790a      	ldrb	r2, [r1, #4]
 8003eea:	ea43 4382 	orr.w	r3, r3, r2, lsl #18
 8003eee:	f043 5380 	orr.w	r3, r3, #268435456	@ 0x10000000
 8003ef2:	f443 4300 	orr.w	r3, r3, #32768	@ 0x8000
 8003ef6:	f8c0 3b00 	str.w	r3, [r0, #2816]	@ 0xb00
 8003efa:	e7e5      	b.n	8003ec8 <USB_ActivateEndpoint+0x4a>

08003efc <USB_DeactivateEndpoint>:
 8003efc:	b510      	push	{r4, lr}
 8003efe:	780a      	ldrb	r2, [r1, #0]
 8003f00:	7849      	ldrb	r1, [r1, #1]
 8003f02:	2901      	cmp	r1, #1
 8003f04:	eb00 1342 	add.w	r3, r0, r2, lsl #5
 8003f08:	f500 6000 	add.w	r0, r0, #2048	@ 0x800
 8003f0c:	f002 020f 	and.w	r2, r2, #15
 8003f10:	d122      	bne.n	8003f58 <USB_DeactivateEndpoint+0x5c>
 8003f12:	f8d3 1900 	ldr.w	r1, [r3, #2304]	@ 0x900
 8003f16:	2900      	cmp	r1, #0
 8003f18:	da0b      	bge.n	8003f32 <USB_DeactivateEndpoint+0x36>
 8003f1a:	f8d3 1900 	ldr.w	r1, [r3, #2304]	@ 0x900
 8003f1e:	f041 6100 	orr.w	r1, r1, #134217728	@ 0x8000000
 8003f22:	f8c3 1900 	str.w	r1, [r3, #2304]	@ 0x900
 8003f26:	f8d3 1900 	ldr.w	r1, [r3, #2304]	@ 0x900
 8003f2a:	f041 4180 	orr.w	r1, r1, #1073741824	@ 0x40000000
 8003f2e:	f8c3 1900 	str.w	r1, [r3, #2304]	@ 0x900
 8003f32:	6bc4      	ldr	r4, [r0, #60]	@ 0x3c
 8003f34:	2101      	movs	r1, #1
 8003f36:	fa01 f202 	lsl.w	r2, r1, r2
 8003f3a:	ea24 0402 	bic.w	r4, r4, r2
 8003f3e:	63c4      	str	r4, [r0, #60]	@ 0x3c
 8003f40:	69c1      	ldr	r1, [r0, #28]
 8003f42:	ea21 0202 	bic.w	r2, r1, r2
 8003f46:	61c2      	str	r2, [r0, #28]
 8003f48:	f8d3 1900 	ldr.w	r1, [r3, #2304]	@ 0x900
 8003f4c:	4a14      	ldr	r2, [pc, #80]	@ (8003fa0 <USB_DeactivateEndpoint+0xa4>)
 8003f4e:	400a      	ands	r2, r1
 8003f50:	f8c3 2900 	str.w	r2, [r3, #2304]	@ 0x900
 8003f54:	2000      	movs	r0, #0
 8003f56:	bd10      	pop	{r4, pc}
 8003f58:	f8d3 1b00 	ldr.w	r1, [r3, #2816]	@ 0xb00
 8003f5c:	2900      	cmp	r1, #0
 8003f5e:	da0b      	bge.n	8003f78 <USB_DeactivateEndpoint+0x7c>
 8003f60:	f8d3 1b00 	ldr.w	r1, [r3, #2816]	@ 0xb00
 8003f64:	f041 6100 	orr.w	r1, r1, #134217728	@ 0x8000000
 8003f68:	f8c3 1b00 	str.w	r1, [r3, #2816]	@ 0xb00
 8003f6c:	f8d3 1b00 	ldr.w	r1, [r3, #2816]	@ 0xb00
 8003f70:	f041 4180 	orr.w	r1, r1, #1073741824	@ 0x40000000
 8003f74:	f8c3 1b00 	str.w	r1, [r3, #2816]	@ 0xb00
 8003f78:	6bc4      	ldr	r4, [r0, #60]	@ 0x3c
 8003f7a:	f44f 3180 	mov.w	r1, #65536	@ 0x10000
 8003f7e:	fa01 f202 	lsl.w	r2, r1, r2
 8003f82:	ea24 0402 	bic.w	r4, r4, r2
 8003f86:	63c4      	str	r4, [r0, #60]	@ 0x3c
 8003f88:	69c1      	ldr	r1, [r0, #28]
 8003f8a:	ea21 0202 	bic.w	r2, r1, r2
 8003f8e:	61c2      	str	r2, [r0, #28]
 8003f90:	f8d3 1b00 	ldr.w	r1, [r3, #2816]	@ 0xb00
 8003f94:	4a03      	ldr	r2, [pc, #12]	@ (8003fa4 <USB_DeactivateEndpoint+0xa8>)
 8003f96:	400a      	ands	r2, r1
 8003f98:	f8c3 2b00 	str.w	r2, [r3, #2816]	@ 0xb00
 8003f9c:	e7da      	b.n	8003f54 <USB_DeactivateEndpoint+0x58>
 8003f9e:	bf00      	nop
 8003fa0:	ec337800 	.word	0xec337800
 8003fa4:	eff37800 	.word	0xeff37800

08003fa8 <USB_EPStopXfer>:
 8003fa8:	b082      	sub	sp, #8
 8003faa:	2300      	movs	r3, #0
 8003fac:	784a      	ldrb	r2, [r1, #1]
 8003fae:	9301      	str	r3, [sp, #4]
 8003fb0:	780b      	ldrb	r3, [r1, #0]
 8003fb2:	2a01      	cmp	r2, #1
 8003fb4:	ea4f 1343 	mov.w	r3, r3, lsl #5
 8003fb8:	d11e      	bne.n	8003ff8 <USB_EPStopXfer+0x50>
 8003fba:	f500 6010 	add.w	r0, r0, #2304	@ 0x900
 8003fbe:	18c1      	adds	r1, r0, r3
 8003fc0:	58c2      	ldr	r2, [r0, r3]
 8003fc2:	2a00      	cmp	r2, #0
 8003fc4:	db02      	blt.n	8003fcc <USB_EPStopXfer+0x24>
 8003fc6:	2000      	movs	r0, #0
 8003fc8:	b002      	add	sp, #8
 8003fca:	4770      	bx	lr
 8003fcc:	58c2      	ldr	r2, [r0, r3]
 8003fce:	f042 6200 	orr.w	r2, r2, #134217728	@ 0x8000000
 8003fd2:	50c2      	str	r2, [r0, r3]
 8003fd4:	58c2      	ldr	r2, [r0, r3]
 8003fd6:	f042 4280 	orr.w	r2, r2, #1073741824	@ 0x40000000
 8003fda:	50c2      	str	r2, [r0, r3]
 8003fdc:	f242 7210 	movw	r2, #10000	@ 0x2710
 8003fe0:	9b01      	ldr	r3, [sp, #4]
 8003fe2:	3301      	adds	r3, #1
 8003fe4:	9301      	str	r3, [sp, #4]
 8003fe6:	9b01      	ldr	r3, [sp, #4]
 8003fe8:	4293      	cmp	r3, r2
 8003fea:	d901      	bls.n	8003ff0 <USB_EPStopXfer+0x48>
 8003fec:	2001      	movs	r0, #1
 8003fee:	e7eb      	b.n	8003fc8 <USB_EPStopXfer+0x20>
 8003ff0:	680b      	ldr	r3, [r1, #0]
 8003ff2:	2b00      	cmp	r3, #0
 8003ff4:	dbf4      	blt.n	8003fe0 <USB_EPStopXfer+0x38>
 8003ff6:	e7e6      	b.n	8003fc6 <USB_EPStopXfer+0x1e>
 8003ff8:	f500 6030 	add.w	r0, r0, #2816	@ 0xb00
 8003ffc:	18c1      	adds	r1, r0, r3
 8003ffe:	58c2      	ldr	r2, [r0, r3]
 8004000:	2a00      	cmp	r2, #0
 8004002:	dae0      	bge.n	8003fc6 <USB_EPStopXfer+0x1e>
 8004004:	58c2      	ldr	r2, [r0, r3]
 8004006:	f042 6200 	orr.w	r2, r2, #134217728	@ 0x8000000
 800400a:	50c2      	str	r2, [r0, r3]
 800400c:	58c2      	ldr	r2, [r0, r3]
 800400e:	f042 4280 	orr.w	r2, r2, #1073741824	@ 0x40000000
 8004012:	50c2      	str	r2, [r0, r3]
 8004014:	f242 7210 	movw	r2, #10000	@ 0x2710
 8004018:	9b01      	ldr	r3, [sp, #4]
 800401a:	3301      	adds	r3, #1
 800401c:	9301      	str	r3, [sp, #4]
 800401e:	9b01      	ldr	r3, [sp, #4]
 8004020:	4293      	cmp	r3, r2
 8004022:	d8e3      	bhi.n	8003fec <USB_EPStopXfer+0x44>
 8004024:	680b      	ldr	r3, [r1, #0]
 8004026:	2b00      	cmp	r3, #0
 8004028:	dbf6      	blt.n	8004018 <USB_EPStopXfer+0x70>
 800402a:	e7cc      	b.n	8003fc6 <USB_EPStopXfer+0x1e>

0800402c <USB_WritePacket>:
 800402c:	b510      	push	{r4, lr}
 800402e:	f89d 4008 	ldrb.w	r4, [sp, #8]
 8004032:	b944      	cbnz	r4, 8004046 <USB_WritePacket+0x1a>
 8004034:	3303      	adds	r3, #3
 8004036:	3201      	adds	r2, #1
 8004038:	089b      	lsrs	r3, r3, #2
 800403a:	eb00 3002 	add.w	r0, r0, r2, lsl #12
 800403e:	eb01 0383 	add.w	r3, r1, r3, lsl #2
 8004042:	4299      	cmp	r1, r3
 8004044:	d101      	bne.n	800404a <USB_WritePacket+0x1e>
 8004046:	2000      	movs	r0, #0
 8004048:	bd10      	pop	{r4, pc}
 800404a:	f851 2b04 	ldr.w	r2, [r1], #4
 800404e:	6002      	str	r2, [r0, #0]
 8004050:	e7f7      	b.n	8004042 <USB_WritePacket+0x16>
	...

08004054 <USB_EPStartXfer>:
 8004054:	e92d 41f3 	stmdb	sp!, {r0, r1, r4, r5, r6, r7, r8, lr}
 8004058:	784b      	ldrb	r3, [r1, #1]
 800405a:	690c      	ldr	r4, [r1, #16]
 800405c:	790f      	ldrb	r7, [r1, #4]
 800405e:	f8df e1f0 	ldr.w	lr, [pc, #496]	@ 8004250 <USB_EPStartXfer+0x1fc>
 8004062:	f8df 81f0 	ldr.w	r8, [pc, #496]	@ 8004254 <USB_EPStartXfer+0x200>
 8004066:	4616      	mov	r6, r2
 8004068:	780a      	ldrb	r2, [r1, #0]
 800406a:	2b01      	cmp	r3, #1
 800406c:	eb00 1542 	add.w	r5, r0, r2, lsl #5
 8004070:	f040 8097 	bne.w	80041a2 <USB_EPStartXfer+0x14e>
 8004074:	f505 6c10 	add.w	ip, r5, #2304	@ 0x900
 8004078:	f8dc 3010 	ldr.w	r3, [ip, #16]
 800407c:	bb74      	cbnz	r4, 80040dc <USB_EPStartXfer+0x88>
 800407e:	ea03 030e 	and.w	r3, r3, lr
 8004082:	f8cc 3010 	str.w	r3, [ip, #16]
 8004086:	f8dc 3010 	ldr.w	r3, [ip, #16]
 800408a:	f443 2300 	orr.w	r3, r3, #524288	@ 0x80000
 800408e:	f8cc 3010 	str.w	r3, [ip, #16]
 8004092:	f8dc 3010 	ldr.w	r3, [ip, #16]
 8004096:	ea03 0308 	and.w	r3, r3, r8
 800409a:	2e01      	cmp	r6, #1
 800409c:	f8cc 3010 	str.w	r3, [ip, #16]
 80040a0:	d157      	bne.n	8004152 <USB_EPStartXfer+0xfe>
 80040a2:	69cb      	ldr	r3, [r1, #28]
 80040a4:	b10b      	cbz	r3, 80040aa <USB_EPStartXfer+0x56>
 80040a6:	f8cc 3014 	str.w	r3, [ip, #20]
 80040aa:	2f01      	cmp	r7, #1
 80040ac:	d10c      	bne.n	80040c8 <USB_EPStartXfer+0x74>
 80040ae:	f8d0 3808 	ldr.w	r3, [r0, #2056]	@ 0x808
 80040b2:	f413 7f80 	tst.w	r3, #256	@ 0x100
 80040b6:	f8d5 3900 	ldr.w	r3, [r5, #2304]	@ 0x900
 80040ba:	bf0c      	ite	eq
 80040bc:	f043 5300 	orreq.w	r3, r3, #536870912	@ 0x20000000
 80040c0:	f043 5380 	orrne.w	r3, r3, #268435456	@ 0x10000000
 80040c4:	f8c5 3900 	str.w	r3, [r5, #2304]	@ 0x900
 80040c8:	f8d5 3900 	ldr.w	r3, [r5, #2304]	@ 0x900
 80040cc:	f043 4304 	orr.w	r3, r3, #2214592512	@ 0x84000000
 80040d0:	f8c5 3900 	str.w	r3, [r5, #2304]	@ 0x900
 80040d4:	2000      	movs	r0, #0
 80040d6:	b002      	add	sp, #8
 80040d8:	e8bd 81f0 	ldmia.w	sp!, {r4, r5, r6, r7, r8, pc}
 80040dc:	ea03 0308 	and.w	r3, r3, r8
 80040e0:	f8cc 3010 	str.w	r3, [ip, #16]
 80040e4:	f8dc 3010 	ldr.w	r3, [ip, #16]
 80040e8:	ea03 030e 	and.w	r3, r3, lr
 80040ec:	f8cc 3010 	str.w	r3, [ip, #16]
 80040f0:	688b      	ldr	r3, [r1, #8]
 80040f2:	b97a      	cbnz	r2, 8004114 <USB_EPStartXfer+0xc0>
 80040f4:	42a3      	cmp	r3, r4
 80040f6:	bf38      	it	cc
 80040f8:	610b      	strcc	r3, [r1, #16]
 80040fa:	f8dc 3010 	ldr.w	r3, [ip, #16]
 80040fe:	f443 2300 	orr.w	r3, r3, #524288	@ 0x80000
 8004102:	f8cc 3010 	str.w	r3, [ip, #16]
 8004106:	690b      	ldr	r3, [r1, #16]
 8004108:	f8dc 4010 	ldr.w	r4, [ip, #16]
 800410c:	f3c3 0312 	ubfx	r3, r3, #0, #19
 8004110:	4323      	orrs	r3, r4
 8004112:	e7c2      	b.n	800409a <USB_EPStartXfer+0x46>
 8004114:	441c      	add	r4, r3
 8004116:	3c01      	subs	r4, #1
 8004118:	fbb4 f4f3 	udiv	r4, r4, r3
 800411c:	4b4b      	ldr	r3, [pc, #300]	@ (800424c <USB_EPStartXfer+0x1f8>)
 800411e:	f8dc e010 	ldr.w	lr, [ip, #16]
 8004122:	fa1f f884 	uxth.w	r8, r4
 8004126:	ea03 44c4 	and.w	r4, r3, r4, lsl #19
 800412a:	ea44 040e 	orr.w	r4, r4, lr
 800412e:	2f01      	cmp	r7, #1
 8004130:	f8cc 4010 	str.w	r4, [ip, #16]
 8004134:	d1e7      	bne.n	8004106 <USB_EPStartXfer+0xb2>
 8004136:	f8dc 3010 	ldr.w	r3, [ip, #16]
 800413a:	f023 43c0 	bic.w	r3, r3, #1610612736	@ 0x60000000
 800413e:	f8cc 3010 	str.w	r3, [ip, #16]
 8004142:	f8dc 4010 	ldr.w	r4, [ip, #16]
 8004146:	ea4f 7348 	mov.w	r3, r8, lsl #29
 800414a:	f003 43c0 	and.w	r3, r3, #1610612736	@ 0x60000000
 800414e:	4323      	orrs	r3, r4
 8004150:	e7d7      	b.n	8004102 <USB_EPStartXfer+0xae>
 8004152:	f8d5 3900 	ldr.w	r3, [r5, #2304]	@ 0x900
 8004156:	2f01      	cmp	r7, #1
 8004158:	f043 4304 	orr.w	r3, r3, #2214592512	@ 0x84000000
 800415c:	f8c5 3900 	str.w	r3, [r5, #2304]	@ 0x900
 8004160:	690b      	ldr	r3, [r1, #16]
 8004162:	d00b      	beq.n	800417c <USB_EPStartXfer+0x128>
 8004164:	2b00      	cmp	r3, #0
 8004166:	d0b5      	beq.n	80040d4 <USB_EPStartXfer+0x80>
 8004168:	f8d0 1834 	ldr.w	r1, [r0, #2100]	@ 0x834
 800416c:	f002 020f 	and.w	r2, r2, #15
 8004170:	2301      	movs	r3, #1
 8004172:	4093      	lsls	r3, r2
 8004174:	430b      	orrs	r3, r1
 8004176:	f8c0 3834 	str.w	r3, [r0, #2100]	@ 0x834
 800417a:	e7ab      	b.n	80040d4 <USB_EPStartXfer+0x80>
 800417c:	f8d0 4808 	ldr.w	r4, [r0, #2056]	@ 0x808
 8004180:	f414 7f80 	tst.w	r4, #256	@ 0x100
 8004184:	f8d5 4900 	ldr.w	r4, [r5, #2304]	@ 0x900
 8004188:	bf0c      	ite	eq
 800418a:	f044 5400 	orreq.w	r4, r4, #536870912	@ 0x20000000
 800418e:	f044 5480 	orrne.w	r4, r4, #268435456	@ 0x10000000
 8004192:	f8c5 4900 	str.w	r4, [r5, #2304]	@ 0x900
 8004196:	9600      	str	r6, [sp, #0]
 8004198:	68c9      	ldr	r1, [r1, #12]
 800419a:	b29b      	uxth	r3, r3
 800419c:	f7ff ff46 	bl	800402c <USB_WritePacket>
 80041a0:	e798      	b.n	80040d4 <USB_EPStartXfer+0x80>
 80041a2:	f8d5 3b10 	ldr.w	r3, [r5, #2832]	@ 0xb10
 80041a6:	ea03 0308 	and.w	r3, r3, r8
 80041aa:	f8c5 3b10 	str.w	r3, [r5, #2832]	@ 0xb10
 80041ae:	f8d5 3b10 	ldr.w	r3, [r5, #2832]	@ 0xb10
 80041b2:	ea03 030e 	and.w	r3, r3, lr
 80041b6:	f505 6c30 	add.w	ip, r5, #2816	@ 0xb00
 80041ba:	f8cc 3010 	str.w	r3, [ip, #16]
 80041be:	688b      	ldr	r3, [r1, #8]
 80041c0:	bb5a      	cbnz	r2, 800421a <USB_EPStartXfer+0x1c6>
 80041c2:	b104      	cbz	r4, 80041c6 <USB_EPStartXfer+0x172>
 80041c4:	610b      	str	r3, [r1, #16]
 80041c6:	620b      	str	r3, [r1, #32]
 80041c8:	f8dc 2010 	ldr.w	r2, [ip, #16]
 80041cc:	f3c3 0312 	ubfx	r3, r3, #0, #19
 80041d0:	4313      	orrs	r3, r2
 80041d2:	f8cc 3010 	str.w	r3, [ip, #16]
 80041d6:	f8dc 3010 	ldr.w	r3, [ip, #16]
 80041da:	f443 2300 	orr.w	r3, r3, #524288	@ 0x80000
 80041de:	2e01      	cmp	r6, #1
 80041e0:	f8cc 3010 	str.w	r3, [ip, #16]
 80041e4:	d103      	bne.n	80041ee <USB_EPStartXfer+0x19a>
 80041e6:	68cb      	ldr	r3, [r1, #12]
 80041e8:	b10b      	cbz	r3, 80041ee <USB_EPStartXfer+0x19a>
 80041ea:	f8cc 3014 	str.w	r3, [ip, #20]
 80041ee:	2f01      	cmp	r7, #1
 80041f0:	d10c      	bne.n	800420c <USB_EPStartXfer+0x1b8>
 80041f2:	f8d0 3808 	ldr.w	r3, [r0, #2056]	@ 0x808
 80041f6:	f413 7f80 	tst.w	r3, #256	@ 0x100
 80041fa:	f8d5 3b00 	ldr.w	r3, [r5, #2816]	@ 0xb00
 80041fe:	bf0c      	ite	eq
 8004200:	f043 5300 	orreq.w	r3, r3, #536870912	@ 0x20000000
 8004204:	f043 5380 	orrne.w	r3, r3, #268435456	@ 0x10000000
 8004208:	f8c5 3b00 	str.w	r3, [r5, #2816]	@ 0xb00
 800420c:	f8d5 3b00 	ldr.w	r3, [r5, #2816]	@ 0xb00
 8004210:	f043 4304 	orr.w	r3, r3, #2214592512	@ 0x84000000
 8004214:	f8c5 3b00 	str.w	r3, [r5, #2816]	@ 0xb00
 8004218:	e75c      	b.n	80040d4 <USB_EPStartXfer+0x80>
 800421a:	2c00      	cmp	r4, #0
 800421c:	d0d4      	beq.n	80041c8 <USB_EPStartXfer+0x174>
 800421e:	441c      	add	r4, r3
 8004220:	4a0a      	ldr	r2, [pc, #40]	@ (800424c <USB_EPStartXfer+0x1f8>)
 8004222:	f8dc e010 	ldr.w	lr, [ip, #16]
 8004226:	3c01      	subs	r4, #1
 8004228:	fbb4 f4f3 	udiv	r4, r4, r3
 800422c:	b2a4      	uxth	r4, r4
 800422e:	ea02 42c4 	and.w	r2, r2, r4, lsl #19
 8004232:	4363      	muls	r3, r4
 8004234:	ea42 020e 	orr.w	r2, r2, lr
 8004238:	620b      	str	r3, [r1, #32]
 800423a:	f8cc 2010 	str.w	r2, [ip, #16]
 800423e:	f8dc 2010 	ldr.w	r2, [ip, #16]
 8004242:	f3c3 0312 	ubfx	r3, r3, #0, #19
 8004246:	4313      	orrs	r3, r2
 8004248:	e7c9      	b.n	80041de <USB_EPStartXfer+0x18a>
 800424a:	bf00      	nop
 800424c:	1ff80000 	.word	0x1ff80000
 8004250:	e007ffff 	.word	0xe007ffff
 8004254:	fff80000 	.word	0xfff80000

08004258 <USB_ReadPacket>:
 8004258:	4603      	mov	r3, r0
 800425a:	b570      	push	{r4, r5, r6, lr}
 800425c:	2000      	movs	r0, #0
 800425e:	0894      	lsrs	r4, r2, #2
 8004260:	f503 5580 	add.w	r5, r3, #4096	@ 0x1000
 8004264:	f002 0203 	and.w	r2, r2, #3
 8004268:	42a0      	cmp	r0, r4
 800426a:	d310      	bcc.n	800428e <USB_ReadPacket+0x36>
 800426c:	eb01 0084 	add.w	r0, r1, r4, lsl #2
 8004270:	b162      	cbz	r2, 800428c <USB_ReadPacket+0x34>
 8004272:	f503 5380 	add.w	r3, r3, #4096	@ 0x1000
 8004276:	681c      	ldr	r4, [r3, #0]
 8004278:	2300      	movs	r3, #0
 800427a:	00d9      	lsls	r1, r3, #3
 800427c:	fa24 f101 	lsr.w	r1, r4, r1
 8004280:	54c1      	strb	r1, [r0, r3]
 8004282:	3301      	adds	r3, #1
 8004284:	b299      	uxth	r1, r3
 8004286:	428a      	cmp	r2, r1
 8004288:	d1f7      	bne.n	800427a <USB_ReadPacket+0x22>
 800428a:	4410      	add	r0, r2
 800428c:	bd70      	pop	{r4, r5, r6, pc}
 800428e:	682e      	ldr	r6, [r5, #0]
 8004290:	f841 6020 	str.w	r6, [r1, r0, lsl #2]
 8004294:	3001      	adds	r0, #1
 8004296:	e7e7      	b.n	8004268 <USB_ReadPacket+0x10>

08004298 <USB_EPSetStall>:
 8004298:	784a      	ldrb	r2, [r1, #1]
 800429a:	780b      	ldrb	r3, [r1, #0]
 800429c:	2a01      	cmp	r2, #1
 800429e:	eb00 1043 	add.w	r0, r0, r3, lsl #5
 80042a2:	d112      	bne.n	80042ca <USB_EPSetStall+0x32>
 80042a4:	f8d0 2900 	ldr.w	r2, [r0, #2304]	@ 0x900
 80042a8:	2a00      	cmp	r2, #0
 80042aa:	db06      	blt.n	80042ba <USB_EPSetStall+0x22>
 80042ac:	b12b      	cbz	r3, 80042ba <USB_EPSetStall+0x22>
 80042ae:	f8d0 3900 	ldr.w	r3, [r0, #2304]	@ 0x900
 80042b2:	f023 4380 	bic.w	r3, r3, #1073741824	@ 0x40000000
 80042b6:	f8c0 3900 	str.w	r3, [r0, #2304]	@ 0x900
 80042ba:	f8d0 3900 	ldr.w	r3, [r0, #2304]	@ 0x900
 80042be:	f443 1300 	orr.w	r3, r3, #2097152	@ 0x200000
 80042c2:	f8c0 3900 	str.w	r3, [r0, #2304]	@ 0x900
 80042c6:	2000      	movs	r0, #0
 80042c8:	4770      	bx	lr
 80042ca:	f8d0 2b00 	ldr.w	r2, [r0, #2816]	@ 0xb00
 80042ce:	2a00      	cmp	r2, #0
 80042d0:	db06      	blt.n	80042e0 <USB_EPSetStall+0x48>
 80042d2:	b12b      	cbz	r3, 80042e0 <USB_EPSetStall+0x48>
 80042d4:	f8d0 3b00 	ldr.w	r3, [r0, #2816]	@ 0xb00
 80042d8:	f023 4380 	bic.w	r3, r3, #1073741824	@ 0x40000000
 80042dc:	f8c0 3b00 	str.w	r3, [r0, #2816]	@ 0xb00
 80042e0:	f8d0 3b00 	ldr.w	r3, [r0, #2816]	@ 0xb00
 80042e4:	f443 1300 	orr.w	r3, r3, #2097152	@ 0x200000
 80042e8:	f8c0 3b00 	str.w	r3, [r0, #2816]	@ 0xb00
 80042ec:	e7eb      	b.n	80042c6 <USB_EPSetStall+0x2e>

080042ee <USB_EPClearStall>:
 80042ee:	780b      	ldrb	r3, [r1, #0]
 80042f0:	784a      	ldrb	r2, [r1, #1]
 80042f2:	eb00 1043 	add.w	r0, r0, r3, lsl #5
 80042f6:	790b      	ldrb	r3, [r1, #4]
 80042f8:	2a01      	cmp	r2, #1
 80042fa:	f1a3 0302 	sub.w	r3, r3, #2
 80042fe:	b2db      	uxtb	r3, r3
 8004300:	d10f      	bne.n	8004322 <USB_EPClearStall+0x34>
 8004302:	f8d0 2900 	ldr.w	r2, [r0, #2304]	@ 0x900
 8004306:	2b01      	cmp	r3, #1
 8004308:	f422 1200 	bic.w	r2, r2, #2097152	@ 0x200000
 800430c:	f8c0 2900 	str.w	r2, [r0, #2304]	@ 0x900
 8004310:	d805      	bhi.n	800431e <USB_EPClearStall+0x30>
 8004312:	f8d0 3900 	ldr.w	r3, [r0, #2304]	@ 0x900
 8004316:	f043 5380 	orr.w	r3, r3, #268435456	@ 0x10000000
 800431a:	f8c0 3900 	str.w	r3, [r0, #2304]	@ 0x900
 800431e:	2000      	movs	r0, #0
 8004320:	4770      	bx	lr
 8004322:	f8d0 2b00 	ldr.w	r2, [r0, #2816]	@ 0xb00
 8004326:	f422 1200 	bic.w	r2, r2, #2097152	@ 0x200000
 800432a:	2b01      	cmp	r3, #1
 800432c:	f8c0 2b00 	str.w	r2, [r0, #2816]	@ 0xb00
 8004330:	bf9e      	ittt	ls
 8004332:	f8d0 3b00 	ldrls.w	r3, [r0, #2816]	@ 0xb00
 8004336:	f043 5380 	orrls.w	r3, r3, #268435456	@ 0x10000000
 800433a:	f8c0 3b00 	strls.w	r3, [r0, #2816]	@ 0xb00
 800433e:	e7ee      	b.n	800431e <USB_EPClearStall+0x30>

08004340 <USB_SetDevAddress>:
 8004340:	f8d0 3800 	ldr.w	r3, [r0, #2048]	@ 0x800
 8004344:	f423 63fe 	bic.w	r3, r3, #2032	@ 0x7f0
 8004348:	f8c0 3800 	str.w	r3, [r0, #2048]	@ 0x800
 800434c:	f8d0 3800 	ldr.w	r3, [r0, #2048]	@ 0x800
 8004350:	0109      	lsls	r1, r1, #4
 8004352:	f401 61fe 	and.w	r1, r1, #2032	@ 0x7f0
 8004356:	4319      	orrs	r1, r3
 8004358:	f8c0 1800 	str.w	r1, [r0, #2048]	@ 0x800
 800435c:	2000      	movs	r0, #0
 800435e:	4770      	bx	lr

08004360 <USB_DevConnect>:
 8004360:	f8d0 3e00 	ldr.w	r3, [r0, #3584]	@ 0xe00
 8004364:	f023 0303 	bic.w	r3, r3, #3
 8004368:	f8c0 3e00 	str.w	r3, [r0, #3584]	@ 0xe00
 800436c:	f8d0 3804 	ldr.w	r3, [r0, #2052]	@ 0x804
 8004370:	f023 0302 	bic.w	r3, r3, #2
 8004374:	f8c0 3804 	str.w	r3, [r0, #2052]	@ 0x804
 8004378:	2000      	movs	r0, #0
 800437a:	4770      	bx	lr

0800437c <USB_DevDisconnect>:
 800437c:	f8d0 3e00 	ldr.w	r3, [r0, #3584]	@ 0xe00
 8004380:	f023 0303 	bic.w	r3, r3, #3
 8004384:	f8c0 3e00 	str.w	r3, [r0, #3584]	@ 0xe00
 8004388:	f8d0 3804 	ldr.w	r3, [r0, #2052]	@ 0x804
 800438c:	f043 0302 	orr.w	r3, r3, #2
 8004390:	f8c0 3804 	str.w	r3, [r0, #2052]	@ 0x804
 8004394:	2000      	movs	r0, #0
 8004396:	4770      	bx	lr

08004398 <USB_ReadInterrupts>:
 8004398:	6942      	ldr	r2, [r0, #20]
 800439a:	6980      	ldr	r0, [r0, #24]
 800439c:	4010      	ands	r0, r2
 800439e:	4770      	bx	lr

080043a0 <USB_ReadDevAllOutEpInterrupt>:
 80043a0:	f8d0 3818 	ldr.w	r3, [r0, #2072]	@ 0x818
 80043a4:	f500 6000 	add.w	r0, r0, #2048	@ 0x800
 80043a8:	69c0      	ldr	r0, [r0, #28]
 80043aa:	4018      	ands	r0, r3
 80043ac:	0c00      	lsrs	r0, r0, #16
 80043ae:	4770      	bx	lr

080043b0 <USB_ReadDevAllInEpInterrupt>:
 80043b0:	f8d0 3818 	ldr.w	r3, [r0, #2072]	@ 0x818
 80043b4:	f500 6000 	add.w	r0, r0, #2048	@ 0x800
 80043b8:	69c0      	ldr	r0, [r0, #28]
 80043ba:	4018      	ands	r0, r3
 80043bc:	b280      	uxth	r0, r0
 80043be:	4770      	bx	lr

080043c0 <USB_ReadDevOutEPInterrupt>:
 80043c0:	eb00 1141 	add.w	r1, r0, r1, lsl #5
 80043c4:	f500 6000 	add.w	r0, r0, #2048	@ 0x800
 80043c8:	f8d1 2b08 	ldr.w	r2, [r1, #2824]	@ 0xb08
 80043cc:	6940      	ldr	r0, [r0, #20]
 80043ce:	4010      	ands	r0, r2
 80043d0:	4770      	bx	lr

080043d2 <USB_ReadDevInEPInterrupt>:
 80043d2:	f8d0 2810 	ldr.w	r2, [r0, #2064]	@ 0x810
 80043d6:	f8d0 3834 	ldr.w	r3, [r0, #2100]	@ 0x834
 80043da:	eb00 1041 	add.w	r0, r0, r1, lsl #5
 80043de:	f001 010f 	and.w	r1, r1, #15
 80043e2:	40cb      	lsrs	r3, r1
 80043e4:	f500 6010 	add.w	r0, r0, #2304	@ 0x900
 80043e8:	01db      	lsls	r3, r3, #7
 80043ea:	6880      	ldr	r0, [r0, #8]
 80043ec:	b2db      	uxtb	r3, r3
 80043ee:	4313      	orrs	r3, r2
 80043f0:	4018      	ands	r0, r3
 80043f2:	4770      	bx	lr

080043f4 <USB_GetMode>:
 80043f4:	6940      	ldr	r0, [r0, #20]
 80043f6:	f000 0001 	and.w	r0, r0, #1
 80043fa:	4770      	bx	lr

080043fc <USB_ActivateSetup>:
 80043fc:	f8d0 3900 	ldr.w	r3, [r0, #2304]	@ 0x900
 8004400:	f36f 030a 	bfc	r3, #0, #11
 8004404:	f8c0 3900 	str.w	r3, [r0, #2304]	@ 0x900
 8004408:	f8d0 3804 	ldr.w	r3, [r0, #2052]	@ 0x804
 800440c:	f443 7380 	orr.w	r3, r3, #256	@ 0x100
 8004410:	f8c0 3804 	str.w	r3, [r0, #2052]	@ 0x804
 8004414:	2000      	movs	r0, #0
 8004416:	4770      	bx	lr

08004418 <USB_EP0_OutStart>:
 8004418:	b530      	push	{r4, r5, lr}
 800441a:	6c05      	ldr	r5, [r0, #64]	@ 0x40
 800441c:	4c10      	ldr	r4, [pc, #64]	@ (8004460 <USB_EP0_OutStart+0x48>)
 800441e:	42a5      	cmp	r5, r4
 8004420:	f500 6330 	add.w	r3, r0, #2816	@ 0xb00
 8004424:	d903      	bls.n	800442e <USB_EP0_OutStart+0x16>
 8004426:	f8d0 4b00 	ldr.w	r4, [r0, #2816]	@ 0xb00
 800442a:	2c00      	cmp	r4, #0
 800442c:	db16      	blt.n	800445c <USB_EP0_OutStart+0x44>
 800442e:	2400      	movs	r4, #0
 8004430:	611c      	str	r4, [r3, #16]
 8004432:	691c      	ldr	r4, [r3, #16]
 8004434:	f444 2400 	orr.w	r4, r4, #524288	@ 0x80000
 8004438:	611c      	str	r4, [r3, #16]
 800443a:	691c      	ldr	r4, [r3, #16]
 800443c:	f044 0418 	orr.w	r4, r4, #24
 8004440:	611c      	str	r4, [r3, #16]
 8004442:	691c      	ldr	r4, [r3, #16]
 8004444:	2901      	cmp	r1, #1
 8004446:	f044 44c0 	orr.w	r4, r4, #1610612736	@ 0x60000000
 800444a:	611c      	str	r4, [r3, #16]
 800444c:	bf01      	itttt	eq
 800444e:	615a      	streq	r2, [r3, #20]
 8004450:	f8d0 3b00 	ldreq.w	r3, [r0, #2816]	@ 0xb00
 8004454:	f043 2380 	orreq.w	r3, r3, #2147516416	@ 0x80008000
 8004458:	f8c0 3b00 	streq.w	r3, [r0, #2816]	@ 0xb00
 800445c:	2000      	movs	r0, #0
 800445e:	bd30      	pop	{r4, r5, pc}
 8004460:	4f54300a 	.word	0x4f54300a

08004464 <USBD_CDC_EP0_RxReady>:
 8004464:	f8d0 32d4 	ldr.w	r3, [r0, #724]	@ 0x2d4
 8004468:	eb00 0083 	add.w	r0, r0, r3, lsl #2
 800446c:	b510      	push	{r4, lr}
 800446e:	f8d0 42c0 	ldr.w	r4, [r0, #704]	@ 0x2c0
 8004472:	b18c      	cbz	r4, 8004498 <USBD_CDC_EP0_RxReady+0x34>
 8004474:	f8d0 32c4 	ldr.w	r3, [r0, #708]	@ 0x2c4
 8004478:	b11b      	cbz	r3, 8004482 <USBD_CDC_EP0_RxReady+0x1e>
 800447a:	f894 0200 	ldrb.w	r0, [r4, #512]	@ 0x200
 800447e:	28ff      	cmp	r0, #255	@ 0xff
 8004480:	d101      	bne.n	8004486 <USBD_CDC_EP0_RxReady+0x22>
 8004482:	2000      	movs	r0, #0
 8004484:	bd10      	pop	{r4, pc}
 8004486:	689b      	ldr	r3, [r3, #8]
 8004488:	f894 2201 	ldrb.w	r2, [r4, #513]	@ 0x201
 800448c:	4621      	mov	r1, r4
 800448e:	4798      	blx	r3
 8004490:	23ff      	movs	r3, #255	@ 0xff
 8004492:	f884 3200 	strb.w	r3, [r4, #512]	@ 0x200
 8004496:	e7f4      	b.n	8004482 <USBD_CDC_EP0_RxReady+0x1e>
 8004498:	2003      	movs	r0, #3
 800449a:	e7f3      	b.n	8004484 <USBD_CDC_EP0_RxReady+0x20>

0800449c <USBD_CDC_GetDeviceQualifierDescriptor>:
 800449c:	230a      	movs	r3, #10
 800449e:	8003      	strh	r3, [r0, #0]
 80044a0:	4800      	ldr	r0, [pc, #0]	@ (80044a4 <USBD_CDC_GetDeviceQualifierDescriptor+0x8>)
 80044a2:	4770      	bx	lr
 80044a4:	200003a4 	.word	0x200003a4

080044a8 <USBD_CDC_GetFSCfgDesc>:
 80044a8:	b570      	push	{r4, r5, r6, lr}
 80044aa:	2182      	movs	r1, #130	@ 0x82
 80044ac:	4606      	mov	r6, r0
 80044ae:	480f      	ldr	r0, [pc, #60]	@ (80044ec <USBD_CDC_GetFSCfgDesc+0x44>)
 80044b0:	f000 fb85 	bl	8004bbe <USBD_GetEpDesc>
 80044b4:	2101      	movs	r1, #1
 80044b6:	4605      	mov	r5, r0
 80044b8:	480c      	ldr	r0, [pc, #48]	@ (80044ec <USBD_CDC_GetFSCfgDesc+0x44>)
 80044ba:	f000 fb80 	bl	8004bbe <USBD_GetEpDesc>
 80044be:	2181      	movs	r1, #129	@ 0x81
 80044c0:	4604      	mov	r4, r0
 80044c2:	480a      	ldr	r0, [pc, #40]	@ (80044ec <USBD_CDC_GetFSCfgDesc+0x44>)
 80044c4:	f000 fb7b 	bl	8004bbe <USBD_GetEpDesc>
 80044c8:	b10d      	cbz	r5, 80044ce <USBD_CDC_GetFSCfgDesc+0x26>
 80044ca:	2210      	movs	r2, #16
 80044cc:	71aa      	strb	r2, [r5, #6]
 80044ce:	b11c      	cbz	r4, 80044d8 <USBD_CDC_GetFSCfgDesc+0x30>
 80044d0:	2240      	movs	r2, #64	@ 0x40
 80044d2:	7122      	strb	r2, [r4, #4]
 80044d4:	2200      	movs	r2, #0
 80044d6:	7162      	strb	r2, [r4, #5]
 80044d8:	b118      	cbz	r0, 80044e2 <USBD_CDC_GetFSCfgDesc+0x3a>
 80044da:	2240      	movs	r2, #64	@ 0x40
 80044dc:	7102      	strb	r2, [r0, #4]
 80044de:	2200      	movs	r2, #0
 80044e0:	7142      	strb	r2, [r0, #5]
 80044e2:	2343      	movs	r3, #67	@ 0x43
 80044e4:	4801      	ldr	r0, [pc, #4]	@ (80044ec <USBD_CDC_GetFSCfgDesc+0x44>)
 80044e6:	8033      	strh	r3, [r6, #0]
 80044e8:	bd70      	pop	{r4, r5, r6, pc}
 80044ea:	bf00      	nop
 80044ec:	20000328 	.word	0x20000328

080044f0 <USBD_CDC_GetOtherSpeedCfgDesc>:
 80044f0:	f7ff bfda 	b.w	80044a8 <USBD_CDC_GetFSCfgDesc>

080044f4 <USBD_CDC_GetHSCfgDesc>:
 80044f4:	b570      	push	{r4, r5, r6, lr}
 80044f6:	2182      	movs	r1, #130	@ 0x82
 80044f8:	4606      	mov	r6, r0
 80044fa:	480f      	ldr	r0, [pc, #60]	@ (8004538 <USBD_CDC_GetHSCfgDesc+0x44>)
 80044fc:	f000 fb5f 	bl	8004bbe <USBD_GetEpDesc>
 8004500:	2101      	movs	r1, #1
 8004502:	4605      	mov	r5, r0
 8004504:	480c      	ldr	r0, [pc, #48]	@ (8004538 <USBD_CDC_GetHSCfgDesc+0x44>)
 8004506:	f000 fb5a 	bl	8004bbe <USBD_GetEpDesc>
 800450a:	2181      	movs	r1, #129	@ 0x81
 800450c:	4604      	mov	r4, r0
 800450e:	480a      	ldr	r0, [pc, #40]	@ (8004538 <USBD_CDC_GetHSCfgDesc+0x44>)
 8004510:	f000 fb55 	bl	8004bbe <USBD_GetEpDesc>
 8004514:	b10d      	cbz	r5, 800451a <USBD_CDC_GetHSCfgDesc+0x26>
 8004516:	2210      	movs	r2, #16
 8004518:	71aa      	strb	r2, [r5, #6]
 800451a:	b11c      	cbz	r4, 8004524 <USBD_CDC_GetHSCfgDesc+0x30>
 800451c:	2200      	movs	r2, #0
 800451e:	7122      	strb	r2, [r4, #4]
 8004520:	2202      	movs	r2, #2
 8004522:	7162      	strb	r2, [r4, #5]
 8004524:	b118      	cbz	r0, 800452e <USBD_CDC_GetHSCfgDesc+0x3a>
 8004526:	2200      	movs	r2, #0
 8004528:	7102      	strb	r2, [r0, #4]
 800452a:	2202      	movs	r2, #2
 800452c:	7142      	strb	r2, [r0, #5]
 800452e:	2343      	movs	r3, #67	@ 0x43
 8004530:	4801      	ldr	r0, [pc, #4]	@ (8004538 <USBD_CDC_GetHSCfgDesc+0x44>)
 8004532:	8033      	strh	r3, [r6, #0]
 8004534:	bd70      	pop	{r4, r5, r6, pc}
 8004536:	bf00      	nop
 8004538:	20000328 	.word	0x20000328

0800453c <USBD_CDC_DataOut>:
 800453c:	b538      	push	{r3, r4, r5, lr}
 800453e:	f8d0 32d4 	ldr.w	r3, [r0, #724]	@ 0x2d4
 8004542:	33b0      	adds	r3, #176	@ 0xb0
 8004544:	4604      	mov	r4, r0
 8004546:	f850 5023 	ldr.w	r5, [r0, r3, lsl #2]
 800454a:	b18d      	cbz	r5, 8004570 <USBD_CDC_DataOut+0x34>
 800454c:	f002 fcc6 	bl	8006edc <USBD_LL_GetRxDataSize>
 8004550:	f8d4 32d4 	ldr.w	r3, [r4, #724]	@ 0x2d4
 8004554:	f8c5 020c 	str.w	r0, [r5, #524]	@ 0x20c
 8004558:	eb04 0483 	add.w	r4, r4, r3, lsl #2
 800455c:	f8d5 0204 	ldr.w	r0, [r5, #516]	@ 0x204
 8004560:	f8d4 32c4 	ldr.w	r3, [r4, #708]	@ 0x2c4
 8004564:	f505 7103 	add.w	r1, r5, #524	@ 0x20c
 8004568:	68db      	ldr	r3, [r3, #12]
 800456a:	4798      	blx	r3
 800456c:	2000      	movs	r0, #0
 800456e:	bd38      	pop	{r3, r4, r5, pc}
 8004570:	2003      	movs	r0, #3
 8004572:	e7fc      	b.n	800456e <USBD_CDC_DataOut+0x32>

08004574 <USBD_CDC_DataIn>:
 8004574:	b5f8      	push	{r3, r4, r5, r6, r7, lr}
 8004576:	f8d0 62d4 	ldr.w	r6, [r0, #724]	@ 0x2d4
 800457a:	f8d0 72c8 	ldr.w	r7, [r0, #712]	@ 0x2c8
 800457e:	eb00 0686 	add.w	r6, r0, r6, lsl #2
 8004582:	460a      	mov	r2, r1
 8004584:	f8d6 52c0 	ldr.w	r5, [r6, #704]	@ 0x2c0
 8004588:	b325      	cbz	r5, 80045d4 <USBD_CDC_DataIn+0x60>
 800458a:	f001 0c0f 	and.w	ip, r1, #15
 800458e:	2414      	movs	r4, #20
 8004590:	fb04 040c 	mla	r4, r4, ip, r0
 8004594:	6963      	ldr	r3, [r4, #20]
 8004596:	b17b      	cbz	r3, 80045b8 <USBD_CDC_DataIn+0x44>
 8004598:	f04f 0e24 	mov.w	lr, #36	@ 0x24
 800459c:	fb0e 770c 	mla	r7, lr, ip, r7
 80045a0:	69ff      	ldr	r7, [r7, #28]
 80045a2:	fbb3 fcf7 	udiv	ip, r3, r7
 80045a6:	fb07 331c 	mls	r3, r7, ip, r3
 80045aa:	b92b      	cbnz	r3, 80045b8 <USBD_CDC_DataIn+0x44>
 80045ac:	6163      	str	r3, [r4, #20]
 80045ae:	461a      	mov	r2, r3
 80045b0:	f002 fcdc 	bl	8006f6c <USBD_LL_Transmit>
 80045b4:	2000      	movs	r0, #0
 80045b6:	bdf8      	pop	{r3, r4, r5, r6, r7, pc}
 80045b8:	2300      	movs	r3, #0
 80045ba:	f8c5 3214 	str.w	r3, [r5, #532]	@ 0x214
 80045be:	f8d6 32c4 	ldr.w	r3, [r6, #708]	@ 0x2c4
 80045c2:	691b      	ldr	r3, [r3, #16]
 80045c4:	2b00      	cmp	r3, #0
 80045c6:	d0f5      	beq.n	80045b4 <USBD_CDC_DataIn+0x40>
 80045c8:	f8d5 0208 	ldr.w	r0, [r5, #520]	@ 0x208
 80045cc:	f505 7104 	add.w	r1, r5, #528	@ 0x210
 80045d0:	4798      	blx	r3
 80045d2:	e7ef      	b.n	80045b4 <USBD_CDC_DataIn+0x40>
 80045d4:	2003      	movs	r0, #3
 80045d6:	e7ee      	b.n	80045b6 <USBD_CDC_DataIn+0x42>

080045d8 <USBD_CDC_Setup>:
 80045d8:	f8d0 32d4 	ldr.w	r3, [r0, #724]	@ 0x2d4
 80045dc:	b5f7      	push	{r0, r1, r2, r4, r5, r6, r7, lr}
 80045de:	eb00 0383 	add.w	r3, r0, r3, lsl #2
 80045e2:	2200      	movs	r2, #0
 80045e4:	f8d3 62c0 	ldr.w	r6, [r3, #704]	@ 0x2c0
 80045e8:	f88d 2005 	strb.w	r2, [sp, #5]
 80045ec:	4604      	mov	r4, r0
 80045ee:	460d      	mov	r5, r1
 80045f0:	f8ad 2006 	strh.w	r2, [sp, #6]
 80045f4:	2e00      	cmp	r6, #0
 80045f6:	d065      	beq.n	80046c4 <USBD_CDC_Setup+0xec>
 80045f8:	f891 c000 	ldrb.w	ip, [r1]
 80045fc:	f01c 0260 	ands.w	r2, ip, #96	@ 0x60
 8004600:	d029      	beq.n	8004656 <USBD_CDC_Setup+0x7e>
 8004602:	2a20      	cmp	r2, #32
 8004604:	d15a      	bne.n	80046bc <USBD_CDC_Setup+0xe4>
 8004606:	88ca      	ldrh	r2, [r1, #6]
 8004608:	784f      	ldrb	r7, [r1, #1]
 800460a:	b1f2      	cbz	r2, 800464a <USBD_CDC_Setup+0x72>
 800460c:	f01c 0f80 	tst.w	ip, #128	@ 0x80
 8004610:	d00e      	beq.n	8004630 <USBD_CDC_Setup+0x58>
 8004612:	f8d3 32c4 	ldr.w	r3, [r3, #708]	@ 0x2c4
 8004616:	4631      	mov	r1, r6
 8004618:	689b      	ldr	r3, [r3, #8]
 800461a:	4638      	mov	r0, r7
 800461c:	4798      	blx	r3
 800461e:	88ea      	ldrh	r2, [r5, #6]
 8004620:	2a07      	cmp	r2, #7
 8004622:	bf28      	it	cs
 8004624:	2207      	movcs	r2, #7
 8004626:	4631      	mov	r1, r6
 8004628:	4620      	mov	r0, r4
 800462a:	f000 fd4e 	bl	80050ca <USBD_CtlSendData>
 800462e:	e009      	b.n	8004644 <USBD_CDC_Setup+0x6c>
 8004630:	2a40      	cmp	r2, #64	@ 0x40
 8004632:	bf28      	it	cs
 8004634:	2240      	movcs	r2, #64	@ 0x40
 8004636:	f886 7200 	strb.w	r7, [r6, #512]	@ 0x200
 800463a:	f886 2201 	strb.w	r2, [r6, #513]	@ 0x201
 800463e:	4631      	mov	r1, r6
 8004640:	f000 fd59 	bl	80050f6 <USBD_CtlPrepareRx>
 8004644:	2000      	movs	r0, #0
 8004646:	b003      	add	sp, #12
 8004648:	bdf0      	pop	{r4, r5, r6, r7, pc}
 800464a:	f8d3 32c4 	ldr.w	r3, [r3, #708]	@ 0x2c4
 800464e:	4638      	mov	r0, r7
 8004650:	689b      	ldr	r3, [r3, #8]
 8004652:	4798      	blx	r3
 8004654:	e7f6      	b.n	8004644 <USBD_CDC_Setup+0x6c>
 8004656:	784b      	ldrb	r3, [r1, #1]
 8004658:	2b0b      	cmp	r3, #11
 800465a:	d82f      	bhi.n	80046bc <USBD_CDC_Setup+0xe4>
 800465c:	a201      	add	r2, pc, #4	@ (adr r2, 8004664 <USBD_CDC_Setup+0x8c>)
 800465e:	f852 f023 	ldr.w	pc, [r2, r3, lsl #2]
 8004662:	bf00      	nop
 8004664:	08004695 	.word	0x08004695
 8004668:	08004645 	.word	0x08004645
 800466c:	080046bd 	.word	0x080046bd
 8004670:	080046bd 	.word	0x080046bd
 8004674:	080046bd 	.word	0x080046bd
 8004678:	080046bd 	.word	0x080046bd
 800467c:	080046bd 	.word	0x080046bd
 8004680:	080046bd 	.word	0x080046bd
 8004684:	080046bd 	.word	0x080046bd
 8004688:	080046bd 	.word	0x080046bd
 800468c:	080046a5 	.word	0x080046a5
 8004690:	080046b5 	.word	0x080046b5
 8004694:	f890 329c 	ldrb.w	r3, [r0, #668]	@ 0x29c
 8004698:	2b03      	cmp	r3, #3
 800469a:	d10f      	bne.n	80046bc <USBD_CDC_Setup+0xe4>
 800469c:	2202      	movs	r2, #2
 800469e:	f10d 0106 	add.w	r1, sp, #6
 80046a2:	e7c1      	b.n	8004628 <USBD_CDC_Setup+0x50>
 80046a4:	f890 329c 	ldrb.w	r3, [r0, #668]	@ 0x29c
 80046a8:	2b03      	cmp	r3, #3
 80046aa:	d107      	bne.n	80046bc <USBD_CDC_Setup+0xe4>
 80046ac:	2201      	movs	r2, #1
 80046ae:	f10d 0105 	add.w	r1, sp, #5
 80046b2:	e7b9      	b.n	8004628 <USBD_CDC_Setup+0x50>
 80046b4:	f890 329c 	ldrb.w	r3, [r0, #668]	@ 0x29c
 80046b8:	2b03      	cmp	r3, #3
 80046ba:	d0c3      	beq.n	8004644 <USBD_CDC_Setup+0x6c>
 80046bc:	4629      	mov	r1, r5
 80046be:	4620      	mov	r0, r4
 80046c0:	f000 fcdc 	bl	800507c <USBD_CtlError>
 80046c4:	2003      	movs	r0, #3
 80046c6:	e7be      	b.n	8004646 <USBD_CDC_Setup+0x6e>

080046c8 <USBD_CDC_DeInit>:
 80046c8:	b538      	push	{r3, r4, r5, lr}
 80046ca:	4604      	mov	r4, r0
 80046cc:	2500      	movs	r5, #0
 80046ce:	2181      	movs	r1, #129	@ 0x81
 80046d0:	f002 fc28 	bl	8006f24 <USBD_LL_CloseEP>
 80046d4:	2101      	movs	r1, #1
 80046d6:	f884 5037 	strb.w	r5, [r4, #55]	@ 0x37
 80046da:	4620      	mov	r0, r4
 80046dc:	f002 fc22 	bl	8006f24 <USBD_LL_CloseEP>
 80046e0:	f884 5177 	strb.w	r5, [r4, #375]	@ 0x177
 80046e4:	2182      	movs	r1, #130	@ 0x82
 80046e6:	4620      	mov	r0, r4
 80046e8:	f002 fc1c 	bl	8006f24 <USBD_LL_CloseEP>
 80046ec:	f8d4 32d4 	ldr.w	r3, [r4, #724]	@ 0x2d4
 80046f0:	f884 504b 	strb.w	r5, [r4, #75]	@ 0x4b
 80046f4:	eb04 0383 	add.w	r3, r4, r3, lsl #2
 80046f8:	6465      	str	r5, [r4, #68]	@ 0x44
 80046fa:	f8d3 22c0 	ldr.w	r2, [r3, #704]	@ 0x2c0
 80046fe:	b18a      	cbz	r2, 8004724 <USBD_CDC_DeInit+0x5c>
 8004700:	f8d3 32c4 	ldr.w	r3, [r3, #708]	@ 0x2c4
 8004704:	685b      	ldr	r3, [r3, #4]
 8004706:	4798      	blx	r3
 8004708:	f8d4 32d4 	ldr.w	r3, [r4, #724]	@ 0x2d4
 800470c:	33b0      	adds	r3, #176	@ 0xb0
 800470e:	f854 0023 	ldr.w	r0, [r4, r3, lsl #2]
 8004712:	f002 fbeb 	bl	8006eec <USBD_static_free>
 8004716:	f8d4 32d4 	ldr.w	r3, [r4, #724]	@ 0x2d4
 800471a:	33b0      	adds	r3, #176	@ 0xb0
 800471c:	f844 5023 	str.w	r5, [r4, r3, lsl #2]
 8004720:	f8c4 52bc 	str.w	r5, [r4, #700]	@ 0x2bc
 8004724:	2000      	movs	r0, #0
 8004726:	bd38      	pop	{r3, r4, r5, pc}

08004728 <USBD_CDC_Init>:
 8004728:	b5f8      	push	{r3, r4, r5, r6, r7, lr}
 800472a:	4604      	mov	r4, r0
 800472c:	f44f 7007 	mov.w	r0, #540	@ 0x21c
 8004730:	f002 fbd8 	bl	8006ee4 <USBD_static_malloc>
 8004734:	4605      	mov	r5, r0
 8004736:	b930      	cbnz	r0, 8004746 <USBD_CDC_Init+0x1e>
 8004738:	f8d4 32d4 	ldr.w	r3, [r4, #724]	@ 0x2d4
 800473c:	33b0      	adds	r3, #176	@ 0xb0
 800473e:	f844 0023 	str.w	r0, [r4, r3, lsl #2]
 8004742:	2002      	movs	r0, #2
 8004744:	e046      	b.n	80047d4 <USBD_CDC_Init+0xac>
 8004746:	f44f 7207 	mov.w	r2, #540	@ 0x21c
 800474a:	2100      	movs	r1, #0
 800474c:	f002 fd89 	bl	8007262 <memset>
 8004750:	f8d4 32d4 	ldr.w	r3, [r4, #724]	@ 0x2d4
 8004754:	33b0      	adds	r3, #176	@ 0xb0
 8004756:	f844 5023 	str.w	r5, [r4, r3, lsl #2]
 800475a:	7c23      	ldrb	r3, [r4, #16]
 800475c:	f8c4 52bc 	str.w	r5, [r4, #700]	@ 0x2bc
 8004760:	bbcb      	cbnz	r3, 80047d6 <USBD_CDC_Init+0xae>
 8004762:	f44f 7300 	mov.w	r3, #512	@ 0x200
 8004766:	2181      	movs	r1, #129	@ 0x81
 8004768:	2202      	movs	r2, #2
 800476a:	4620      	mov	r0, r4
 800476c:	f002 fbce 	bl	8006f0c <USBD_LL_OpenEP>
 8004770:	2101      	movs	r1, #1
 8004772:	f884 1037 	strb.w	r1, [r4, #55]	@ 0x37
 8004776:	f44f 7300 	mov.w	r3, #512	@ 0x200
 800477a:	2202      	movs	r2, #2
 800477c:	4620      	mov	r0, r4
 800477e:	f002 fbc5 	bl	8006f0c <USBD_LL_OpenEP>
 8004782:	2601      	movs	r6, #1
 8004784:	2310      	movs	r3, #16
 8004786:	2203      	movs	r2, #3
 8004788:	6463      	str	r3, [r4, #68]	@ 0x44
 800478a:	2182      	movs	r1, #130	@ 0x82
 800478c:	2308      	movs	r3, #8
 800478e:	f884 6177 	strb.w	r6, [r4, #375]	@ 0x177
 8004792:	4620      	mov	r0, r4
 8004794:	f002 fbba 	bl	8006f0c <USBD_LL_OpenEP>
 8004798:	f8d4 32d4 	ldr.w	r3, [r4, #724]	@ 0x2d4
 800479c:	f884 604b 	strb.w	r6, [r4, #75]	@ 0x4b
 80047a0:	eb04 0383 	add.w	r3, r4, r3, lsl #2
 80047a4:	2700      	movs	r7, #0
 80047a6:	f8d3 32c4 	ldr.w	r3, [r3, #708]	@ 0x2c4
 80047aa:	f8c5 7204 	str.w	r7, [r5, #516]	@ 0x204
 80047ae:	681b      	ldr	r3, [r3, #0]
 80047b0:	4798      	blx	r3
 80047b2:	f8d5 2204 	ldr.w	r2, [r5, #516]	@ 0x204
 80047b6:	f8c5 7214 	str.w	r7, [r5, #532]	@ 0x214
 80047ba:	f8c5 7218 	str.w	r7, [r5, #536]	@ 0x218
 80047be:	2a00      	cmp	r2, #0
 80047c0:	d0bf      	beq.n	8004742 <USBD_CDC_Init+0x1a>
 80047c2:	7c23      	ldrb	r3, [r4, #16]
 80047c4:	b993      	cbnz	r3, 80047ec <USBD_CDC_Init+0xc4>
 80047c6:	f44f 7300 	mov.w	r3, #512	@ 0x200
 80047ca:	4631      	mov	r1, r6
 80047cc:	4620      	mov	r0, r4
 80047ce:	f002 fbd6 	bl	8006f7e <USBD_LL_PrepareReceive>
 80047d2:	2000      	movs	r0, #0
 80047d4:	bdf8      	pop	{r3, r4, r5, r6, r7, pc}
 80047d6:	2340      	movs	r3, #64	@ 0x40
 80047d8:	2181      	movs	r1, #129	@ 0x81
 80047da:	2202      	movs	r2, #2
 80047dc:	4620      	mov	r0, r4
 80047de:	f002 fb95 	bl	8006f0c <USBD_LL_OpenEP>
 80047e2:	2101      	movs	r1, #1
 80047e4:	f884 1037 	strb.w	r1, [r4, #55]	@ 0x37
 80047e8:	2340      	movs	r3, #64	@ 0x40
 80047ea:	e7c6      	b.n	800477a <USBD_CDC_Init+0x52>
 80047ec:	2340      	movs	r3, #64	@ 0x40
 80047ee:	e7ec      	b.n	80047ca <USBD_CDC_Init+0xa2>

080047f0 <USBD_CDC_RegisterInterface>:
 80047f0:	b139      	cbz	r1, 8004802 <USBD_CDC_RegisterInterface+0x12>
 80047f2:	f8d0 32d4 	ldr.w	r3, [r0, #724]	@ 0x2d4
 80047f6:	eb00 0083 	add.w	r0, r0, r3, lsl #2
 80047fa:	f8c0 12c4 	str.w	r1, [r0, #708]	@ 0x2c4
 80047fe:	2000      	movs	r0, #0
 8004800:	4770      	bx	lr
 8004802:	2003      	movs	r0, #3
 8004804:	4770      	bx	lr

08004806 <USBD_CDC_SetTxBuffer>:
 8004806:	f8d0 32d4 	ldr.w	r3, [r0, #724]	@ 0x2d4
 800480a:	33b0      	adds	r3, #176	@ 0xb0
 800480c:	f850 3023 	ldr.w	r3, [r0, r3, lsl #2]
 8004810:	b12b      	cbz	r3, 800481e <USBD_CDC_SetTxBuffer+0x18>
 8004812:	f8c3 1208 	str.w	r1, [r3, #520]	@ 0x208
 8004816:	f8c3 2210 	str.w	r2, [r3, #528]	@ 0x210
 800481a:	2000      	movs	r0, #0
 800481c:	4770      	bx	lr
 800481e:	2003      	movs	r0, #3
 8004820:	4770      	bx	lr

08004822 <USBD_CDC_SetRxBuffer>:
 8004822:	f8d0 32d4 	ldr.w	r3, [r0, #724]	@ 0x2d4
 8004826:	33b0      	adds	r3, #176	@ 0xb0
 8004828:	f850 3023 	ldr.w	r3, [r0, r3, lsl #2]
 800482c:	b11b      	cbz	r3, 8004836 <USBD_CDC_SetRxBuffer+0x14>
 800482e:	f8c3 1204 	str.w	r1, [r3, #516]	@ 0x204
 8004832:	2000      	movs	r0, #0
 8004834:	4770      	bx	lr
 8004836:	2003      	movs	r0, #3
 8004838:	4770      	bx	lr

0800483a <USBD_CDC_TransmitPacket>:
 800483a:	f8d0 32d4 	ldr.w	r3, [r0, #724]	@ 0x2d4
 800483e:	33b0      	adds	r3, #176	@ 0xb0
 8004840:	b510      	push	{r4, lr}
 8004842:	f850 2023 	ldr.w	r2, [r0, r3, lsl #2]
 8004846:	b17a      	cbz	r2, 8004868 <USBD_CDC_TransmitPacket+0x2e>
 8004848:	f8d2 4214 	ldr.w	r4, [r2, #532]	@ 0x214
 800484c:	2301      	movs	r3, #1
 800484e:	b96c      	cbnz	r4, 800486c <USBD_CDC_TransmitPacket+0x32>
 8004850:	f8c2 3214 	str.w	r3, [r2, #532]	@ 0x214
 8004854:	f8d2 3210 	ldr.w	r3, [r2, #528]	@ 0x210
 8004858:	6283      	str	r3, [r0, #40]	@ 0x28
 800485a:	f8d2 2208 	ldr.w	r2, [r2, #520]	@ 0x208
 800485e:	2181      	movs	r1, #129	@ 0x81
 8004860:	f002 fb84 	bl	8006f6c <USBD_LL_Transmit>
 8004864:	4620      	mov	r0, r4
 8004866:	bd10      	pop	{r4, pc}
 8004868:	2003      	movs	r0, #3
 800486a:	e7fc      	b.n	8004866 <USBD_CDC_TransmitPacket+0x2c>
 800486c:	4618      	mov	r0, r3
 800486e:	e7fa      	b.n	8004866 <USBD_CDC_TransmitPacket+0x2c>

08004870 <USBD_CDC_ReceivePacket>:
 8004870:	f8d0 22d4 	ldr.w	r2, [r0, #724]	@ 0x2d4
 8004874:	32b0      	adds	r2, #176	@ 0xb0
 8004876:	b508      	push	{r3, lr}
 8004878:	f850 2022 	ldr.w	r2, [r0, r2, lsl #2]
 800487c:	b162      	cbz	r2, 8004898 <USBD_CDC_ReceivePacket+0x28>
 800487e:	7c03      	ldrb	r3, [r0, #16]
 8004880:	f8d2 2204 	ldr.w	r2, [r2, #516]	@ 0x204
 8004884:	b933      	cbnz	r3, 8004894 <USBD_CDC_ReceivePacket+0x24>
 8004886:	f44f 7300 	mov.w	r3, #512	@ 0x200
 800488a:	2101      	movs	r1, #1
 800488c:	f002 fb77 	bl	8006f7e <USBD_LL_PrepareReceive>
 8004890:	2000      	movs	r0, #0
 8004892:	bd08      	pop	{r3, pc}
 8004894:	2340      	movs	r3, #64	@ 0x40
 8004896:	e7f8      	b.n	800488a <USBD_CDC_ReceivePacket+0x1a>
 8004898:	2003      	movs	r0, #3
 800489a:	e7fa      	b.n	8004892 <USBD_CDC_ReceivePacket+0x22>

0800489c <USBD_Init>:
 800489c:	b178      	cbz	r0, 80048be <USBD_Init+0x22>
 800489e:	2300      	movs	r3, #0
 80048a0:	f8c0 32b8 	str.w	r3, [r0, #696]	@ 0x2b8
 80048a4:	f8c0 32c4 	str.w	r3, [r0, #708]	@ 0x2c4
 80048a8:	f8c0 32d0 	str.w	r3, [r0, #720]	@ 0x2d0
 80048ac:	b109      	cbz	r1, 80048b2 <USBD_Init+0x16>
 80048ae:	f8c0 12b4 	str.w	r1, [r0, #692]	@ 0x2b4
 80048b2:	2301      	movs	r3, #1
 80048b4:	f880 329c 	strb.w	r3, [r0, #668]	@ 0x29c
 80048b8:	7002      	strb	r2, [r0, #0]
 80048ba:	f002 bacf 	b.w	8006e5c <USBD_LL_Init>
 80048be:	2003      	movs	r0, #3
 80048c0:	4770      	bx	lr

080048c2 <USBD_RegisterClass>:
 80048c2:	b513      	push	{r0, r1, r4, lr}
 80048c4:	2300      	movs	r3, #0
 80048c6:	4604      	mov	r4, r0
 80048c8:	f8ad 3006 	strh.w	r3, [sp, #6]
 80048cc:	b181      	cbz	r1, 80048f0 <USBD_RegisterClass+0x2e>
 80048ce:	6acb      	ldr	r3, [r1, #44]	@ 0x2c
 80048d0:	f8c0 12b8 	str.w	r1, [r0, #696]	@ 0x2b8
 80048d4:	b123      	cbz	r3, 80048e0 <USBD_RegisterClass+0x1e>
 80048d6:	f10d 0006 	add.w	r0, sp, #6
 80048da:	4798      	blx	r3
 80048dc:	f8c4 02d0 	str.w	r0, [r4, #720]	@ 0x2d0
 80048e0:	f8d4 32d8 	ldr.w	r3, [r4, #728]	@ 0x2d8
 80048e4:	3301      	adds	r3, #1
 80048e6:	f8c4 32d8 	str.w	r3, [r4, #728]	@ 0x2d8
 80048ea:	2000      	movs	r0, #0
 80048ec:	b002      	add	sp, #8
 80048ee:	bd10      	pop	{r4, pc}
 80048f0:	2003      	movs	r0, #3
 80048f2:	e7fb      	b.n	80048ec <USBD_RegisterClass+0x2a>

080048f4 <USBD_Start>:
 80048f4:	f002 bb01 	b.w	8006efa <USBD_LL_Start>

080048f8 <USBD_SetClassConfig>:
 80048f8:	f8d0 32b8 	ldr.w	r3, [r0, #696]	@ 0x2b8
 80048fc:	b10b      	cbz	r3, 8004902 <USBD_SetClassConfig+0xa>
 80048fe:	681b      	ldr	r3, [r3, #0]
 8004900:	4718      	bx	r3
 8004902:	4618      	mov	r0, r3
 8004904:	4770      	bx	lr

08004906 <USBD_ClrClassConfig>:
 8004906:	b508      	push	{r3, lr}
 8004908:	f8d0 32b8 	ldr.w	r3, [r0, #696]	@ 0x2b8
 800490c:	685b      	ldr	r3, [r3, #4]
 800490e:	4798      	blx	r3
 8004910:	2800      	cmp	r0, #0
 8004912:	bf18      	it	ne
 8004914:	2003      	movne	r0, #3
 8004916:	bd08      	pop	{r3, pc}

08004918 <USBD_LL_SetupStage>:
 8004918:	b538      	push	{r3, r4, r5, lr}
 800491a:	4604      	mov	r4, r0
 800491c:	f200 25aa 	addw	r5, r0, #682	@ 0x2aa
 8004920:	4628      	mov	r0, r5
 8004922:	f000 fba0 	bl	8005066 <USBD_ParseSetupRequest>
 8004926:	2301      	movs	r3, #1
 8004928:	f894 12aa 	ldrb.w	r1, [r4, #682]	@ 0x2aa
 800492c:	f8c4 3294 	str.w	r3, [r4, #660]	@ 0x294
 8004930:	f8b4 32b0 	ldrh.w	r3, [r4, #688]	@ 0x2b0
 8004934:	f8c4 3298 	str.w	r3, [r4, #664]	@ 0x298
 8004938:	f001 031f 	and.w	r3, r1, #31
 800493c:	2b01      	cmp	r3, #1
 800493e:	d008      	beq.n	8004952 <USBD_LL_SetupStage+0x3a>
 8004940:	2b02      	cmp	r3, #2
 8004942:	d00c      	beq.n	800495e <USBD_LL_SetupStage+0x46>
 8004944:	b98b      	cbnz	r3, 800496a <USBD_LL_SetupStage+0x52>
 8004946:	4629      	mov	r1, r5
 8004948:	4620      	mov	r0, r4
 800494a:	e8bd 4038 	ldmia.w	sp!, {r3, r4, r5, lr}
 800494e:	f000 b953 	b.w	8004bf8 <USBD_StdDevReq>
 8004952:	4629      	mov	r1, r5
 8004954:	4620      	mov	r0, r4
 8004956:	e8bd 4038 	ldmia.w	sp!, {r3, r4, r5, lr}
 800495a:	f000 bab1 	b.w	8004ec0 <USBD_StdItfReq>
 800495e:	4629      	mov	r1, r5
 8004960:	4620      	mov	r0, r4
 8004962:	e8bd 4038 	ldmia.w	sp!, {r3, r4, r5, lr}
 8004966:	f000 bada 	b.w	8004f1e <USBD_StdEPReq>
 800496a:	4620      	mov	r0, r4
 800496c:	f001 0180 	and.w	r1, r1, #128	@ 0x80
 8004970:	e8bd 4038 	ldmia.w	sp!, {r3, r4, r5, lr}
 8004974:	f002 badf 	b.w	8006f36 <USBD_LL_StallEP>

08004978 <USBD_LL_DataOutStage>:
 8004978:	b570      	push	{r4, r5, r6, lr}
 800497a:	4604      	mov	r4, r0
 800497c:	bb39      	cbnz	r1, 80049ce <USBD_LL_DataOutStage+0x56>
 800497e:	f8d0 3294 	ldr.w	r3, [r0, #660]	@ 0x294
 8004982:	2b03      	cmp	r3, #3
 8004984:	d112      	bne.n	80049ac <USBD_LL_DataOutStage+0x34>
 8004986:	f8d0 3158 	ldr.w	r3, [r0, #344]	@ 0x158
 800498a:	f8b0 2160 	ldrh.w	r2, [r0, #352]	@ 0x160
 800498e:	4293      	cmp	r3, r2
 8004990:	d90e      	bls.n	80049b0 <USBD_LL_DataOutStage+0x38>
 8004992:	f8d0 1164 	ldr.w	r1, [r0, #356]	@ 0x164
 8004996:	1a9b      	subs	r3, r3, r2
 8004998:	4411      	add	r1, r2
 800499a:	429a      	cmp	r2, r3
 800499c:	f8c0 3158 	str.w	r3, [r0, #344]	@ 0x158
 80049a0:	f8c0 1164 	str.w	r1, [r0, #356]	@ 0x164
 80049a4:	bf38      	it	cc
 80049a6:	461a      	movcc	r2, r3
 80049a8:	f000 fbb6 	bl	8005118 <USBD_CtlContinueRx>
 80049ac:	2000      	movs	r0, #0
 80049ae:	bd70      	pop	{r4, r5, r6, pc}
 80049b0:	f890 329c 	ldrb.w	r3, [r0, #668]	@ 0x29c
 80049b4:	2b03      	cmp	r3, #3
 80049b6:	d106      	bne.n	80049c6 <USBD_LL_DataOutStage+0x4e>
 80049b8:	f8d0 32b8 	ldr.w	r3, [r0, #696]	@ 0x2b8
 80049bc:	691b      	ldr	r3, [r3, #16]
 80049be:	b113      	cbz	r3, 80049c6 <USBD_LL_DataOutStage+0x4e>
 80049c0:	f8c0 12d4 	str.w	r1, [r0, #724]	@ 0x2d4
 80049c4:	4798      	blx	r3
 80049c6:	4620      	mov	r0, r4
 80049c8:	f000 fbae 	bl	8005128 <USBD_CtlSendStatus>
 80049cc:	e7ee      	b.n	80049ac <USBD_LL_DataOutStage+0x34>
 80049ce:	f890 329c 	ldrb.w	r3, [r0, #668]	@ 0x29c
 80049d2:	2b03      	cmp	r3, #3
 80049d4:	d1ea      	bne.n	80049ac <USBD_LL_DataOutStage+0x34>
 80049d6:	f8d0 32b8 	ldr.w	r3, [r0, #696]	@ 0x2b8
 80049da:	699b      	ldr	r3, [r3, #24]
 80049dc:	2b00      	cmp	r3, #0
 80049de:	d0e5      	beq.n	80049ac <USBD_LL_DataOutStage+0x34>
 80049e0:	2200      	movs	r2, #0
 80049e2:	e8bd 4070 	ldmia.w	sp!, {r4, r5, r6, lr}
 80049e6:	f8c0 22d4 	str.w	r2, [r0, #724]	@ 0x2d4
 80049ea:	4718      	bx	r3

080049ec <USBD_LL_DataInStage>:
 80049ec:	b570      	push	{r4, r5, r6, lr}
 80049ee:	4604      	mov	r4, r0
 80049f0:	460d      	mov	r5, r1
 80049f2:	2900      	cmp	r1, #0
 80049f4:	d13f      	bne.n	8004a76 <USBD_LL_DataInStage+0x8a>
 80049f6:	f8d0 3294 	ldr.w	r3, [r0, #660]	@ 0x294
 80049fa:	2b02      	cmp	r3, #2
 80049fc:	d110      	bne.n	8004a20 <USBD_LL_DataInStage+0x34>
 80049fe:	6982      	ldr	r2, [r0, #24]
 8004a00:	8c03      	ldrh	r3, [r0, #32]
 8004a02:	429a      	cmp	r2, r3
 8004a04:	d914      	bls.n	8004a30 <USBD_LL_DataInStage+0x44>
 8004a06:	6a41      	ldr	r1, [r0, #36]	@ 0x24
 8004a08:	1ad2      	subs	r2, r2, r3
 8004a0a:	4419      	add	r1, r3
 8004a0c:	6182      	str	r2, [r0, #24]
 8004a0e:	6241      	str	r1, [r0, #36]	@ 0x24
 8004a10:	f000 fb69 	bl	80050e6 <USBD_CtlContinueSendData>
 8004a14:	462b      	mov	r3, r5
 8004a16:	462a      	mov	r2, r5
 8004a18:	4629      	mov	r1, r5
 8004a1a:	4620      	mov	r0, r4
 8004a1c:	f002 faaf 	bl	8006f7e <USBD_LL_PrepareReceive>
 8004a20:	f894 32a0 	ldrb.w	r3, [r4, #672]	@ 0x2a0
 8004a24:	b113      	cbz	r3, 8004a2c <USBD_LL_DataInStage+0x40>
 8004a26:	2300      	movs	r3, #0
 8004a28:	f884 32a0 	strb.w	r3, [r4, #672]	@ 0x2a0
 8004a2c:	2000      	movs	r0, #0
 8004a2e:	bd70      	pop	{r4, r5, r6, pc}
 8004a30:	d10c      	bne.n	8004a4c <USBD_LL_DataInStage+0x60>
 8004a32:	6943      	ldr	r3, [r0, #20]
 8004a34:	429a      	cmp	r2, r3
 8004a36:	d809      	bhi.n	8004a4c <USBD_LL_DataInStage+0x60>
 8004a38:	f8d0 2298 	ldr.w	r2, [r0, #664]	@ 0x298
 8004a3c:	4293      	cmp	r3, r2
 8004a3e:	d205      	bcs.n	8004a4c <USBD_LL_DataInStage+0x60>
 8004a40:	460a      	mov	r2, r1
 8004a42:	f000 fb50 	bl	80050e6 <USBD_CtlContinueSendData>
 8004a46:	f8c4 5298 	str.w	r5, [r4, #664]	@ 0x298
 8004a4a:	e7e3      	b.n	8004a14 <USBD_LL_DataInStage+0x28>
 8004a4c:	f894 329c 	ldrb.w	r3, [r4, #668]	@ 0x29c
 8004a50:	2b03      	cmp	r3, #3
 8004a52:	d108      	bne.n	8004a66 <USBD_LL_DataInStage+0x7a>
 8004a54:	f8d4 32b8 	ldr.w	r3, [r4, #696]	@ 0x2b8
 8004a58:	68db      	ldr	r3, [r3, #12]
 8004a5a:	b123      	cbz	r3, 8004a66 <USBD_LL_DataInStage+0x7a>
 8004a5c:	2200      	movs	r2, #0
 8004a5e:	f8c4 22d4 	str.w	r2, [r4, #724]	@ 0x2d4
 8004a62:	4620      	mov	r0, r4
 8004a64:	4798      	blx	r3
 8004a66:	2180      	movs	r1, #128	@ 0x80
 8004a68:	4620      	mov	r0, r4
 8004a6a:	f002 fa64 	bl	8006f36 <USBD_LL_StallEP>
 8004a6e:	4620      	mov	r0, r4
 8004a70:	f000 fb65 	bl	800513e <USBD_CtlReceiveStatus>
 8004a74:	e7d4      	b.n	8004a20 <USBD_LL_DataInStage+0x34>
 8004a76:	f890 329c 	ldrb.w	r3, [r0, #668]	@ 0x29c
 8004a7a:	2b03      	cmp	r3, #3
 8004a7c:	d1d6      	bne.n	8004a2c <USBD_LL_DataInStage+0x40>
 8004a7e:	f8d0 32b8 	ldr.w	r3, [r0, #696]	@ 0x2b8
 8004a82:	695b      	ldr	r3, [r3, #20]
 8004a84:	2b00      	cmp	r3, #0
 8004a86:	d0d1      	beq.n	8004a2c <USBD_LL_DataInStage+0x40>
 8004a88:	2200      	movs	r2, #0
 8004a8a:	e8bd 4070 	ldmia.w	sp!, {r4, r5, r6, lr}
 8004a8e:	f8c0 22d4 	str.w	r2, [r0, #724]	@ 0x2d4
 8004a92:	4718      	bx	r3

08004a94 <USBD_LL_Reset>:
 8004a94:	b5f8      	push	{r3, r4, r5, r6, r7, lr}
 8004a96:	2301      	movs	r3, #1
 8004a98:	f880 329c 	strb.w	r3, [r0, #668]	@ 0x29c
 8004a9c:	f8d0 32b8 	ldr.w	r3, [r0, #696]	@ 0x2b8
 8004aa0:	2100      	movs	r1, #0
 8004aa2:	4604      	mov	r4, r0
 8004aa4:	f8c0 1294 	str.w	r1, [r0, #660]	@ 0x294
 8004aa8:	6041      	str	r1, [r0, #4]
 8004aaa:	f8c0 12a4 	str.w	r1, [r0, #676]	@ 0x2a4
 8004aae:	f880 12a0 	strb.w	r1, [r0, #672]	@ 0x2a0
 8004ab2:	b9bb      	cbnz	r3, 8004ae4 <USBD_LL_Reset+0x50>
 8004ab4:	2600      	movs	r6, #0
 8004ab6:	2200      	movs	r2, #0
 8004ab8:	2540      	movs	r5, #64	@ 0x40
 8004aba:	4611      	mov	r1, r2
 8004abc:	2701      	movs	r7, #1
 8004abe:	2340      	movs	r3, #64	@ 0x40
 8004ac0:	4620      	mov	r0, r4
 8004ac2:	f002 fa23 	bl	8006f0c <USBD_LL_OpenEP>
 8004ac6:	f884 7163 	strb.w	r7, [r4, #355]	@ 0x163
 8004aca:	f8a4 5160 	strh.w	r5, [r4, #352]	@ 0x160
 8004ace:	462b      	mov	r3, r5
 8004ad0:	2200      	movs	r2, #0
 8004ad2:	2180      	movs	r1, #128	@ 0x80
 8004ad4:	4620      	mov	r0, r4
 8004ad6:	f002 fa19 	bl	8006f0c <USBD_LL_OpenEP>
 8004ada:	f884 7023 	strb.w	r7, [r4, #35]	@ 0x23
 8004ade:	8425      	strh	r5, [r4, #32]
 8004ae0:	4630      	mov	r0, r6
 8004ae2:	bdf8      	pop	{r3, r4, r5, r6, r7, pc}
 8004ae4:	685b      	ldr	r3, [r3, #4]
 8004ae6:	2b00      	cmp	r3, #0
 8004ae8:	d0e4      	beq.n	8004ab4 <USBD_LL_Reset+0x20>
 8004aea:	4798      	blx	r3
 8004aec:	2800      	cmp	r0, #0
 8004aee:	d0e1      	beq.n	8004ab4 <USBD_LL_Reset+0x20>
 8004af0:	2603      	movs	r6, #3
 8004af2:	e7e0      	b.n	8004ab6 <USBD_LL_Reset+0x22>

08004af4 <USBD_LL_SetSpeed>:
 8004af4:	7401      	strb	r1, [r0, #16]
 8004af6:	2000      	movs	r0, #0
 8004af8:	4770      	bx	lr

08004afa <USBD_LL_Suspend>:
 8004afa:	f890 329c 	ldrb.w	r3, [r0, #668]	@ 0x29c
 8004afe:	2b04      	cmp	r3, #4
 8004b00:	bf1e      	ittt	ne
 8004b02:	f890 329c 	ldrbne.w	r3, [r0, #668]	@ 0x29c
 8004b06:	b2db      	uxtbne	r3, r3
 8004b08:	f880 329d 	strbne.w	r3, [r0, #669]	@ 0x29d
 8004b0c:	2304      	movs	r3, #4
 8004b0e:	f880 329c 	strb.w	r3, [r0, #668]	@ 0x29c
 8004b12:	2000      	movs	r0, #0
 8004b14:	4770      	bx	lr

08004b16 <USBD_LL_Resume>:
 8004b16:	f890 329c 	ldrb.w	r3, [r0, #668]	@ 0x29c
 8004b1a:	2b04      	cmp	r3, #4
 8004b1c:	bf02      	ittt	eq
 8004b1e:	f890 329d 	ldrbeq.w	r3, [r0, #669]	@ 0x29d
 8004b22:	b2db      	uxtbeq	r3, r3
 8004b24:	f880 329c 	strbeq.w	r3, [r0, #668]	@ 0x29c
 8004b28:	2000      	movs	r0, #0
 8004b2a:	4770      	bx	lr

08004b2c <USBD_LL_SOF>:
 8004b2c:	b508      	push	{r3, lr}
 8004b2e:	f890 229c 	ldrb.w	r2, [r0, #668]	@ 0x29c
 8004b32:	2a03      	cmp	r2, #3
 8004b34:	d105      	bne.n	8004b42 <USBD_LL_SOF+0x16>
 8004b36:	f8d0 32b8 	ldr.w	r3, [r0, #696]	@ 0x2b8
 8004b3a:	b113      	cbz	r3, 8004b42 <USBD_LL_SOF+0x16>
 8004b3c:	69db      	ldr	r3, [r3, #28]
 8004b3e:	b103      	cbz	r3, 8004b42 <USBD_LL_SOF+0x16>
 8004b40:	4798      	blx	r3
 8004b42:	2000      	movs	r0, #0
 8004b44:	bd08      	pop	{r3, pc}

08004b46 <USBD_LL_IsoINIncomplete>:
 8004b46:	f8d0 22d4 	ldr.w	r2, [r0, #724]	@ 0x2d4
 8004b4a:	32ae      	adds	r2, #174	@ 0xae
 8004b4c:	b508      	push	{r3, lr}
 8004b4e:	f850 2022 	ldr.w	r2, [r0, r2, lsl #2]
 8004b52:	b14a      	cbz	r2, 8004b68 <USBD_LL_IsoINIncomplete+0x22>
 8004b54:	f890 329c 	ldrb.w	r3, [r0, #668]	@ 0x29c
 8004b58:	2b03      	cmp	r3, #3
 8004b5a:	d101      	bne.n	8004b60 <USBD_LL_IsoINIncomplete+0x1a>
 8004b5c:	6a13      	ldr	r3, [r2, #32]
 8004b5e:	b90b      	cbnz	r3, 8004b64 <USBD_LL_IsoINIncomplete+0x1e>
 8004b60:	2000      	movs	r0, #0
 8004b62:	bd08      	pop	{r3, pc}
 8004b64:	4798      	blx	r3
 8004b66:	e7fb      	b.n	8004b60 <USBD_LL_IsoINIncomplete+0x1a>
 8004b68:	2003      	movs	r0, #3
 8004b6a:	e7fa      	b.n	8004b62 <USBD_LL_IsoINIncomplete+0x1c>

08004b6c <USBD_LL_IsoOUTIncomplete>:
 8004b6c:	f8d0 22d4 	ldr.w	r2, [r0, #724]	@ 0x2d4
 8004b70:	32ae      	adds	r2, #174	@ 0xae
 8004b72:	b508      	push	{r3, lr}
 8004b74:	f850 2022 	ldr.w	r2, [r0, r2, lsl #2]
 8004b78:	b14a      	cbz	r2, 8004b8e <USBD_LL_IsoOUTIncomplete+0x22>
 8004b7a:	f890 329c 	ldrb.w	r3, [r0, #668]	@ 0x29c
 8004b7e:	2b03      	cmp	r3, #3
 8004b80:	d101      	bne.n	8004b86 <USBD_LL_IsoOUTIncomplete+0x1a>
 8004b82:	6a53      	ldr	r3, [r2, #36]	@ 0x24
 8004b84:	b90b      	cbnz	r3, 8004b8a <USBD_LL_IsoOUTIncomplete+0x1e>
 8004b86:	2000      	movs	r0, #0
 8004b88:	bd08      	pop	{r3, pc}
 8004b8a:	4798      	blx	r3
 8004b8c:	e7fb      	b.n	8004b86 <USBD_LL_IsoOUTIncomplete+0x1a>
 8004b8e:	2003      	movs	r0, #3
 8004b90:	e7fa      	b.n	8004b88 <USBD_LL_IsoOUTIncomplete+0x1c>

08004b92 <USBD_LL_DevConnected>:
 8004b92:	2000      	movs	r0, #0
 8004b94:	4770      	bx	lr

08004b96 <USBD_LL_DevDisconnected>:
 8004b96:	2201      	movs	r2, #1
 8004b98:	b508      	push	{r3, lr}
 8004b9a:	f880 229c 	strb.w	r2, [r0, #668]	@ 0x29c
 8004b9e:	f8d0 22b8 	ldr.w	r2, [r0, #696]	@ 0x2b8
 8004ba2:	b90a      	cbnz	r2, 8004ba8 <USBD_LL_DevDisconnected+0x12>
 8004ba4:	2000      	movs	r0, #0
 8004ba6:	bd08      	pop	{r3, pc}
 8004ba8:	6852      	ldr	r2, [r2, #4]
 8004baa:	7901      	ldrb	r1, [r0, #4]
 8004bac:	4790      	blx	r2
 8004bae:	2800      	cmp	r0, #0
 8004bb0:	d0f8      	beq.n	8004ba4 <USBD_LL_DevDisconnected+0xe>
 8004bb2:	2003      	movs	r0, #3
 8004bb4:	e7f7      	b.n	8004ba6 <USBD_LL_DevDisconnected+0x10>

08004bb6 <USBD_CoreFindIF>:
 8004bb6:	2000      	movs	r0, #0
 8004bb8:	4770      	bx	lr

08004bba <USBD_CoreFindEP>:
 8004bba:	2000      	movs	r0, #0
 8004bbc:	4770      	bx	lr

08004bbe <USBD_GetEpDesc>:
 8004bbe:	b510      	push	{r4, lr}
 8004bc0:	8842      	ldrh	r2, [r0, #2]
 8004bc2:	7803      	ldrb	r3, [r0, #0]
 8004bc4:	429a      	cmp	r2, r3
 8004bc6:	d801      	bhi.n	8004bcc <USBD_GetEpDesc+0xe>
 8004bc8:	2000      	movs	r0, #0
 8004bca:	bd10      	pop	{r4, pc}
 8004bcc:	7804      	ldrb	r4, [r0, #0]
 8004bce:	4420      	add	r0, r4
 8004bd0:	4423      	add	r3, r4
 8004bd2:	7844      	ldrb	r4, [r0, #1]
 8004bd4:	2c05      	cmp	r4, #5
 8004bd6:	b29b      	uxth	r3, r3
 8004bd8:	d1f4      	bne.n	8004bc4 <USBD_GetEpDesc+0x6>
 8004bda:	7884      	ldrb	r4, [r0, #2]
 8004bdc:	428c      	cmp	r4, r1
 8004bde:	d1f1      	bne.n	8004bc4 <USBD_GetEpDesc+0x6>
 8004be0:	e7f3      	b.n	8004bca <USBD_GetEpDesc+0xc>

08004be2 <USBD_CtlError.constprop.0>:
 8004be2:	b510      	push	{r4, lr}
 8004be4:	2180      	movs	r1, #128	@ 0x80
 8004be6:	4604      	mov	r4, r0
 8004be8:	f002 f9a5 	bl	8006f36 <USBD_LL_StallEP>
 8004bec:	4620      	mov	r0, r4
 8004bee:	2100      	movs	r1, #0
 8004bf0:	e8bd 4010 	ldmia.w	sp!, {r4, lr}
 8004bf4:	f002 b99f 	b.w	8006f36 <USBD_LL_StallEP>

08004bf8 <USBD_StdDevReq>:
 8004bf8:	b573      	push	{r0, r1, r4, r5, r6, lr}
 8004bfa:	780b      	ldrb	r3, [r1, #0]
 8004bfc:	f003 0360 	and.w	r3, r3, #96	@ 0x60
 8004c00:	2b20      	cmp	r3, #32
 8004c02:	4604      	mov	r4, r0
 8004c04:	460d      	mov	r5, r1
 8004c06:	d009      	beq.n	8004c1c <USBD_StdDevReq+0x24>
 8004c08:	2b40      	cmp	r3, #64	@ 0x40
 8004c0a:	d007      	beq.n	8004c1c <USBD_StdDevReq+0x24>
 8004c0c:	b193      	cbz	r3, 8004c34 <USBD_StdDevReq+0x3c>
 8004c0e:	4620      	mov	r0, r4
 8004c10:	f7ff ffe7 	bl	8004be2 <USBD_CtlError.constprop.0>
 8004c14:	2500      	movs	r5, #0
 8004c16:	4628      	mov	r0, r5
 8004c18:	b002      	add	sp, #8
 8004c1a:	bd70      	pop	{r4, r5, r6, pc}
 8004c1c:	f8d4 32d4 	ldr.w	r3, [r4, #724]	@ 0x2d4
 8004c20:	33ae      	adds	r3, #174	@ 0xae
 8004c22:	4629      	mov	r1, r5
 8004c24:	f854 3023 	ldr.w	r3, [r4, r3, lsl #2]
 8004c28:	689b      	ldr	r3, [r3, #8]
 8004c2a:	4620      	mov	r0, r4
 8004c2c:	b002      	add	sp, #8
 8004c2e:	e8bd 4070 	ldmia.w	sp!, {r4, r5, r6, lr}
 8004c32:	4718      	bx	r3
 8004c34:	784b      	ldrb	r3, [r1, #1]
 8004c36:	2b09      	cmp	r3, #9
 8004c38:	d8e9      	bhi.n	8004c0e <USBD_StdDevReq+0x16>
 8004c3a:	a201      	add	r2, pc, #4	@ (adr r2, 8004c40 <USBD_StdDevReq+0x48>)
 8004c3c:	f852 f023 	ldr.w	pc, [r2, r3, lsl #2]
 8004c40:	08004e61 	.word	0x08004e61
 8004c44:	08004ea5 	.word	0x08004ea5
 8004c48:	08004c0f 	.word	0x08004c0f
 8004c4c:	08004e89 	.word	0x08004e89
 8004c50:	08004c0f 	.word	0x08004c0f
 8004c54:	08004d5b 	.word	0x08004d5b
 8004c58:	08004c69 	.word	0x08004c69
 8004c5c:	08004c0f 	.word	0x08004c0f
 8004c60:	08004e35 	.word	0x08004e35
 8004c64:	08004d9d 	.word	0x08004d9d
 8004c68:	2300      	movs	r3, #0
 8004c6a:	f8ad 3006 	strh.w	r3, [sp, #6]
 8004c6e:	884b      	ldrh	r3, [r1, #2]
 8004c70:	0a1a      	lsrs	r2, r3, #8
 8004c72:	3a01      	subs	r2, #1
 8004c74:	2a06      	cmp	r2, #6
 8004c76:	d8ca      	bhi.n	8004c0e <USBD_StdDevReq+0x16>
 8004c78:	a101      	add	r1, pc, #4	@ (adr r1, 8004c80 <USBD_StdDevReq+0x88>)
 8004c7a:	f851 f022 	ldr.w	pc, [r1, r2, lsl #2]
 8004c7e:	bf00      	nop
 8004c80:	08004c9d 	.word	0x08004c9d
 8004c84:	08004ccf 	.word	0x08004ccf
 8004c88:	08004ce9 	.word	0x08004ce9
 8004c8c:	08004c0f 	.word	0x08004c0f
 8004c90:	08004c0f 	.word	0x08004c0f
 8004c94:	08004d2d 	.word	0x08004d2d
 8004c98:	08004d43 	.word	0x08004d43
 8004c9c:	f8d0 32b4 	ldr.w	r3, [r0, #692]	@ 0x2b4
 8004ca0:	681b      	ldr	r3, [r3, #0]
 8004ca2:	7c20      	ldrb	r0, [r4, #16]
 8004ca4:	f10d 0106 	add.w	r1, sp, #6
 8004ca8:	4798      	blx	r3
 8004caa:	88ea      	ldrh	r2, [r5, #6]
 8004cac:	2a00      	cmp	r2, #0
 8004cae:	f000 80a4 	beq.w	8004dfa <USBD_StdDevReq+0x202>
 8004cb2:	f8bd 3006 	ldrh.w	r3, [sp, #6]
 8004cb6:	2b00      	cmp	r3, #0
 8004cb8:	d0a9      	beq.n	8004c0e <USBD_StdDevReq+0x16>
 8004cba:	429a      	cmp	r2, r3
 8004cbc:	bf28      	it	cs
 8004cbe:	461a      	movcs	r2, r3
 8004cc0:	f8ad 2006 	strh.w	r2, [sp, #6]
 8004cc4:	4601      	mov	r1, r0
 8004cc6:	4620      	mov	r0, r4
 8004cc8:	f000 f9ff 	bl	80050ca <USBD_CtlSendData>
 8004ccc:	e7a2      	b.n	8004c14 <USBD_StdDevReq+0x1c>
 8004cce:	7c02      	ldrb	r2, [r0, #16]
 8004cd0:	f8d0 32b8 	ldr.w	r3, [r0, #696]	@ 0x2b8
 8004cd4:	b932      	cbnz	r2, 8004ce4 <USBD_StdDevReq+0xec>
 8004cd6:	6a9b      	ldr	r3, [r3, #40]	@ 0x28
 8004cd8:	f10d 0006 	add.w	r0, sp, #6
 8004cdc:	4798      	blx	r3
 8004cde:	2302      	movs	r3, #2
 8004ce0:	7043      	strb	r3, [r0, #1]
 8004ce2:	e7e2      	b.n	8004caa <USBD_StdDevReq+0xb2>
 8004ce4:	6adb      	ldr	r3, [r3, #44]	@ 0x2c
 8004ce6:	e7f7      	b.n	8004cd8 <USBD_StdDevReq+0xe0>
 8004ce8:	b2db      	uxtb	r3, r3
 8004cea:	2b05      	cmp	r3, #5
 8004cec:	d88f      	bhi.n	8004c0e <USBD_StdDevReq+0x16>
 8004cee:	e8df f003 	tbb	[pc, r3]
 8004cf2:	0903      	.short	0x0903
 8004cf4:	1915110d 	.word	0x1915110d
 8004cf8:	f8d0 32b4 	ldr.w	r3, [r0, #692]	@ 0x2b4
 8004cfc:	685b      	ldr	r3, [r3, #4]
 8004cfe:	2b00      	cmp	r3, #0
 8004d00:	d1cf      	bne.n	8004ca2 <USBD_StdDevReq+0xaa>
 8004d02:	e784      	b.n	8004c0e <USBD_StdDevReq+0x16>
 8004d04:	f8d0 32b4 	ldr.w	r3, [r0, #692]	@ 0x2b4
 8004d08:	689b      	ldr	r3, [r3, #8]
 8004d0a:	e7f8      	b.n	8004cfe <USBD_StdDevReq+0x106>
 8004d0c:	f8d0 32b4 	ldr.w	r3, [r0, #692]	@ 0x2b4
 8004d10:	68db      	ldr	r3, [r3, #12]
 8004d12:	e7f4      	b.n	8004cfe <USBD_StdDevReq+0x106>
 8004d14:	f8d0 32b4 	ldr.w	r3, [r0, #692]	@ 0x2b4
 8004d18:	691b      	ldr	r3, [r3, #16]
 8004d1a:	e7f0      	b.n	8004cfe <USBD_StdDevReq+0x106>
 8004d1c:	f8d0 32b4 	ldr.w	r3, [r0, #692]	@ 0x2b4
 8004d20:	695b      	ldr	r3, [r3, #20]
 8004d22:	e7ec      	b.n	8004cfe <USBD_StdDevReq+0x106>
 8004d24:	f8d0 32b4 	ldr.w	r3, [r0, #692]	@ 0x2b4
 8004d28:	699b      	ldr	r3, [r3, #24]
 8004d2a:	e7e8      	b.n	8004cfe <USBD_StdDevReq+0x106>
 8004d2c:	7c03      	ldrb	r3, [r0, #16]
 8004d2e:	2b00      	cmp	r3, #0
 8004d30:	f47f af6d 	bne.w	8004c0e <USBD_StdDevReq+0x16>
 8004d34:	f8d0 32b8 	ldr.w	r3, [r0, #696]	@ 0x2b8
 8004d38:	f10d 0006 	add.w	r0, sp, #6
 8004d3c:	6b5b      	ldr	r3, [r3, #52]	@ 0x34
 8004d3e:	4798      	blx	r3
 8004d40:	e7b3      	b.n	8004caa <USBD_StdDevReq+0xb2>
 8004d42:	7c03      	ldrb	r3, [r0, #16]
 8004d44:	2b00      	cmp	r3, #0
 8004d46:	f47f af62 	bne.w	8004c0e <USBD_StdDevReq+0x16>
 8004d4a:	f8d0 32b8 	ldr.w	r3, [r0, #696]	@ 0x2b8
 8004d4e:	f10d 0006 	add.w	r0, sp, #6
 8004d52:	6b1b      	ldr	r3, [r3, #48]	@ 0x30
 8004d54:	4798      	blx	r3
 8004d56:	2307      	movs	r3, #7
 8004d58:	e7c2      	b.n	8004ce0 <USBD_StdDevReq+0xe8>
 8004d5a:	888b      	ldrh	r3, [r1, #4]
 8004d5c:	2b00      	cmp	r3, #0
 8004d5e:	f47f af56 	bne.w	8004c0e <USBD_StdDevReq+0x16>
 8004d62:	88cb      	ldrh	r3, [r1, #6]
 8004d64:	2b00      	cmp	r3, #0
 8004d66:	f47f af52 	bne.w	8004c0e <USBD_StdDevReq+0x16>
 8004d6a:	884d      	ldrh	r5, [r1, #2]
 8004d6c:	2d7f      	cmp	r5, #127	@ 0x7f
 8004d6e:	f63f af4e 	bhi.w	8004c0e <USBD_StdDevReq+0x16>
 8004d72:	f890 329c 	ldrb.w	r3, [r0, #668]	@ 0x29c
 8004d76:	2b03      	cmp	r3, #3
 8004d78:	f43f af49 	beq.w	8004c0e <USBD_StdDevReq+0x16>
 8004d7c:	b2ed      	uxtb	r5, r5
 8004d7e:	f880 529e 	strb.w	r5, [r0, #670]	@ 0x29e
 8004d82:	4629      	mov	r1, r5
 8004d84:	f002 f8e9 	bl	8006f5a <USBD_LL_SetUSBAddress>
 8004d88:	4620      	mov	r0, r4
 8004d8a:	f000 f9cd 	bl	8005128 <USBD_CtlSendStatus>
 8004d8e:	b11d      	cbz	r5, 8004d98 <USBD_StdDevReq+0x1a0>
 8004d90:	2302      	movs	r3, #2
 8004d92:	f884 329c 	strb.w	r3, [r4, #668]	@ 0x29c
 8004d96:	e73d      	b.n	8004c14 <USBD_StdDevReq+0x1c>
 8004d98:	2301      	movs	r3, #1
 8004d9a:	e7fa      	b.n	8004d92 <USBD_StdDevReq+0x19a>
 8004d9c:	7889      	ldrb	r1, [r1, #2]
 8004d9e:	4d47      	ldr	r5, [pc, #284]	@ (8004ebc <USBD_StdDevReq+0x2c4>)
 8004da0:	2901      	cmp	r1, #1
 8004da2:	7029      	strb	r1, [r5, #0]
 8004da4:	d903      	bls.n	8004dae <USBD_StdDevReq+0x1b6>
 8004da6:	f7ff ff1c 	bl	8004be2 <USBD_CtlError.constprop.0>
 8004daa:	2503      	movs	r5, #3
 8004dac:	e733      	b.n	8004c16 <USBD_StdDevReq+0x1e>
 8004dae:	f890 329c 	ldrb.w	r3, [r0, #668]	@ 0x29c
 8004db2:	2b02      	cmp	r3, #2
 8004db4:	b2de      	uxtb	r6, r3
 8004db6:	d008      	beq.n	8004dca <USBD_StdDevReq+0x1d2>
 8004db8:	2e03      	cmp	r6, #3
 8004dba:	d017      	beq.n	8004dec <USBD_StdDevReq+0x1f4>
 8004dbc:	f7ff ff11 	bl	8004be2 <USBD_CtlError.constprop.0>
 8004dc0:	7829      	ldrb	r1, [r5, #0]
 8004dc2:	4620      	mov	r0, r4
 8004dc4:	f7ff fd9f 	bl	8004906 <USBD_ClrClassConfig>
 8004dc8:	e7ef      	b.n	8004daa <USBD_StdDevReq+0x1b2>
 8004dca:	b1b1      	cbz	r1, 8004dfa <USBD_StdDevReq+0x202>
 8004dcc:	2101      	movs	r1, #1
 8004dce:	6041      	str	r1, [r0, #4]
 8004dd0:	f7ff fd92 	bl	80048f8 <USBD_SetClassConfig>
 8004dd4:	4605      	mov	r5, r0
 8004dd6:	4620      	mov	r0, r4
 8004dd8:	b125      	cbz	r5, 8004de4 <USBD_StdDevReq+0x1ec>
 8004dda:	f7ff ff02 	bl	8004be2 <USBD_CtlError.constprop.0>
 8004dde:	f884 629c 	strb.w	r6, [r4, #668]	@ 0x29c
 8004de2:	e718      	b.n	8004c16 <USBD_StdDevReq+0x1e>
 8004de4:	f000 f9a0 	bl	8005128 <USBD_CtlSendStatus>
 8004de8:	2303      	movs	r3, #3
 8004dea:	e7d2      	b.n	8004d92 <USBD_StdDevReq+0x19a>
 8004dec:	b949      	cbnz	r1, 8004e02 <USBD_StdDevReq+0x20a>
 8004dee:	2302      	movs	r3, #2
 8004df0:	f880 329c 	strb.w	r3, [r0, #668]	@ 0x29c
 8004df4:	6041      	str	r1, [r0, #4]
 8004df6:	f7ff fd86 	bl	8004906 <USBD_ClrClassConfig>
 8004dfa:	4620      	mov	r0, r4
 8004dfc:	f000 f994 	bl	8005128 <USBD_CtlSendStatus>
 8004e00:	e708      	b.n	8004c14 <USBD_StdDevReq+0x1c>
 8004e02:	6841      	ldr	r1, [r0, #4]
 8004e04:	2901      	cmp	r1, #1
 8004e06:	d0f8      	beq.n	8004dfa <USBD_StdDevReq+0x202>
 8004e08:	b2c9      	uxtb	r1, r1
 8004e0a:	f7ff fd7c 	bl	8004906 <USBD_ClrClassConfig>
 8004e0e:	7829      	ldrb	r1, [r5, #0]
 8004e10:	6061      	str	r1, [r4, #4]
 8004e12:	4620      	mov	r0, r4
 8004e14:	f7ff fd70 	bl	80048f8 <USBD_SetClassConfig>
 8004e18:	4605      	mov	r5, r0
 8004e1a:	2800      	cmp	r0, #0
 8004e1c:	d0ed      	beq.n	8004dfa <USBD_StdDevReq+0x202>
 8004e1e:	4620      	mov	r0, r4
 8004e20:	f7ff fedf 	bl	8004be2 <USBD_CtlError.constprop.0>
 8004e24:	7921      	ldrb	r1, [r4, #4]
 8004e26:	4620      	mov	r0, r4
 8004e28:	f7ff fd6d 	bl	8004906 <USBD_ClrClassConfig>
 8004e2c:	2302      	movs	r3, #2
 8004e2e:	f884 329c 	strb.w	r3, [r4, #668]	@ 0x29c
 8004e32:	e6f0      	b.n	8004c16 <USBD_StdDevReq+0x1e>
 8004e34:	88ca      	ldrh	r2, [r1, #6]
 8004e36:	2a01      	cmp	r2, #1
 8004e38:	f47f aee9 	bne.w	8004c0e <USBD_StdDevReq+0x16>
 8004e3c:	f890 129c 	ldrb.w	r1, [r0, #668]	@ 0x29c
 8004e40:	2902      	cmp	r1, #2
 8004e42:	b2cb      	uxtb	r3, r1
 8004e44:	d807      	bhi.n	8004e56 <USBD_StdDevReq+0x25e>
 8004e46:	2b00      	cmp	r3, #0
 8004e48:	f43f aee1 	beq.w	8004c0e <USBD_StdDevReq+0x16>
 8004e4c:	4601      	mov	r1, r0
 8004e4e:	2300      	movs	r3, #0
 8004e50:	f841 3f08 	str.w	r3, [r1, #8]!
 8004e54:	e737      	b.n	8004cc6 <USBD_StdDevReq+0xce>
 8004e56:	2b03      	cmp	r3, #3
 8004e58:	f47f aed9 	bne.w	8004c0e <USBD_StdDevReq+0x16>
 8004e5c:	1d01      	adds	r1, r0, #4
 8004e5e:	e732      	b.n	8004cc6 <USBD_StdDevReq+0xce>
 8004e60:	f890 329c 	ldrb.w	r3, [r0, #668]	@ 0x29c
 8004e64:	3b01      	subs	r3, #1
 8004e66:	2b02      	cmp	r3, #2
 8004e68:	f63f aed1 	bhi.w	8004c0e <USBD_StdDevReq+0x16>
 8004e6c:	88ca      	ldrh	r2, [r1, #6]
 8004e6e:	2a02      	cmp	r2, #2
 8004e70:	f47f aecd 	bne.w	8004c0e <USBD_StdDevReq+0x16>
 8004e74:	f8d0 32a4 	ldr.w	r3, [r0, #676]	@ 0x2a4
 8004e78:	4601      	mov	r1, r0
 8004e7a:	2b00      	cmp	r3, #0
 8004e7c:	bf0c      	ite	eq
 8004e7e:	2301      	moveq	r3, #1
 8004e80:	2303      	movne	r3, #3
 8004e82:	f841 3f0c 	str.w	r3, [r1, #12]!
 8004e86:	e71e      	b.n	8004cc6 <USBD_StdDevReq+0xce>
 8004e88:	884b      	ldrh	r3, [r1, #2]
 8004e8a:	2b01      	cmp	r3, #1
 8004e8c:	d102      	bne.n	8004e94 <USBD_StdDevReq+0x29c>
 8004e8e:	f8c4 32a4 	str.w	r3, [r4, #676]	@ 0x2a4
 8004e92:	e7b2      	b.n	8004dfa <USBD_StdDevReq+0x202>
 8004e94:	2b02      	cmp	r3, #2
 8004e96:	f47f aeba 	bne.w	8004c0e <USBD_StdDevReq+0x16>
 8004e9a:	888b      	ldrh	r3, [r1, #4]
 8004e9c:	0a1b      	lsrs	r3, r3, #8
 8004e9e:	f880 32a0 	strb.w	r3, [r0, #672]	@ 0x2a0
 8004ea2:	e7aa      	b.n	8004dfa <USBD_StdDevReq+0x202>
 8004ea4:	f890 329c 	ldrb.w	r3, [r0, #668]	@ 0x29c
 8004ea8:	3b01      	subs	r3, #1
 8004eaa:	2b02      	cmp	r3, #2
 8004eac:	f63f aeaf 	bhi.w	8004c0e <USBD_StdDevReq+0x16>
 8004eb0:	884b      	ldrh	r3, [r1, #2]
 8004eb2:	2b01      	cmp	r3, #1
 8004eb4:	f47f aeae 	bne.w	8004c14 <USBD_StdDevReq+0x1c>
 8004eb8:	2300      	movs	r3, #0
 8004eba:	e7e8      	b.n	8004e8e <USBD_StdDevReq+0x296>
 8004ebc:	20002dac 	.word	0x20002dac

08004ec0 <USBD_StdItfReq>:
 8004ec0:	b570      	push	{r4, r5, r6, lr}
 8004ec2:	780b      	ldrb	r3, [r1, #0]
 8004ec4:	f003 0260 	and.w	r2, r3, #96	@ 0x60
 8004ec8:	065b      	lsls	r3, r3, #25
 8004eca:	4604      	mov	r4, r0
 8004ecc:	460e      	mov	r6, r1
 8004ece:	d501      	bpl.n	8004ed4 <USBD_StdItfReq+0x14>
 8004ed0:	2a40      	cmp	r2, #64	@ 0x40
 8004ed2:	d11f      	bne.n	8004f14 <USBD_StdItfReq+0x54>
 8004ed4:	f894 329c 	ldrb.w	r3, [r4, #668]	@ 0x29c
 8004ed8:	3b01      	subs	r3, #1
 8004eda:	2b02      	cmp	r3, #2
 8004edc:	d81a      	bhi.n	8004f14 <USBD_StdItfReq+0x54>
 8004ede:	7931      	ldrb	r1, [r6, #4]
 8004ee0:	2901      	cmp	r1, #1
 8004ee2:	4620      	mov	r0, r4
 8004ee4:	d817      	bhi.n	8004f16 <USBD_StdItfReq+0x56>
 8004ee6:	f7ff fe66 	bl	8004bb6 <USBD_CoreFindIF>
 8004eea:	b988      	cbnz	r0, 8004f10 <USBD_StdItfReq+0x50>
 8004eec:	f8d4 32b8 	ldr.w	r3, [r4, #696]	@ 0x2b8
 8004ef0:	689b      	ldr	r3, [r3, #8]
 8004ef2:	b16b      	cbz	r3, 8004f10 <USBD_StdItfReq+0x50>
 8004ef4:	f8c4 02d4 	str.w	r0, [r4, #724]	@ 0x2d4
 8004ef8:	4631      	mov	r1, r6
 8004efa:	4620      	mov	r0, r4
 8004efc:	4798      	blx	r3
 8004efe:	4605      	mov	r5, r0
 8004f00:	88f3      	ldrh	r3, [r6, #6]
 8004f02:	b91b      	cbnz	r3, 8004f0c <USBD_StdItfReq+0x4c>
 8004f04:	b915      	cbnz	r5, 8004f0c <USBD_StdItfReq+0x4c>
 8004f06:	4620      	mov	r0, r4
 8004f08:	f000 f90e 	bl	8005128 <USBD_CtlSendStatus>
 8004f0c:	4628      	mov	r0, r5
 8004f0e:	bd70      	pop	{r4, r5, r6, pc}
 8004f10:	2503      	movs	r5, #3
 8004f12:	e7f5      	b.n	8004f00 <USBD_StdItfReq+0x40>
 8004f14:	4620      	mov	r0, r4
 8004f16:	f7ff fe64 	bl	8004be2 <USBD_CtlError.constprop.0>
 8004f1a:	2500      	movs	r5, #0
 8004f1c:	e7f6      	b.n	8004f0c <USBD_StdItfReq+0x4c>

08004f1e <USBD_StdEPReq>:
 8004f1e:	b570      	push	{r4, r5, r6, lr}
 8004f20:	780b      	ldrb	r3, [r1, #0]
 8004f22:	888a      	ldrh	r2, [r1, #4]
 8004f24:	790d      	ldrb	r5, [r1, #4]
 8004f26:	f003 0360 	and.w	r3, r3, #96	@ 0x60
 8004f2a:	2b20      	cmp	r3, #32
 8004f2c:	4604      	mov	r4, r0
 8004f2e:	460e      	mov	r6, r1
 8004f30:	d059      	beq.n	8004fe6 <USBD_StdEPReq+0xc8>
 8004f32:	2b40      	cmp	r3, #64	@ 0x40
 8004f34:	d057      	beq.n	8004fe6 <USBD_StdEPReq+0xc8>
 8004f36:	b11b      	cbz	r3, 8004f40 <USBD_StdEPReq+0x22>
 8004f38:	4620      	mov	r0, r4
 8004f3a:	f7ff fe52 	bl	8004be2 <USBD_CtlError.constprop.0>
 8004f3e:	e03e      	b.n	8004fbe <USBD_StdEPReq+0xa0>
 8004f40:	784b      	ldrb	r3, [r1, #1]
 8004f42:	2b01      	cmp	r3, #1
 8004f44:	d03d      	beq.n	8004fc2 <USBD_StdEPReq+0xa4>
 8004f46:	2b03      	cmp	r3, #3
 8004f48:	d026      	beq.n	8004f98 <USBD_StdEPReq+0x7a>
 8004f4a:	2b00      	cmp	r3, #0
 8004f4c:	d1f4      	bne.n	8004f38 <USBD_StdEPReq+0x1a>
 8004f4e:	f890 329c 	ldrb.w	r3, [r0, #668]	@ 0x29c
 8004f52:	2b02      	cmp	r3, #2
 8004f54:	b2d9      	uxtb	r1, r3
 8004f56:	d062      	beq.n	800501e <USBD_StdEPReq+0x100>
 8004f58:	2903      	cmp	r1, #3
 8004f5a:	d1ed      	bne.n	8004f38 <USBD_StdEPReq+0x1a>
 8004f5c:	f005 030f 	and.w	r3, r5, #15
 8004f60:	f012 0f80 	tst.w	r2, #128	@ 0x80
 8004f64:	f04f 0214 	mov.w	r2, #20
 8004f68:	fb02 0303 	mla	r3, r2, r3, r0
 8004f6c:	d067      	beq.n	800503e <USBD_StdEPReq+0x120>
 8004f6e:	f893 3023 	ldrb.w	r3, [r3, #35]	@ 0x23
 8004f72:	2b00      	cmp	r3, #0
 8004f74:	d0e0      	beq.n	8004f38 <USBD_StdEPReq+0x1a>
 8004f76:	f005 067f 	and.w	r6, r5, #127	@ 0x7f
 8004f7a:	3601      	adds	r6, #1
 8004f7c:	eb06 0686 	add.w	r6, r6, r6, lsl #2
 8004f80:	2d80      	cmp	r5, #128	@ 0x80
 8004f82:	eb00 0686 	add.w	r6, r0, r6, lsl #2
 8004f86:	d066      	beq.n	8005056 <USBD_StdEPReq+0x138>
 8004f88:	4629      	mov	r1, r5
 8004f8a:	4620      	mov	r0, r4
 8004f8c:	f001 ff94 	bl	8006eb8 <USBD_LL_IsStallEP>
 8004f90:	2800      	cmp	r0, #0
 8004f92:	d066      	beq.n	8005062 <USBD_StdEPReq+0x144>
 8004f94:	2301      	movs	r3, #1
 8004f96:	e05f      	b.n	8005058 <USBD_StdEPReq+0x13a>
 8004f98:	f890 329c 	ldrb.w	r3, [r0, #668]	@ 0x29c
 8004f9c:	2b02      	cmp	r3, #2
 8004f9e:	b2da      	uxtb	r2, r3
 8004fa0:	d033      	beq.n	800500a <USBD_StdEPReq+0xec>
 8004fa2:	2a03      	cmp	r2, #3
 8004fa4:	d1c8      	bne.n	8004f38 <USBD_StdEPReq+0x1a>
 8004fa6:	884b      	ldrh	r3, [r1, #2]
 8004fa8:	b933      	cbnz	r3, 8004fb8 <USBD_StdEPReq+0x9a>
 8004faa:	0669      	lsls	r1, r5, #25
 8004fac:	d004      	beq.n	8004fb8 <USBD_StdEPReq+0x9a>
 8004fae:	88f3      	ldrh	r3, [r6, #6]
 8004fb0:	b913      	cbnz	r3, 8004fb8 <USBD_StdEPReq+0x9a>
 8004fb2:	4629      	mov	r1, r5
 8004fb4:	f001 ffbf 	bl	8006f36 <USBD_LL_StallEP>
 8004fb8:	4620      	mov	r0, r4
 8004fba:	f000 f8b5 	bl	8005128 <USBD_CtlSendStatus>
 8004fbe:	2000      	movs	r0, #0
 8004fc0:	bd70      	pop	{r4, r5, r6, pc}
 8004fc2:	f890 329c 	ldrb.w	r3, [r0, #668]	@ 0x29c
 8004fc6:	2b02      	cmp	r3, #2
 8004fc8:	b2da      	uxtb	r2, r3
 8004fca:	d01e      	beq.n	800500a <USBD_StdEPReq+0xec>
 8004fcc:	2a03      	cmp	r2, #3
 8004fce:	d1b3      	bne.n	8004f38 <USBD_StdEPReq+0x1a>
 8004fd0:	884b      	ldrh	r3, [r1, #2]
 8004fd2:	2b00      	cmp	r3, #0
 8004fd4:	d1f3      	bne.n	8004fbe <USBD_StdEPReq+0xa0>
 8004fd6:	066b      	lsls	r3, r5, #25
 8004fd8:	d002      	beq.n	8004fe0 <USBD_StdEPReq+0xc2>
 8004fda:	4629      	mov	r1, r5
 8004fdc:	f001 ffb4 	bl	8006f48 <USBD_LL_ClearStallEP>
 8004fe0:	4620      	mov	r0, r4
 8004fe2:	f000 f8a1 	bl	8005128 <USBD_CtlSendStatus>
 8004fe6:	4629      	mov	r1, r5
 8004fe8:	4620      	mov	r0, r4
 8004fea:	f7ff fde6 	bl	8004bba <USBD_CoreFindEP>
 8004fee:	2800      	cmp	r0, #0
 8004ff0:	d1e5      	bne.n	8004fbe <USBD_StdEPReq+0xa0>
 8004ff2:	f8d4 32b8 	ldr.w	r3, [r4, #696]	@ 0x2b8
 8004ff6:	f8c4 02d4 	str.w	r0, [r4, #724]	@ 0x2d4
 8004ffa:	689b      	ldr	r3, [r3, #8]
 8004ffc:	2b00      	cmp	r3, #0
 8004ffe:	d0de      	beq.n	8004fbe <USBD_StdEPReq+0xa0>
 8005000:	4631      	mov	r1, r6
 8005002:	4620      	mov	r0, r4
 8005004:	e8bd 4070 	ldmia.w	sp!, {r4, r5, r6, lr}
 8005008:	4718      	bx	r3
 800500a:	066a      	lsls	r2, r5, #25
 800500c:	d094      	beq.n	8004f38 <USBD_StdEPReq+0x1a>
 800500e:	4629      	mov	r1, r5
 8005010:	f001 ff91 	bl	8006f36 <USBD_LL_StallEP>
 8005014:	2180      	movs	r1, #128	@ 0x80
 8005016:	4620      	mov	r0, r4
 8005018:	f001 ff8d 	bl	8006f36 <USBD_LL_StallEP>
 800501c:	e7cf      	b.n	8004fbe <USBD_StdEPReq+0xa0>
 800501e:	0669      	lsls	r1, r5, #25
 8005020:	d18a      	bne.n	8004f38 <USBD_StdEPReq+0x1a>
 8005022:	0613      	lsls	r3, r2, #24
 8005024:	bf4c      	ite	mi
 8005026:	f100 0114 	addmi.w	r1, r0, #20
 800502a:	f500 71aa 	addpl.w	r1, r0, #340	@ 0x154
 800502e:	2300      	movs	r3, #0
 8005030:	f801 3f0e 	strb.w	r3, [r1, #14]!
 8005034:	2202      	movs	r2, #2
 8005036:	4620      	mov	r0, r4
 8005038:	f000 f847 	bl	80050ca <USBD_CtlSendData>
 800503c:	e7bf      	b.n	8004fbe <USBD_StdEPReq+0xa0>
 800503e:	f893 3163 	ldrb.w	r3, [r3, #355]	@ 0x163
 8005042:	2b00      	cmp	r3, #0
 8005044:	f43f af78 	beq.w	8004f38 <USBD_StdEPReq+0x1a>
 8005048:	2614      	movs	r6, #20
 800504a:	fb06 0605 	mla	r6, r6, r5, r0
 800504e:	f506 76aa 	add.w	r6, r6, #340	@ 0x154
 8005052:	2d00      	cmp	r5, #0
 8005054:	d198      	bne.n	8004f88 <USBD_StdEPReq+0x6a>
 8005056:	2300      	movs	r3, #0
 8005058:	73b3      	strb	r3, [r6, #14]
 800505a:	2202      	movs	r2, #2
 800505c:	f106 010e 	add.w	r1, r6, #14
 8005060:	e7e9      	b.n	8005036 <USBD_StdEPReq+0x118>
 8005062:	73b0      	strb	r0, [r6, #14]
 8005064:	e7f9      	b.n	800505a <USBD_StdEPReq+0x13c>

08005066 <USBD_ParseSetupRequest>:
 8005066:	780b      	ldrb	r3, [r1, #0]
 8005068:	7003      	strb	r3, [r0, #0]
 800506a:	784b      	ldrb	r3, [r1, #1]
 800506c:	7043      	strb	r3, [r0, #1]
 800506e:	884b      	ldrh	r3, [r1, #2]
 8005070:	8043      	strh	r3, [r0, #2]
 8005072:	888b      	ldrh	r3, [r1, #4]
 8005074:	8083      	strh	r3, [r0, #4]
 8005076:	88cb      	ldrh	r3, [r1, #6]
 8005078:	80c3      	strh	r3, [r0, #6]
 800507a:	4770      	bx	lr

0800507c <USBD_CtlError>:
 800507c:	b510      	push	{r4, lr}
 800507e:	2180      	movs	r1, #128	@ 0x80
 8005080:	4604      	mov	r4, r0
 8005082:	f001 ff58 	bl	8006f36 <USBD_LL_StallEP>
 8005086:	4620      	mov	r0, r4
 8005088:	2100      	movs	r1, #0
 800508a:	e8bd 4010 	ldmia.w	sp!, {r4, lr}
 800508e:	f001 bf52 	b.w	8006f36 <USBD_LL_StallEP>

08005092 <USBD_GetString>:
 8005092:	b570      	push	{r4, r5, r6, lr}
 8005094:	460d      	mov	r5, r1
 8005096:	4616      	mov	r6, r2
 8005098:	4604      	mov	r4, r0
 800509a:	b170      	cbz	r0, 80050ba <USBD_GetString+0x28>
 800509c:	f7fb f8a2 	bl	80001e4 <strlen>
 80050a0:	b2c3      	uxtb	r3, r0
 80050a2:	3301      	adds	r3, #1
 80050a4:	005b      	lsls	r3, r3, #1
 80050a6:	8033      	strh	r3, [r6, #0]
 80050a8:	702b      	strb	r3, [r5, #0]
 80050aa:	2303      	movs	r3, #3
 80050ac:	706b      	strb	r3, [r5, #1]
 80050ae:	3c01      	subs	r4, #1
 80050b0:	2302      	movs	r3, #2
 80050b2:	2100      	movs	r1, #0
 80050b4:	f814 2f01 	ldrb.w	r2, [r4, #1]!
 80050b8:	b902      	cbnz	r2, 80050bc <USBD_GetString+0x2a>
 80050ba:	bd70      	pop	{r4, r5, r6, pc}
 80050bc:	54ea      	strb	r2, [r5, r3]
 80050be:	1c5a      	adds	r2, r3, #1
 80050c0:	b2d2      	uxtb	r2, r2
 80050c2:	3302      	adds	r3, #2
 80050c4:	54a9      	strb	r1, [r5, r2]
 80050c6:	b2db      	uxtb	r3, r3
 80050c8:	e7f4      	b.n	80050b4 <USBD_GetString+0x22>

080050ca <USBD_CtlSendData>:
 80050ca:	b510      	push	{r4, lr}
 80050cc:	4613      	mov	r3, r2
 80050ce:	2202      	movs	r2, #2
 80050d0:	f8c0 2294 	str.w	r2, [r0, #660]	@ 0x294
 80050d4:	6143      	str	r3, [r0, #20]
 80050d6:	460a      	mov	r2, r1
 80050d8:	6241      	str	r1, [r0, #36]	@ 0x24
 80050da:	6183      	str	r3, [r0, #24]
 80050dc:	2100      	movs	r1, #0
 80050de:	f001 ff45 	bl	8006f6c <USBD_LL_Transmit>
 80050e2:	2000      	movs	r0, #0
 80050e4:	bd10      	pop	{r4, pc}

080050e6 <USBD_CtlContinueSendData>:
 80050e6:	b508      	push	{r3, lr}
 80050e8:	4613      	mov	r3, r2
 80050ea:	460a      	mov	r2, r1
 80050ec:	2100      	movs	r1, #0
 80050ee:	f001 ff3d 	bl	8006f6c <USBD_LL_Transmit>
 80050f2:	2000      	movs	r0, #0
 80050f4:	bd08      	pop	{r3, pc}

080050f6 <USBD_CtlPrepareRx>:
 80050f6:	b510      	push	{r4, lr}
 80050f8:	4613      	mov	r3, r2
 80050fa:	2203      	movs	r2, #3
 80050fc:	f8c0 2294 	str.w	r2, [r0, #660]	@ 0x294
 8005100:	f8c0 3154 	str.w	r3, [r0, #340]	@ 0x154
 8005104:	460a      	mov	r2, r1
 8005106:	f8c0 1164 	str.w	r1, [r0, #356]	@ 0x164
 800510a:	f8c0 3158 	str.w	r3, [r0, #344]	@ 0x158
 800510e:	2100      	movs	r1, #0
 8005110:	f001 ff35 	bl	8006f7e <USBD_LL_PrepareReceive>
 8005114:	2000      	movs	r0, #0
 8005116:	bd10      	pop	{r4, pc}

08005118 <USBD_CtlContinueRx>:
 8005118:	b508      	push	{r3, lr}
 800511a:	4613      	mov	r3, r2
 800511c:	460a      	mov	r2, r1
 800511e:	2100      	movs	r1, #0
 8005120:	f001 ff2d 	bl	8006f7e <USBD_LL_PrepareReceive>
 8005124:	2000      	movs	r0, #0
 8005126:	bd08      	pop	{r3, pc}

08005128 <USBD_CtlSendStatus>:
 8005128:	b508      	push	{r3, lr}
 800512a:	2204      	movs	r2, #4
 800512c:	2300      	movs	r3, #0
 800512e:	f8c0 2294 	str.w	r2, [r0, #660]	@ 0x294
 8005132:	4619      	mov	r1, r3
 8005134:	461a      	mov	r2, r3
 8005136:	f001 ff19 	bl	8006f6c <USBD_LL_Transmit>
 800513a:	2000      	movs	r0, #0
 800513c:	bd08      	pop	{r3, pc}

0800513e <USBD_CtlReceiveStatus>:
 800513e:	b508      	push	{r3, lr}
 8005140:	2205      	movs	r2, #5
 8005142:	2300      	movs	r3, #0
 8005144:	f8c0 2294 	str.w	r2, [r0, #660]	@ 0x294
 8005148:	4619      	mov	r1, r3
 800514a:	461a      	mov	r2, r3
 800514c:	f001 ff17 	bl	8006f7e <USBD_LL_PrepareReceive>
 8005150:	2000      	movs	r0, #0
 8005152:	bd08      	pop	{r3, pc}

08005154 <osKernelInitialize>:
 8005154:	f3ef 8305 	mrs	r3, IPSR
 8005158:	b92b      	cbnz	r3, 8005166 <osKernelInitialize+0x12>
 800515a:	4b06      	ldr	r3, [pc, #24]	@ (8005174 <osKernelInitialize+0x20>)
 800515c:	6818      	ldr	r0, [r3, #0]
 800515e:	b928      	cbnz	r0, 800516c <osKernelInitialize+0x18>
 8005160:	2201      	movs	r2, #1
 8005162:	601a      	str	r2, [r3, #0]
 8005164:	4770      	bx	lr
 8005166:	f06f 0005 	mvn.w	r0, #5
 800516a:	4770      	bx	lr
 800516c:	f04f 30ff 	mov.w	r0, #4294967295
 8005170:	4770      	bx	lr
 8005172:	bf00      	nop
 8005174:	20003468 	.word	0x20003468

08005178 <osKernelStart>:
 8005178:	b510      	push	{r4, lr}
 800517a:	f3ef 8405 	mrs	r4, IPSR
 800517e:	b95c      	cbnz	r4, 8005198 <osKernelStart+0x20>
 8005180:	4b08      	ldr	r3, [pc, #32]	@ (80051a4 <osKernelStart+0x2c>)
 8005182:	681a      	ldr	r2, [r3, #0]
 8005184:	2a01      	cmp	r2, #1
 8005186:	d10a      	bne.n	800519e <osKernelStart+0x26>
 8005188:	4a07      	ldr	r2, [pc, #28]	@ (80051a8 <osKernelStart+0x30>)
 800518a:	77d4      	strb	r4, [r2, #31]
 800518c:	2202      	movs	r2, #2
 800518e:	601a      	str	r2, [r3, #0]
 8005190:	f000 fd76 	bl	8005c80 <vTaskStartScheduler>
 8005194:	4620      	mov	r0, r4
 8005196:	bd10      	pop	{r4, pc}
 8005198:	f06f 0005 	mvn.w	r0, #5
 800519c:	e7fb      	b.n	8005196 <osKernelStart+0x1e>
 800519e:	f04f 30ff 	mov.w	r0, #4294967295
 80051a2:	e7f8      	b.n	8005196 <osKernelStart+0x1e>
 80051a4:	20003468 	.word	0x20003468
 80051a8:	e000ed00 	.word	0xe000ed00

080051ac <osThreadNew>:
 80051ac:	b5f0      	push	{r4, r5, r6, r7, lr}
 80051ae:	b087      	sub	sp, #28
 80051b0:	4614      	mov	r4, r2
 80051b2:	2200      	movs	r2, #0
 80051b4:	460b      	mov	r3, r1
 80051b6:	9205      	str	r2, [sp, #20]
 80051b8:	f3ef 8205 	mrs	r2, IPSR
 80051bc:	b9fa      	cbnz	r2, 80051fe <osThreadNew+0x52>
 80051be:	b1f0      	cbz	r0, 80051fe <osThreadNew+0x52>
 80051c0:	b354      	cbz	r4, 8005218 <osThreadNew+0x6c>
 80051c2:	69a5      	ldr	r5, [r4, #24]
 80051c4:	b125      	cbz	r5, 80051d0 <osThreadNew+0x24>
 80051c6:	1e69      	subs	r1, r5, #1
 80051c8:	2937      	cmp	r1, #55	@ 0x37
 80051ca:	d902      	bls.n	80051d2 <osThreadNew+0x26>
 80051cc:	2000      	movs	r0, #0
 80051ce:	e017      	b.n	8005200 <osThreadNew+0x54>
 80051d0:	2518      	movs	r5, #24
 80051d2:	6862      	ldr	r2, [r4, #4]
 80051d4:	07d2      	lsls	r2, r2, #31
 80051d6:	d4f9      	bmi.n	80051cc <osThreadNew+0x20>
 80051d8:	6966      	ldr	r6, [r4, #20]
 80051da:	b19e      	cbz	r6, 8005204 <osThreadNew+0x58>
 80051dc:	08b2      	lsrs	r2, r6, #2
 80051de:	e9d4 7c02 	ldrd	r7, ip, [r4, #8]
 80051e2:	6821      	ldr	r1, [r4, #0]
 80051e4:	b187      	cbz	r7, 8005208 <osThreadNew+0x5c>
 80051e6:	f1bc 0f5b 	cmp.w	ip, #91	@ 0x5b
 80051ea:	d908      	bls.n	80051fe <osThreadNew+0x52>
 80051ec:	6924      	ldr	r4, [r4, #16]
 80051ee:	b134      	cbz	r4, 80051fe <osThreadNew+0x52>
 80051f0:	b12e      	cbz	r6, 80051fe <osThreadNew+0x52>
 80051f2:	e9cd 4701 	strd	r4, r7, [sp, #4]
 80051f6:	9500      	str	r5, [sp, #0]
 80051f8:	f000 fcdb 	bl	8005bb2 <xTaskCreateStatic>
 80051fc:	9005      	str	r0, [sp, #20]
 80051fe:	9805      	ldr	r0, [sp, #20]
 8005200:	b007      	add	sp, #28
 8005202:	bdf0      	pop	{r4, r5, r6, r7, pc}
 8005204:	2280      	movs	r2, #128	@ 0x80
 8005206:	e7ea      	b.n	80051de <osThreadNew+0x32>
 8005208:	f1bc 0f00 	cmp.w	ip, #0
 800520c:	d1f7      	bne.n	80051fe <osThreadNew+0x52>
 800520e:	6924      	ldr	r4, [r4, #16]
 8005210:	2c00      	cmp	r4, #0
 8005212:	d1f4      	bne.n	80051fe <osThreadNew+0x52>
 8005214:	460c      	mov	r4, r1
 8005216:	e001      	b.n	800521c <osThreadNew+0x70>
 8005218:	2518      	movs	r5, #24
 800521a:	2280      	movs	r2, #128	@ 0x80
 800521c:	a905      	add	r1, sp, #20
 800521e:	e9cd 5100 	strd	r5, r1, [sp]
 8005222:	b292      	uxth	r2, r2
 8005224:	4621      	mov	r1, r4
 8005226:	f000 fcfc 	bl	8005c22 <xTaskCreate>
 800522a:	2801      	cmp	r0, #1
 800522c:	bf1c      	itt	ne
 800522e:	2300      	movne	r3, #0
 8005230:	9305      	strne	r3, [sp, #20]
 8005232:	e7e4      	b.n	80051fe <osThreadNew+0x52>

08005234 <osDelay>:
 8005234:	b508      	push	{r3, lr}
 8005236:	f3ef 8205 	mrs	r2, IPSR
 800523a:	b922      	cbnz	r2, 8005246 <osDelay+0x12>
 800523c:	b108      	cbz	r0, 8005242 <osDelay+0xe>
 800523e:	f000 fe7d 	bl	8005f3c <vTaskDelay>
 8005242:	2000      	movs	r0, #0
 8005244:	bd08      	pop	{r3, pc}
 8005246:	f06f 0005 	mvn.w	r0, #5
 800524a:	e7fb      	b.n	8005244 <osDelay+0x10>

0800524c <vApplicationGetIdleTaskMemory>:
 800524c:	4b03      	ldr	r3, [pc, #12]	@ (800525c <vApplicationGetIdleTaskMemory+0x10>)
 800524e:	6003      	str	r3, [r0, #0]
 8005250:	4b03      	ldr	r3, [pc, #12]	@ (8005260 <vApplicationGetIdleTaskMemory+0x14>)
 8005252:	600b      	str	r3, [r1, #0]
 8005254:	2380      	movs	r3, #128	@ 0x80
 8005256:	6013      	str	r3, [r2, #0]
 8005258:	4770      	bx	lr
 800525a:	bf00      	nop
 800525c:	2000340c 	.word	0x2000340c
 8005260:	2000320c 	.word	0x2000320c

08005264 <vApplicationGetTimerTaskMemory>:
 8005264:	4b03      	ldr	r3, [pc, #12]	@ (8005274 <vApplicationGetTimerTaskMemory+0x10>)
 8005266:	6003      	str	r3, [r0, #0]
 8005268:	4b03      	ldr	r3, [pc, #12]	@ (8005278 <vApplicationGetTimerTaskMemory+0x14>)
 800526a:	600b      	str	r3, [r1, #0]
 800526c:	f44f 7380 	mov.w	r3, #256	@ 0x100
 8005270:	6013      	str	r3, [r2, #0]
 8005272:	4770      	bx	lr
 8005274:	200031b0 	.word	0x200031b0
 8005278:	20002db0 	.word	0x20002db0

0800527c <vListInitialise>:
 800527c:	f100 0308 	add.w	r3, r0, #8
 8005280:	f04f 32ff 	mov.w	r2, #4294967295
 8005284:	e9c0 2302 	strd	r2, r3, [r0, #8]
 8005288:	6043      	str	r3, [r0, #4]
 800528a:	6103      	str	r3, [r0, #16]
 800528c:	2300      	movs	r3, #0
 800528e:	6003      	str	r3, [r0, #0]
 8005290:	4770      	bx	lr

08005292 <vListInitialiseItem>:
 8005292:	2300      	movs	r3, #0
 8005294:	6103      	str	r3, [r0, #16]
 8005296:	4770      	bx	lr

08005298 <vListInsertEnd>:
 8005298:	6843      	ldr	r3, [r0, #4]
 800529a:	604b      	str	r3, [r1, #4]
 800529c:	689a      	ldr	r2, [r3, #8]
 800529e:	608a      	str	r2, [r1, #8]
 80052a0:	6051      	str	r1, [r2, #4]
 80052a2:	6099      	str	r1, [r3, #8]
 80052a4:	6803      	ldr	r3, [r0, #0]
 80052a6:	6108      	str	r0, [r1, #16]
 80052a8:	3301      	adds	r3, #1
 80052aa:	6003      	str	r3, [r0, #0]
 80052ac:	4770      	bx	lr

080052ae <vListInsert>:
 80052ae:	b530      	push	{r4, r5, lr}
 80052b0:	680c      	ldr	r4, [r1, #0]
 80052b2:	1c63      	adds	r3, r4, #1
 80052b4:	d10a      	bne.n	80052cc <vListInsert+0x1e>
 80052b6:	6903      	ldr	r3, [r0, #16]
 80052b8:	685a      	ldr	r2, [r3, #4]
 80052ba:	604a      	str	r2, [r1, #4]
 80052bc:	6091      	str	r1, [r2, #8]
 80052be:	608b      	str	r3, [r1, #8]
 80052c0:	6059      	str	r1, [r3, #4]
 80052c2:	6803      	ldr	r3, [r0, #0]
 80052c4:	6108      	str	r0, [r1, #16]
 80052c6:	3301      	adds	r3, #1
 80052c8:	6003      	str	r3, [r0, #0]
 80052ca:	bd30      	pop	{r4, r5, pc}
 80052cc:	f100 0208 	add.w	r2, r0, #8
 80052d0:	4613      	mov	r3, r2
 80052d2:	6852      	ldr	r2, [r2, #4]
 80052d4:	6815      	ldr	r5, [r2, #0]
 80052d6:	42a5      	cmp	r5, r4
 80052d8:	d9fa      	bls.n	80052d0 <vListInsert+0x22>
 80052da:	e7ed      	b.n	80052b8 <vListInsert+0xa>

080052dc <uxListRemove>:
 80052dc:	e9d0 1201 	ldrd	r1, r2, [r0, #4]
 80052e0:	6903      	ldr	r3, [r0, #16]
 80052e2:	608a      	str	r2, [r1, #8]
 80052e4:	6051      	str	r1, [r2, #4]
 80052e6:	6859      	ldr	r1, [r3, #4]
 80052e8:	4281      	cmp	r1, r0
 80052ea:	bf08      	it	eq
 80052ec:	605a      	streq	r2, [r3, #4]
 80052ee:	2200      	movs	r2, #0
 80052f0:	6102      	str	r2, [r0, #16]
 80052f2:	681a      	ldr	r2, [r3, #0]
 80052f4:	3a01      	subs	r2, #1
 80052f6:	601a      	str	r2, [r3, #0]
 80052f8:	6818      	ldr	r0, [r3, #0]
 80052fa:	4770      	bx	lr

080052fc <prvIsQueueEmpty>:
 80052fc:	b510      	push	{r4, lr}
 80052fe:	4604      	mov	r4, r0
 8005300:	f001 f9e0 	bl	80066c4 <vPortEnterCritical>
 8005304:	6ba4      	ldr	r4, [r4, #56]	@ 0x38
 8005306:	f001 f9fd 	bl	8006704 <vPortExitCritical>
 800530a:	fab4 f084 	clz	r0, r4
 800530e:	0940      	lsrs	r0, r0, #5
 8005310:	bd10      	pop	{r4, pc}

08005312 <prvCopyDataToQueue>:
 8005312:	b570      	push	{r4, r5, r6, lr}
 8005314:	4616      	mov	r6, r2
 8005316:	6c02      	ldr	r2, [r0, #64]	@ 0x40
 8005318:	6b85      	ldr	r5, [r0, #56]	@ 0x38
 800531a:	4604      	mov	r4, r0
 800531c:	b942      	cbnz	r2, 8005330 <prvCopyDataToQueue+0x1e>
 800531e:	6806      	ldr	r6, [r0, #0]
 8005320:	b99e      	cbnz	r6, 800534a <prvCopyDataToQueue+0x38>
 8005322:	6880      	ldr	r0, [r0, #8]
 8005324:	f000 ff3e 	bl	80061a4 <xTaskPriorityDisinherit>
 8005328:	60a6      	str	r6, [r4, #8]
 800532a:	3501      	adds	r5, #1
 800532c:	63a5      	str	r5, [r4, #56]	@ 0x38
 800532e:	bd70      	pop	{r4, r5, r6, pc}
 8005330:	b96e      	cbnz	r6, 800534e <prvCopyDataToQueue+0x3c>
 8005332:	6840      	ldr	r0, [r0, #4]
 8005334:	f002 f875 	bl	8007422 <memcpy>
 8005338:	6863      	ldr	r3, [r4, #4]
 800533a:	6c22      	ldr	r2, [r4, #64]	@ 0x40
 800533c:	4413      	add	r3, r2
 800533e:	68a2      	ldr	r2, [r4, #8]
 8005340:	6063      	str	r3, [r4, #4]
 8005342:	4293      	cmp	r3, r2
 8005344:	bf24      	itt	cs
 8005346:	6823      	ldrcs	r3, [r4, #0]
 8005348:	6063      	strcs	r3, [r4, #4]
 800534a:	2000      	movs	r0, #0
 800534c:	e7ed      	b.n	800532a <prvCopyDataToQueue+0x18>
 800534e:	68c0      	ldr	r0, [r0, #12]
 8005350:	f002 f867 	bl	8007422 <memcpy>
 8005354:	6c22      	ldr	r2, [r4, #64]	@ 0x40
 8005356:	68e3      	ldr	r3, [r4, #12]
 8005358:	4251      	negs	r1, r2
 800535a:	1a9b      	subs	r3, r3, r2
 800535c:	6822      	ldr	r2, [r4, #0]
 800535e:	60e3      	str	r3, [r4, #12]
 8005360:	4293      	cmp	r3, r2
 8005362:	bf3e      	ittt	cc
 8005364:	68a3      	ldrcc	r3, [r4, #8]
 8005366:	185b      	addcc	r3, r3, r1
 8005368:	60e3      	strcc	r3, [r4, #12]
 800536a:	2e02      	cmp	r6, #2
 800536c:	d1ed      	bne.n	800534a <prvCopyDataToQueue+0x38>
 800536e:	b10d      	cbz	r5, 8005374 <prvCopyDataToQueue+0x62>
 8005370:	3d01      	subs	r5, #1
 8005372:	e7ea      	b.n	800534a <prvCopyDataToQueue+0x38>
 8005374:	4628      	mov	r0, r5
 8005376:	e7d8      	b.n	800532a <prvCopyDataToQueue+0x18>

08005378 <prvCopyDataFromQueue>:
 8005378:	4603      	mov	r3, r0
 800537a:	b410      	push	{r4}
 800537c:	6c1a      	ldr	r2, [r3, #64]	@ 0x40
 800537e:	4608      	mov	r0, r1
 8005380:	b16a      	cbz	r2, 800539e <prvCopyDataFromQueue+0x26>
 8005382:	68dc      	ldr	r4, [r3, #12]
 8005384:	6899      	ldr	r1, [r3, #8]
 8005386:	4414      	add	r4, r2
 8005388:	428c      	cmp	r4, r1
 800538a:	bf28      	it	cs
 800538c:	6819      	ldrcs	r1, [r3, #0]
 800538e:	60dc      	str	r4, [r3, #12]
 8005390:	bf28      	it	cs
 8005392:	60d9      	strcs	r1, [r3, #12]
 8005394:	68d9      	ldr	r1, [r3, #12]
 8005396:	f85d 4b04 	ldr.w	r4, [sp], #4
 800539a:	f002 b842 	b.w	8007422 <memcpy>
 800539e:	f85d 4b04 	ldr.w	r4, [sp], #4
 80053a2:	4770      	bx	lr

080053a4 <prvUnlockQueue>:
 80053a4:	b570      	push	{r4, r5, r6, lr}
 80053a6:	4604      	mov	r4, r0
 80053a8:	f001 f98c 	bl	80066c4 <vPortEnterCritical>
 80053ac:	f894 5045 	ldrb.w	r5, [r4, #69]	@ 0x45
 80053b0:	f104 0624 	add.w	r6, r4, #36	@ 0x24
 80053b4:	b26d      	sxtb	r5, r5
 80053b6:	2d00      	cmp	r5, #0
 80053b8:	dd01      	ble.n	80053be <prvUnlockQueue+0x1a>
 80053ba:	6a63      	ldr	r3, [r4, #36]	@ 0x24
 80053bc:	b9b3      	cbnz	r3, 80053ec <prvUnlockQueue+0x48>
 80053be:	23ff      	movs	r3, #255	@ 0xff
 80053c0:	f884 3045 	strb.w	r3, [r4, #69]	@ 0x45
 80053c4:	f001 f99e 	bl	8006704 <vPortExitCritical>
 80053c8:	f001 f97c 	bl	80066c4 <vPortEnterCritical>
 80053cc:	f894 5044 	ldrb.w	r5, [r4, #68]	@ 0x44
 80053d0:	f104 0610 	add.w	r6, r4, #16
 80053d4:	b26d      	sxtb	r5, r5
 80053d6:	2d00      	cmp	r5, #0
 80053d8:	dd01      	ble.n	80053de <prvUnlockQueue+0x3a>
 80053da:	6923      	ldr	r3, [r4, #16]
 80053dc:	b97b      	cbnz	r3, 80053fe <prvUnlockQueue+0x5a>
 80053de:	23ff      	movs	r3, #255	@ 0xff
 80053e0:	f884 3044 	strb.w	r3, [r4, #68]	@ 0x44
 80053e4:	e8bd 4070 	ldmia.w	sp!, {r4, r5, r6, lr}
 80053e8:	f001 b98c 	b.w	8006704 <vPortExitCritical>
 80053ec:	4630      	mov	r0, r6
 80053ee:	f000 fe3b 	bl	8006068 <xTaskRemoveFromEventList>
 80053f2:	b108      	cbz	r0, 80053f8 <prvUnlockQueue+0x54>
 80053f4:	f000 fec0 	bl	8006178 <vTaskMissedYield>
 80053f8:	3d01      	subs	r5, #1
 80053fa:	b26d      	sxtb	r5, r5
 80053fc:	e7db      	b.n	80053b6 <prvUnlockQueue+0x12>
 80053fe:	4630      	mov	r0, r6
 8005400:	f000 fe32 	bl	8006068 <xTaskRemoveFromEventList>
 8005404:	b108      	cbz	r0, 800540a <prvUnlockQueue+0x66>
 8005406:	f000 feb7 	bl	8006178 <vTaskMissedYield>
 800540a:	3d01      	subs	r5, #1
 800540c:	b26d      	sxtb	r5, r5
 800540e:	e7e2      	b.n	80053d6 <prvUnlockQueue+0x32>

08005410 <xQueueGenericReset>:
 8005410:	b538      	push	{r3, r4, r5, lr}
 8005412:	460d      	mov	r5, r1
 8005414:	4604      	mov	r4, r0
 8005416:	b940      	cbnz	r0, 800542a <xQueueGenericReset+0x1a>
 8005418:	f04f 0350 	mov.w	r3, #80	@ 0x50
 800541c:	f383 8811 	msr	BASEPRI, r3
 8005420:	f3bf 8f6f 	isb	sy
 8005424:	f3bf 8f4f 	dsb	sy
 8005428:	e7fe      	b.n	8005428 <xQueueGenericReset+0x18>
 800542a:	f001 f94b 	bl	80066c4 <vPortEnterCritical>
 800542e:	e9d4 310f 	ldrd	r3, r1, [r4, #60]	@ 0x3c
 8005432:	6822      	ldr	r2, [r4, #0]
 8005434:	6062      	str	r2, [r4, #4]
 8005436:	434b      	muls	r3, r1
 8005438:	18d0      	adds	r0, r2, r3
 800543a:	1a5b      	subs	r3, r3, r1
 800543c:	441a      	add	r2, r3
 800543e:	60a0      	str	r0, [r4, #8]
 8005440:	23ff      	movs	r3, #255	@ 0xff
 8005442:	2000      	movs	r0, #0
 8005444:	63a0      	str	r0, [r4, #56]	@ 0x38
 8005446:	60e2      	str	r2, [r4, #12]
 8005448:	f884 3044 	strb.w	r3, [r4, #68]	@ 0x44
 800544c:	f884 3045 	strb.w	r3, [r4, #69]	@ 0x45
 8005450:	b9a5      	cbnz	r5, 800547c <xQueueGenericReset+0x6c>
 8005452:	6923      	ldr	r3, [r4, #16]
 8005454:	b173      	cbz	r3, 8005474 <xQueueGenericReset+0x64>
 8005456:	f104 0010 	add.w	r0, r4, #16
 800545a:	f000 fe05 	bl	8006068 <xTaskRemoveFromEventList>
 800545e:	b148      	cbz	r0, 8005474 <xQueueGenericReset+0x64>
 8005460:	f04f 23e0 	mov.w	r3, #3758153728	@ 0xe000e000
 8005464:	f04f 5280 	mov.w	r2, #268435456	@ 0x10000000
 8005468:	f8c3 2d04 	str.w	r2, [r3, #3332]	@ 0xd04
 800546c:	f3bf 8f4f 	dsb	sy
 8005470:	f3bf 8f6f 	isb	sy
 8005474:	f001 f946 	bl	8006704 <vPortExitCritical>
 8005478:	2001      	movs	r0, #1
 800547a:	bd38      	pop	{r3, r4, r5, pc}
 800547c:	f104 0010 	add.w	r0, r4, #16
 8005480:	f7ff fefc 	bl	800527c <vListInitialise>
 8005484:	f104 0024 	add.w	r0, r4, #36	@ 0x24
 8005488:	f7ff fef8 	bl	800527c <vListInitialise>
 800548c:	e7f2      	b.n	8005474 <xQueueGenericReset+0x64>

0800548e <xQueueGenericCreateStatic>:
 800548e:	b537      	push	{r0, r1, r2, r4, r5, lr}
 8005490:	460d      	mov	r5, r1
 8005492:	461c      	mov	r4, r3
 8005494:	b940      	cbnz	r0, 80054a8 <xQueueGenericCreateStatic+0x1a>
 8005496:	f04f 0350 	mov.w	r3, #80	@ 0x50
 800549a:	f383 8811 	msr	BASEPRI, r3
 800549e:	f3bf 8f6f 	isb	sy
 80054a2:	f3bf 8f4f 	dsb	sy
 80054a6:	e7fe      	b.n	80054a6 <xQueueGenericCreateStatic+0x18>
 80054a8:	b943      	cbnz	r3, 80054bc <xQueueGenericCreateStatic+0x2e>
 80054aa:	f04f 0350 	mov.w	r3, #80	@ 0x50
 80054ae:	f383 8811 	msr	BASEPRI, r3
 80054b2:	f3bf 8f6f 	isb	sy
 80054b6:	f3bf 8f4f 	dsb	sy
 80054ba:	e7fe      	b.n	80054ba <xQueueGenericCreateStatic+0x2c>
 80054bc:	b14a      	cbz	r2, 80054d2 <xQueueGenericCreateStatic+0x44>
 80054be:	b991      	cbnz	r1, 80054e6 <xQueueGenericCreateStatic+0x58>
 80054c0:	f04f 0350 	mov.w	r3, #80	@ 0x50
 80054c4:	f383 8811 	msr	BASEPRI, r3
 80054c8:	f3bf 8f6f 	isb	sy
 80054cc:	f3bf 8f4f 	dsb	sy
 80054d0:	e7fe      	b.n	80054d0 <xQueueGenericCreateStatic+0x42>
 80054d2:	b141      	cbz	r1, 80054e6 <xQueueGenericCreateStatic+0x58>
 80054d4:	f04f 0350 	mov.w	r3, #80	@ 0x50
 80054d8:	f383 8811 	msr	BASEPRI, r3
 80054dc:	f3bf 8f6f 	isb	sy
 80054e0:	f3bf 8f4f 	dsb	sy
 80054e4:	e7fe      	b.n	80054e4 <xQueueGenericCreateStatic+0x56>
 80054e6:	2350      	movs	r3, #80	@ 0x50
 80054e8:	9301      	str	r3, [sp, #4]
 80054ea:	9b01      	ldr	r3, [sp, #4]
 80054ec:	2b50      	cmp	r3, #80	@ 0x50
 80054ee:	d008      	beq.n	8005502 <xQueueGenericCreateStatic+0x74>
 80054f0:	f04f 0350 	mov.w	r3, #80	@ 0x50
 80054f4:	f383 8811 	msr	BASEPRI, r3
 80054f8:	f3bf 8f6f 	isb	sy
 80054fc:	f3bf 8f4f 	dsb	sy
 8005500:	e7fe      	b.n	8005500 <xQueueGenericCreateStatic+0x72>
 8005502:	2101      	movs	r1, #1
 8005504:	2d00      	cmp	r5, #0
 8005506:	bf08      	it	eq
 8005508:	4622      	moveq	r2, r4
 800550a:	e9c4 050f 	strd	r0, r5, [r4, #60]	@ 0x3c
 800550e:	f884 1046 	strb.w	r1, [r4, #70]	@ 0x46
 8005512:	6022      	str	r2, [r4, #0]
 8005514:	4620      	mov	r0, r4
 8005516:	9b01      	ldr	r3, [sp, #4]
 8005518:	f7ff ff7a 	bl	8005410 <xQueueGenericReset>
 800551c:	f89d 3018 	ldrb.w	r3, [sp, #24]
 8005520:	f884 304c 	strb.w	r3, [r4, #76]	@ 0x4c
 8005524:	4620      	mov	r0, r4
 8005526:	b003      	add	sp, #12
 8005528:	bd30      	pop	{r4, r5, pc}

0800552a <xQueueGenericSend>:
 800552a:	e92d 41ff 	stmdb	sp!, {r0, r1, r2, r3, r4, r5, r6, r7, r8, lr}
 800552e:	460f      	mov	r7, r1
 8005530:	9201      	str	r2, [sp, #4]
 8005532:	461e      	mov	r6, r3
 8005534:	4604      	mov	r4, r0
 8005536:	b940      	cbnz	r0, 800554a <xQueueGenericSend+0x20>
 8005538:	f04f 0350 	mov.w	r3, #80	@ 0x50
 800553c:	f383 8811 	msr	BASEPRI, r3
 8005540:	f3bf 8f6f 	isb	sy
 8005544:	f3bf 8f4f 	dsb	sy
 8005548:	e7fe      	b.n	8005548 <xQueueGenericSend+0x1e>
 800554a:	b951      	cbnz	r1, 8005562 <xQueueGenericSend+0x38>
 800554c:	6c03      	ldr	r3, [r0, #64]	@ 0x40
 800554e:	b143      	cbz	r3, 8005562 <xQueueGenericSend+0x38>
 8005550:	f04f 0350 	mov.w	r3, #80	@ 0x50
 8005554:	f383 8811 	msr	BASEPRI, r3
 8005558:	f3bf 8f6f 	isb	sy
 800555c:	f3bf 8f4f 	dsb	sy
 8005560:	e7fe      	b.n	8005560 <xQueueGenericSend+0x36>
 8005562:	2e02      	cmp	r6, #2
 8005564:	d10b      	bne.n	800557e <xQueueGenericSend+0x54>
 8005566:	6be3      	ldr	r3, [r4, #60]	@ 0x3c
 8005568:	2b01      	cmp	r3, #1
 800556a:	d008      	beq.n	800557e <xQueueGenericSend+0x54>
 800556c:	f04f 0350 	mov.w	r3, #80	@ 0x50
 8005570:	f383 8811 	msr	BASEPRI, r3
 8005574:	f3bf 8f6f 	isb	sy
 8005578:	f3bf 8f4f 	dsb	sy
 800557c:	e7fe      	b.n	800557c <xQueueGenericSend+0x52>
 800557e:	f000 fe01 	bl	8006184 <xTaskGetSchedulerState>
 8005582:	4605      	mov	r5, r0
 8005584:	b320      	cbz	r0, 80055d0 <xQueueGenericSend+0xa6>
 8005586:	2500      	movs	r5, #0
 8005588:	f04f 0800 	mov.w	r8, #0
 800558c:	f001 f89a 	bl	80066c4 <vPortEnterCritical>
 8005590:	6ba2      	ldr	r2, [r4, #56]	@ 0x38
 8005592:	6be3      	ldr	r3, [r4, #60]	@ 0x3c
 8005594:	429a      	cmp	r2, r3
 8005596:	d227      	bcs.n	80055e8 <xQueueGenericSend+0xbe>
 8005598:	4632      	mov	r2, r6
 800559a:	4639      	mov	r1, r7
 800559c:	4620      	mov	r0, r4
 800559e:	f7ff feb8 	bl	8005312 <prvCopyDataToQueue>
 80055a2:	6a63      	ldr	r3, [r4, #36]	@ 0x24
 80055a4:	b11b      	cbz	r3, 80055ae <xQueueGenericSend+0x84>
 80055a6:	f104 0024 	add.w	r0, r4, #36	@ 0x24
 80055aa:	f000 fd5d 	bl	8006068 <xTaskRemoveFromEventList>
 80055ae:	b148      	cbz	r0, 80055c4 <xQueueGenericSend+0x9a>
 80055b0:	f04f 23e0 	mov.w	r3, #3758153728	@ 0xe000e000
 80055b4:	f04f 5280 	mov.w	r2, #268435456	@ 0x10000000
 80055b8:	f8c3 2d04 	str.w	r2, [r3, #3332]	@ 0xd04
 80055bc:	f3bf 8f4f 	dsb	sy
 80055c0:	f3bf 8f6f 	isb	sy
 80055c4:	f001 f89e 	bl	8006704 <vPortExitCritical>
 80055c8:	2001      	movs	r0, #1
 80055ca:	b004      	add	sp, #16
 80055cc:	e8bd 81f0 	ldmia.w	sp!, {r4, r5, r6, r7, r8, pc}
 80055d0:	9b01      	ldr	r3, [sp, #4]
 80055d2:	2b00      	cmp	r3, #0
 80055d4:	d0d8      	beq.n	8005588 <xQueueGenericSend+0x5e>
 80055d6:	f04f 0350 	mov.w	r3, #80	@ 0x50
 80055da:	f383 8811 	msr	BASEPRI, r3
 80055de:	f3bf 8f6f 	isb	sy
 80055e2:	f3bf 8f4f 	dsb	sy
 80055e6:	e7fe      	b.n	80055e6 <xQueueGenericSend+0xbc>
 80055e8:	2e02      	cmp	r6, #2
 80055ea:	d0d5      	beq.n	8005598 <xQueueGenericSend+0x6e>
 80055ec:	9b01      	ldr	r3, [sp, #4]
 80055ee:	b91b      	cbnz	r3, 80055f8 <xQueueGenericSend+0xce>
 80055f0:	f001 f888 	bl	8006704 <vPortExitCritical>
 80055f4:	2000      	movs	r0, #0
 80055f6:	e7e8      	b.n	80055ca <xQueueGenericSend+0xa0>
 80055f8:	b915      	cbnz	r5, 8005600 <xQueueGenericSend+0xd6>
 80055fa:	a802      	add	r0, sp, #8
 80055fc:	f000 fd74 	bl	80060e8 <vTaskInternalSetTimeOutState>
 8005600:	f001 f880 	bl	8006704 <vPortExitCritical>
 8005604:	f000 fb82 	bl	8005d0c <vTaskSuspendAll>
 8005608:	f001 f85c 	bl	80066c4 <vPortEnterCritical>
 800560c:	f894 3044 	ldrb.w	r3, [r4, #68]	@ 0x44
 8005610:	2bff      	cmp	r3, #255	@ 0xff
 8005612:	bf08      	it	eq
 8005614:	f884 8044 	strbeq.w	r8, [r4, #68]	@ 0x44
 8005618:	f894 3045 	ldrb.w	r3, [r4, #69]	@ 0x45
 800561c:	2bff      	cmp	r3, #255	@ 0xff
 800561e:	bf08      	it	eq
 8005620:	f884 8045 	strbeq.w	r8, [r4, #69]	@ 0x45
 8005624:	f001 f86e 	bl	8006704 <vPortExitCritical>
 8005628:	a901      	add	r1, sp, #4
 800562a:	a802      	add	r0, sp, #8
 800562c:	f000 fd68 	bl	8006100 <xTaskCheckForTimeOut>
 8005630:	bb38      	cbnz	r0, 8005682 <xQueueGenericSend+0x158>
 8005632:	f001 f847 	bl	80066c4 <vPortEnterCritical>
 8005636:	6ba2      	ldr	r2, [r4, #56]	@ 0x38
 8005638:	6be3      	ldr	r3, [r4, #60]	@ 0x3c
 800563a:	429a      	cmp	r2, r3
 800563c:	d10e      	bne.n	800565c <xQueueGenericSend+0x132>
 800563e:	f001 f861 	bl	8006704 <vPortExitCritical>
 8005642:	9901      	ldr	r1, [sp, #4]
 8005644:	f104 0010 	add.w	r0, r4, #16
 8005648:	f000 fcd6 	bl	8005ff8 <vTaskPlaceOnEventList>
 800564c:	4620      	mov	r0, r4
 800564e:	f7ff fea9 	bl	80053a4 <prvUnlockQueue>
 8005652:	f000 fbff 	bl	8005e54 <xTaskResumeAll>
 8005656:	b148      	cbz	r0, 800566c <xQueueGenericSend+0x142>
 8005658:	2501      	movs	r5, #1
 800565a:	e797      	b.n	800558c <xQueueGenericSend+0x62>
 800565c:	f001 f852 	bl	8006704 <vPortExitCritical>
 8005660:	4620      	mov	r0, r4
 8005662:	f7ff fe9f 	bl	80053a4 <prvUnlockQueue>
 8005666:	f000 fbf5 	bl	8005e54 <xTaskResumeAll>
 800566a:	e7f5      	b.n	8005658 <xQueueGenericSend+0x12e>
 800566c:	f04f 23e0 	mov.w	r3, #3758153728	@ 0xe000e000
 8005670:	f04f 5280 	mov.w	r2, #268435456	@ 0x10000000
 8005674:	f8c3 2d04 	str.w	r2, [r3, #3332]	@ 0xd04
 8005678:	f3bf 8f4f 	dsb	sy
 800567c:	f3bf 8f6f 	isb	sy
 8005680:	e7ea      	b.n	8005658 <xQueueGenericSend+0x12e>
 8005682:	4620      	mov	r0, r4
 8005684:	f7ff fe8e 	bl	80053a4 <prvUnlockQueue>
 8005688:	f000 fbe4 	bl	8005e54 <xTaskResumeAll>
 800568c:	e7b2      	b.n	80055f4 <xQueueGenericSend+0xca>

0800568e <xQueueGenericSendFromISR>:
 800568e:	e92d 43f8 	stmdb	sp!, {r3, r4, r5, r6, r7, r8, r9, lr}
 8005692:	4689      	mov	r9, r1
 8005694:	4617      	mov	r7, r2
 8005696:	461e      	mov	r6, r3
 8005698:	4604      	mov	r4, r0
 800569a:	b940      	cbnz	r0, 80056ae <xQueueGenericSendFromISR+0x20>
 800569c:	f04f 0350 	mov.w	r3, #80	@ 0x50
 80056a0:	f383 8811 	msr	BASEPRI, r3
 80056a4:	f3bf 8f6f 	isb	sy
 80056a8:	f3bf 8f4f 	dsb	sy
 80056ac:	e7fe      	b.n	80056ac <xQueueGenericSendFromISR+0x1e>
 80056ae:	b951      	cbnz	r1, 80056c6 <xQueueGenericSendFromISR+0x38>
 80056b0:	6c03      	ldr	r3, [r0, #64]	@ 0x40
 80056b2:	b143      	cbz	r3, 80056c6 <xQueueGenericSendFromISR+0x38>
 80056b4:	f04f 0350 	mov.w	r3, #80	@ 0x50
 80056b8:	f383 8811 	msr	BASEPRI, r3
 80056bc:	f3bf 8f6f 	isb	sy
 80056c0:	f3bf 8f4f 	dsb	sy
 80056c4:	e7fe      	b.n	80056c4 <xQueueGenericSendFromISR+0x36>
 80056c6:	2e02      	cmp	r6, #2
 80056c8:	d10b      	bne.n	80056e2 <xQueueGenericSendFromISR+0x54>
 80056ca:	6be3      	ldr	r3, [r4, #60]	@ 0x3c
 80056cc:	2b01      	cmp	r3, #1
 80056ce:	d008      	beq.n	80056e2 <xQueueGenericSendFromISR+0x54>
 80056d0:	f04f 0350 	mov.w	r3, #80	@ 0x50
 80056d4:	f383 8811 	msr	BASEPRI, r3
 80056d8:	f3bf 8f6f 	isb	sy
 80056dc:	f3bf 8f4f 	dsb	sy
 80056e0:	e7fe      	b.n	80056e0 <xQueueGenericSendFromISR+0x52>
 80056e2:	f001 f901 	bl	80068e8 <vPortValidateInterruptPriority>
 80056e6:	f3ef 8811 	mrs	r8, BASEPRI
 80056ea:	f04f 0350 	mov.w	r3, #80	@ 0x50
 80056ee:	f383 8811 	msr	BASEPRI, r3
 80056f2:	f3bf 8f6f 	isb	sy
 80056f6:	f3bf 8f4f 	dsb	sy
 80056fa:	6ba2      	ldr	r2, [r4, #56]	@ 0x38
 80056fc:	6be3      	ldr	r3, [r4, #60]	@ 0x3c
 80056fe:	429a      	cmp	r2, r3
 8005700:	d301      	bcc.n	8005706 <xQueueGenericSendFromISR+0x78>
 8005702:	2e02      	cmp	r6, #2
 8005704:	d11e      	bne.n	8005744 <xQueueGenericSendFromISR+0xb6>
 8005706:	f894 5045 	ldrb.w	r5, [r4, #69]	@ 0x45
 800570a:	6ba3      	ldr	r3, [r4, #56]	@ 0x38
 800570c:	b26d      	sxtb	r5, r5
 800570e:	4632      	mov	r2, r6
 8005710:	4649      	mov	r1, r9
 8005712:	4620      	mov	r0, r4
 8005714:	f7ff fdfd 	bl	8005312 <prvCopyDataToQueue>
 8005718:	1c6b      	adds	r3, r5, #1
 800571a:	d10e      	bne.n	800573a <xQueueGenericSendFromISR+0xac>
 800571c:	6a63      	ldr	r3, [r4, #36]	@ 0x24
 800571e:	b13b      	cbz	r3, 8005730 <xQueueGenericSendFromISR+0xa2>
 8005720:	f104 0024 	add.w	r0, r4, #36	@ 0x24
 8005724:	f000 fca0 	bl	8006068 <xTaskRemoveFromEventList>
 8005728:	b110      	cbz	r0, 8005730 <xQueueGenericSendFromISR+0xa2>
 800572a:	b10f      	cbz	r7, 8005730 <xQueueGenericSendFromISR+0xa2>
 800572c:	2301      	movs	r3, #1
 800572e:	603b      	str	r3, [r7, #0]
 8005730:	2001      	movs	r0, #1
 8005732:	f388 8811 	msr	BASEPRI, r8
 8005736:	e8bd 83f8 	ldmia.w	sp!, {r3, r4, r5, r6, r7, r8, r9, pc}
 800573a:	3501      	adds	r5, #1
 800573c:	b26d      	sxtb	r5, r5
 800573e:	f884 5045 	strb.w	r5, [r4, #69]	@ 0x45
 8005742:	e7f5      	b.n	8005730 <xQueueGenericSendFromISR+0xa2>
 8005744:	2000      	movs	r0, #0
 8005746:	e7f4      	b.n	8005732 <xQueueGenericSendFromISR+0xa4>

08005748 <xQueueReceive>:
 8005748:	e92d 41ff 	stmdb	sp!, {r0, r1, r2, r3, r4, r5, r6, r7, r8, lr}
 800574c:	460e      	mov	r6, r1
 800574e:	9201      	str	r2, [sp, #4]
 8005750:	4604      	mov	r4, r0
 8005752:	b940      	cbnz	r0, 8005766 <xQueueReceive+0x1e>
 8005754:	f04f 0350 	mov.w	r3, #80	@ 0x50
 8005758:	f383 8811 	msr	BASEPRI, r3
 800575c:	f3bf 8f6f 	isb	sy
 8005760:	f3bf 8f4f 	dsb	sy
 8005764:	e7fe      	b.n	8005764 <xQueueReceive+0x1c>
 8005766:	b951      	cbnz	r1, 800577e <xQueueReceive+0x36>
 8005768:	6c03      	ldr	r3, [r0, #64]	@ 0x40
 800576a:	b143      	cbz	r3, 800577e <xQueueReceive+0x36>
 800576c:	f04f 0350 	mov.w	r3, #80	@ 0x50
 8005770:	f383 8811 	msr	BASEPRI, r3
 8005774:	f3bf 8f6f 	isb	sy
 8005778:	f3bf 8f4f 	dsb	sy
 800577c:	e7fe      	b.n	800577c <xQueueReceive+0x34>
 800577e:	f000 fd01 	bl	8006184 <xTaskGetSchedulerState>
 8005782:	4605      	mov	r5, r0
 8005784:	b318      	cbz	r0, 80057ce <xQueueReceive+0x86>
 8005786:	2500      	movs	r5, #0
 8005788:	f04f 0800 	mov.w	r8, #0
 800578c:	f000 ff9a 	bl	80066c4 <vPortEnterCritical>
 8005790:	6ba7      	ldr	r7, [r4, #56]	@ 0x38
 8005792:	b347      	cbz	r7, 80057e6 <xQueueReceive+0x9e>
 8005794:	4631      	mov	r1, r6
 8005796:	4620      	mov	r0, r4
 8005798:	3f01      	subs	r7, #1
 800579a:	f7ff fded 	bl	8005378 <prvCopyDataFromQueue>
 800579e:	63a7      	str	r7, [r4, #56]	@ 0x38
 80057a0:	6923      	ldr	r3, [r4, #16]
 80057a2:	b173      	cbz	r3, 80057c2 <xQueueReceive+0x7a>
 80057a4:	f104 0010 	add.w	r0, r4, #16
 80057a8:	f000 fc5e 	bl	8006068 <xTaskRemoveFromEventList>
 80057ac:	b148      	cbz	r0, 80057c2 <xQueueReceive+0x7a>
 80057ae:	f04f 23e0 	mov.w	r3, #3758153728	@ 0xe000e000
 80057b2:	f04f 5280 	mov.w	r2, #268435456	@ 0x10000000
 80057b6:	f8c3 2d04 	str.w	r2, [r3, #3332]	@ 0xd04
 80057ba:	f3bf 8f4f 	dsb	sy
 80057be:	f3bf 8f6f 	isb	sy
 80057c2:	f000 ff9f 	bl	8006704 <vPortExitCritical>
 80057c6:	2001      	movs	r0, #1
 80057c8:	b004      	add	sp, #16
 80057ca:	e8bd 81f0 	ldmia.w	sp!, {r4, r5, r6, r7, r8, pc}
 80057ce:	9b01      	ldr	r3, [sp, #4]
 80057d0:	2b00      	cmp	r3, #0
 80057d2:	d0d9      	beq.n	8005788 <xQueueReceive+0x40>
 80057d4:	f04f 0350 	mov.w	r3, #80	@ 0x50
 80057d8:	f383 8811 	msr	BASEPRI, r3
 80057dc:	f3bf 8f6f 	isb	sy
 80057e0:	f3bf 8f4f 	dsb	sy
 80057e4:	e7fe      	b.n	80057e4 <xQueueReceive+0x9c>
 80057e6:	9b01      	ldr	r3, [sp, #4]
 80057e8:	b91b      	cbnz	r3, 80057f2 <xQueueReceive+0xaa>
 80057ea:	f000 ff8b 	bl	8006704 <vPortExitCritical>
 80057ee:	2000      	movs	r0, #0
 80057f0:	e7ea      	b.n	80057c8 <xQueueReceive+0x80>
 80057f2:	b915      	cbnz	r5, 80057fa <xQueueReceive+0xb2>
 80057f4:	a802      	add	r0, sp, #8
 80057f6:	f000 fc77 	bl	80060e8 <vTaskInternalSetTimeOutState>
 80057fa:	f000 ff83 	bl	8006704 <vPortExitCritical>
 80057fe:	f000 fa85 	bl	8005d0c <vTaskSuspendAll>
 8005802:	f000 ff5f 	bl	80066c4 <vPortEnterCritical>
 8005806:	f894 3044 	ldrb.w	r3, [r4, #68]	@ 0x44
 800580a:	2bff      	cmp	r3, #255	@ 0xff
 800580c:	bf08      	it	eq
 800580e:	f884 8044 	strbeq.w	r8, [r4, #68]	@ 0x44
 8005812:	f894 3045 	ldrb.w	r3, [r4, #69]	@ 0x45
 8005816:	2bff      	cmp	r3, #255	@ 0xff
 8005818:	bf08      	it	eq
 800581a:	f884 8045 	strbeq.w	r8, [r4, #69]	@ 0x45
 800581e:	f000 ff71 	bl	8006704 <vPortExitCritical>
 8005822:	a901      	add	r1, sp, #4
 8005824:	a802      	add	r0, sp, #8
 8005826:	f000 fc6b 	bl	8006100 <xTaskCheckForTimeOut>
 800582a:	bb00      	cbnz	r0, 800586e <xQueueReceive+0x126>
 800582c:	4620      	mov	r0, r4
 800582e:	f7ff fd65 	bl	80052fc <prvIsQueueEmpty>
 8005832:	b1b0      	cbz	r0, 8005862 <xQueueReceive+0x11a>
 8005834:	9901      	ldr	r1, [sp, #4]
 8005836:	f104 0024 	add.w	r0, r4, #36	@ 0x24
 800583a:	f000 fbdd 	bl	8005ff8 <vTaskPlaceOnEventList>
 800583e:	4620      	mov	r0, r4
 8005840:	f7ff fdb0 	bl	80053a4 <prvUnlockQueue>
 8005844:	f000 fb06 	bl	8005e54 <xTaskResumeAll>
 8005848:	b948      	cbnz	r0, 800585e <xQueueReceive+0x116>
 800584a:	f04f 23e0 	mov.w	r3, #3758153728	@ 0xe000e000
 800584e:	f04f 5280 	mov.w	r2, #268435456	@ 0x10000000
 8005852:	f8c3 2d04 	str.w	r2, [r3, #3332]	@ 0xd04
 8005856:	f3bf 8f4f 	dsb	sy
 800585a:	f3bf 8f6f 	isb	sy
 800585e:	2501      	movs	r5, #1
 8005860:	e794      	b.n	800578c <xQueueReceive+0x44>
 8005862:	4620      	mov	r0, r4
 8005864:	f7ff fd9e 	bl	80053a4 <prvUnlockQueue>
 8005868:	f000 faf4 	bl	8005e54 <xTaskResumeAll>
 800586c:	e7f7      	b.n	800585e <xQueueReceive+0x116>
 800586e:	4620      	mov	r0, r4
 8005870:	f7ff fd98 	bl	80053a4 <prvUnlockQueue>
 8005874:	f000 faee 	bl	8005e54 <xTaskResumeAll>
 8005878:	4620      	mov	r0, r4
 800587a:	f7ff fd3f 	bl	80052fc <prvIsQueueEmpty>
 800587e:	2800      	cmp	r0, #0
 8005880:	d0ed      	beq.n	800585e <xQueueReceive+0x116>
 8005882:	e7b4      	b.n	80057ee <xQueueReceive+0xa6>

08005884 <vQueueAddToRegistry>:
 8005884:	b530      	push	{r4, r5, lr}
 8005886:	4a07      	ldr	r2, [pc, #28]	@ (80058a4 <vQueueAddToRegistry+0x20>)
 8005888:	2300      	movs	r3, #0
 800588a:	f852 5033 	ldr.w	r5, [r2, r3, lsl #3]
 800588e:	eb02 04c3 	add.w	r4, r2, r3, lsl #3
 8005892:	b91d      	cbnz	r5, 800589c <vQueueAddToRegistry+0x18>
 8005894:	f842 1033 	str.w	r1, [r2, r3, lsl #3]
 8005898:	6060      	str	r0, [r4, #4]
 800589a:	bd30      	pop	{r4, r5, pc}
 800589c:	3301      	adds	r3, #1
 800589e:	2b08      	cmp	r3, #8
 80058a0:	d1f3      	bne.n	800588a <vQueueAddToRegistry+0x6>
 80058a2:	e7fa      	b.n	800589a <vQueueAddToRegistry+0x16>
 80058a4:	2000346c 	.word	0x2000346c

080058a8 <vQueueWaitForMessageRestricted>:
 80058a8:	b570      	push	{r4, r5, r6, lr}
 80058aa:	4604      	mov	r4, r0
 80058ac:	460d      	mov	r5, r1
 80058ae:	4616      	mov	r6, r2
 80058b0:	f000 ff08 	bl	80066c4 <vPortEnterCritical>
 80058b4:	f894 3044 	ldrb.w	r3, [r4, #68]	@ 0x44
 80058b8:	2bff      	cmp	r3, #255	@ 0xff
 80058ba:	bf04      	itt	eq
 80058bc:	2300      	moveq	r3, #0
 80058be:	f884 3044 	strbeq.w	r3, [r4, #68]	@ 0x44
 80058c2:	f894 3045 	ldrb.w	r3, [r4, #69]	@ 0x45
 80058c6:	2bff      	cmp	r3, #255	@ 0xff
 80058c8:	bf04      	itt	eq
 80058ca:	2300      	moveq	r3, #0
 80058cc:	f884 3045 	strbeq.w	r3, [r4, #69]	@ 0x45
 80058d0:	f000 ff18 	bl	8006704 <vPortExitCritical>
 80058d4:	6ba3      	ldr	r3, [r4, #56]	@ 0x38
 80058d6:	b92b      	cbnz	r3, 80058e4 <vQueueWaitForMessageRestricted+0x3c>
 80058d8:	4632      	mov	r2, r6
 80058da:	4629      	mov	r1, r5
 80058dc:	f104 0024 	add.w	r0, r4, #36	@ 0x24
 80058e0:	f000 fba4 	bl	800602c <vTaskPlaceOnEventListRestricted>
 80058e4:	4620      	mov	r0, r4
 80058e6:	e8bd 4070 	ldmia.w	sp!, {r4, r5, r6, lr}
 80058ea:	f7ff bd5b 	b.w	80053a4 <prvUnlockQueue>
	...

080058f0 <prvAddNewTaskToReadyList>:
 80058f0:	e92d 41f0 	stmdb	sp!, {r4, r5, r6, r7, r8, lr}
 80058f4:	4604      	mov	r4, r0
 80058f6:	f000 fee5 	bl	80066c4 <vPortEnterCritical>
 80058fa:	4b30      	ldr	r3, [pc, #192]	@ (80059bc <prvAddNewTaskToReadyList+0xcc>)
 80058fc:	4e30      	ldr	r6, [pc, #192]	@ (80059c0 <prvAddNewTaskToReadyList+0xd0>)
 80058fe:	681a      	ldr	r2, [r3, #0]
 8005900:	4f30      	ldr	r7, [pc, #192]	@ (80059c4 <prvAddNewTaskToReadyList+0xd4>)
 8005902:	3201      	adds	r2, #1
 8005904:	601a      	str	r2, [r3, #0]
 8005906:	6835      	ldr	r5, [r6, #0]
 8005908:	2d00      	cmp	r5, #0
 800590a:	d14b      	bne.n	80059a4 <prvAddNewTaskToReadyList+0xb4>
 800590c:	6034      	str	r4, [r6, #0]
 800590e:	681b      	ldr	r3, [r3, #0]
 8005910:	2b01      	cmp	r3, #1
 8005912:	d11f      	bne.n	8005954 <prvAddNewTaskToReadyList+0x64>
 8005914:	46b8      	mov	r8, r7
 8005916:	4640      	mov	r0, r8
 8005918:	3501      	adds	r5, #1
 800591a:	f7ff fcaf 	bl	800527c <vListInitialise>
 800591e:	2d38      	cmp	r5, #56	@ 0x38
 8005920:	f108 0814 	add.w	r8, r8, #20
 8005924:	d1f7      	bne.n	8005916 <prvAddNewTaskToReadyList+0x26>
 8005926:	f8df 80c4 	ldr.w	r8, [pc, #196]	@ 80059ec <prvAddNewTaskToReadyList+0xfc>
 800592a:	4d27      	ldr	r5, [pc, #156]	@ (80059c8 <prvAddNewTaskToReadyList+0xd8>)
 800592c:	4640      	mov	r0, r8
 800592e:	f7ff fca5 	bl	800527c <vListInitialise>
 8005932:	4628      	mov	r0, r5
 8005934:	f7ff fca2 	bl	800527c <vListInitialise>
 8005938:	4824      	ldr	r0, [pc, #144]	@ (80059cc <prvAddNewTaskToReadyList+0xdc>)
 800593a:	f7ff fc9f 	bl	800527c <vListInitialise>
 800593e:	4824      	ldr	r0, [pc, #144]	@ (80059d0 <prvAddNewTaskToReadyList+0xe0>)
 8005940:	f7ff fc9c 	bl	800527c <vListInitialise>
 8005944:	4823      	ldr	r0, [pc, #140]	@ (80059d4 <prvAddNewTaskToReadyList+0xe4>)
 8005946:	f7ff fc99 	bl	800527c <vListInitialise>
 800594a:	4b23      	ldr	r3, [pc, #140]	@ (80059d8 <prvAddNewTaskToReadyList+0xe8>)
 800594c:	f8c3 8000 	str.w	r8, [r3]
 8005950:	4b22      	ldr	r3, [pc, #136]	@ (80059dc <prvAddNewTaskToReadyList+0xec>)
 8005952:	601d      	str	r5, [r3, #0]
 8005954:	4a22      	ldr	r2, [pc, #136]	@ (80059e0 <prvAddNewTaskToReadyList+0xf0>)
 8005956:	6813      	ldr	r3, [r2, #0]
 8005958:	3301      	adds	r3, #1
 800595a:	6013      	str	r3, [r2, #0]
 800595c:	4a21      	ldr	r2, [pc, #132]	@ (80059e4 <prvAddNewTaskToReadyList+0xf4>)
 800595e:	6463      	str	r3, [r4, #68]	@ 0x44
 8005960:	6811      	ldr	r1, [r2, #0]
 8005962:	6ae3      	ldr	r3, [r4, #44]	@ 0x2c
 8005964:	2014      	movs	r0, #20
 8005966:	428b      	cmp	r3, r1
 8005968:	fb00 7003 	mla	r0, r0, r3, r7
 800596c:	f104 0104 	add.w	r1, r4, #4
 8005970:	bf88      	it	hi
 8005972:	6013      	strhi	r3, [r2, #0]
 8005974:	f7ff fc90 	bl	8005298 <vListInsertEnd>
 8005978:	f000 fec4 	bl	8006704 <vPortExitCritical>
 800597c:	4b1a      	ldr	r3, [pc, #104]	@ (80059e8 <prvAddNewTaskToReadyList+0xf8>)
 800597e:	681b      	ldr	r3, [r3, #0]
 8005980:	b173      	cbz	r3, 80059a0 <prvAddNewTaskToReadyList+0xb0>
 8005982:	6833      	ldr	r3, [r6, #0]
 8005984:	6ada      	ldr	r2, [r3, #44]	@ 0x2c
 8005986:	6ae3      	ldr	r3, [r4, #44]	@ 0x2c
 8005988:	429a      	cmp	r2, r3
 800598a:	d209      	bcs.n	80059a0 <prvAddNewTaskToReadyList+0xb0>
 800598c:	f04f 23e0 	mov.w	r3, #3758153728	@ 0xe000e000
 8005990:	f04f 5280 	mov.w	r2, #268435456	@ 0x10000000
 8005994:	f8c3 2d04 	str.w	r2, [r3, #3332]	@ 0xd04
 8005998:	f3bf 8f4f 	dsb	sy
 800599c:	f3bf 8f6f 	isb	sy
 80059a0:	e8bd 81f0 	ldmia.w	sp!, {r4, r5, r6, r7, r8, pc}
 80059a4:	4b10      	ldr	r3, [pc, #64]	@ (80059e8 <prvAddNewTaskToReadyList+0xf8>)
 80059a6:	681a      	ldr	r2, [r3, #0]
 80059a8:	6ae3      	ldr	r3, [r4, #44]	@ 0x2c
 80059aa:	2a00      	cmp	r2, #0
 80059ac:	d1d2      	bne.n	8005954 <prvAddNewTaskToReadyList+0x64>
 80059ae:	6832      	ldr	r2, [r6, #0]
 80059b0:	6ad2      	ldr	r2, [r2, #44]	@ 0x2c
 80059b2:	429a      	cmp	r2, r3
 80059b4:	bf98      	it	ls
 80059b6:	6034      	strls	r4, [r6, #0]
 80059b8:	e7cc      	b.n	8005954 <prvAddNewTaskToReadyList+0x64>
 80059ba:	bf00      	nop
 80059bc:	200034d0 	.word	0x200034d0
 80059c0:	200039a4 	.word	0x200039a4
 80059c4:	20003544 	.word	0x20003544
 80059c8:	2000351c 	.word	0x2000351c
 80059cc:	20003500 	.word	0x20003500
 80059d0:	200034ec 	.word	0x200034ec
 80059d4:	200034d4 	.word	0x200034d4
 80059d8:	20003518 	.word	0x20003518
 80059dc:	20003514 	.word	0x20003514
 80059e0:	200034b4 	.word	0x200034b4
 80059e4:	200034c8 	.word	0x200034c8
 80059e8:	200034c4 	.word	0x200034c4
 80059ec:	20003530 	.word	0x20003530

080059f0 <prvAddCurrentTaskToDelayedList>:
 80059f0:	b5f8      	push	{r3, r4, r5, r6, r7, lr}
 80059f2:	4b15      	ldr	r3, [pc, #84]	@ (8005a48 <prvAddCurrentTaskToDelayedList+0x58>)
 80059f4:	4d15      	ldr	r5, [pc, #84]	@ (8005a4c <prvAddCurrentTaskToDelayedList+0x5c>)
 80059f6:	681c      	ldr	r4, [r3, #0]
 80059f8:	4606      	mov	r6, r0
 80059fa:	6828      	ldr	r0, [r5, #0]
 80059fc:	3004      	adds	r0, #4
 80059fe:	460f      	mov	r7, r1
 8005a00:	f7ff fc6c 	bl	80052dc <uxListRemove>
 8005a04:	1c73      	adds	r3, r6, #1
 8005a06:	d107      	bne.n	8005a18 <prvAddCurrentTaskToDelayedList+0x28>
 8005a08:	b137      	cbz	r7, 8005a18 <prvAddCurrentTaskToDelayedList+0x28>
 8005a0a:	6829      	ldr	r1, [r5, #0]
 8005a0c:	4810      	ldr	r0, [pc, #64]	@ (8005a50 <prvAddCurrentTaskToDelayedList+0x60>)
 8005a0e:	e8bd 40f8 	ldmia.w	sp!, {r3, r4, r5, r6, r7, lr}
 8005a12:	3104      	adds	r1, #4
 8005a14:	f7ff bc40 	b.w	8005298 <vListInsertEnd>
 8005a18:	682b      	ldr	r3, [r5, #0]
 8005a1a:	19a4      	adds	r4, r4, r6
 8005a1c:	605c      	str	r4, [r3, #4]
 8005a1e:	d307      	bcc.n	8005a30 <prvAddCurrentTaskToDelayedList+0x40>
 8005a20:	4b0c      	ldr	r3, [pc, #48]	@ (8005a54 <prvAddCurrentTaskToDelayedList+0x64>)
 8005a22:	6818      	ldr	r0, [r3, #0]
 8005a24:	6829      	ldr	r1, [r5, #0]
 8005a26:	e8bd 40f8 	ldmia.w	sp!, {r3, r4, r5, r6, r7, lr}
 8005a2a:	3104      	adds	r1, #4
 8005a2c:	f7ff bc3f 	b.w	80052ae <vListInsert>
 8005a30:	4b09      	ldr	r3, [pc, #36]	@ (8005a58 <prvAddCurrentTaskToDelayedList+0x68>)
 8005a32:	6818      	ldr	r0, [r3, #0]
 8005a34:	6829      	ldr	r1, [r5, #0]
 8005a36:	3104      	adds	r1, #4
 8005a38:	f7ff fc39 	bl	80052ae <vListInsert>
 8005a3c:	4b07      	ldr	r3, [pc, #28]	@ (8005a5c <prvAddCurrentTaskToDelayedList+0x6c>)
 8005a3e:	681a      	ldr	r2, [r3, #0]
 8005a40:	42a2      	cmp	r2, r4
 8005a42:	bf88      	it	hi
 8005a44:	601c      	strhi	r4, [r3, #0]
 8005a46:	bdf8      	pop	{r3, r4, r5, r6, r7, pc}
 8005a48:	200034cc 	.word	0x200034cc
 8005a4c:	200039a4 	.word	0x200039a4
 8005a50:	200034d4 	.word	0x200034d4
 8005a54:	20003514 	.word	0x20003514
 8005a58:	20003518 	.word	0x20003518
 8005a5c:	200034b0 	.word	0x200034b0

08005a60 <prvResetNextTaskUnblockTime>:
 8005a60:	4a06      	ldr	r2, [pc, #24]	@ (8005a7c <prvResetNextTaskUnblockTime+0x1c>)
 8005a62:	6813      	ldr	r3, [r2, #0]
 8005a64:	6819      	ldr	r1, [r3, #0]
 8005a66:	4b06      	ldr	r3, [pc, #24]	@ (8005a80 <prvResetNextTaskUnblockTime+0x20>)
 8005a68:	b919      	cbnz	r1, 8005a72 <prvResetNextTaskUnblockTime+0x12>
 8005a6a:	f04f 32ff 	mov.w	r2, #4294967295
 8005a6e:	601a      	str	r2, [r3, #0]
 8005a70:	4770      	bx	lr
 8005a72:	6812      	ldr	r2, [r2, #0]
 8005a74:	68d2      	ldr	r2, [r2, #12]
 8005a76:	68d2      	ldr	r2, [r2, #12]
 8005a78:	6852      	ldr	r2, [r2, #4]
 8005a7a:	e7f8      	b.n	8005a6e <prvResetNextTaskUnblockTime+0xe>
 8005a7c:	20003518 	.word	0x20003518
 8005a80:	200034b0 	.word	0x200034b0

08005a84 <prvDeleteTCB>:
 8005a84:	b510      	push	{r4, lr}
 8005a86:	f890 3059 	ldrb.w	r3, [r0, #89]	@ 0x59
 8005a8a:	4604      	mov	r4, r0
 8005a8c:	b93b      	cbnz	r3, 8005a9e <prvDeleteTCB+0x1a>
 8005a8e:	6b00      	ldr	r0, [r0, #48]	@ 0x30
 8005a90:	f001 f816 	bl	8006ac0 <vPortFree>
 8005a94:	4620      	mov	r0, r4
 8005a96:	e8bd 4010 	ldmia.w	sp!, {r4, lr}
 8005a9a:	f001 b811 	b.w	8006ac0 <vPortFree>
 8005a9e:	2b01      	cmp	r3, #1
 8005aa0:	d0f9      	beq.n	8005a96 <prvDeleteTCB+0x12>
 8005aa2:	2b02      	cmp	r3, #2
 8005aa4:	d008      	beq.n	8005ab8 <prvDeleteTCB+0x34>
 8005aa6:	f04f 0350 	mov.w	r3, #80	@ 0x50
 8005aaa:	f383 8811 	msr	BASEPRI, r3
 8005aae:	f3bf 8f6f 	isb	sy
 8005ab2:	f3bf 8f4f 	dsb	sy
 8005ab6:	e7fe      	b.n	8005ab6 <prvDeleteTCB+0x32>
 8005ab8:	bd10      	pop	{r4, pc}
	...

08005abc <prvIdleTask>:
 8005abc:	b580      	push	{r7, lr}
 8005abe:	4c13      	ldr	r4, [pc, #76]	@ (8005b0c <prvIdleTask+0x50>)
 8005ac0:	4f13      	ldr	r7, [pc, #76]	@ (8005b10 <prvIdleTask+0x54>)
 8005ac2:	4d14      	ldr	r5, [pc, #80]	@ (8005b14 <prvIdleTask+0x58>)
 8005ac4:	6823      	ldr	r3, [r4, #0]
 8005ac6:	b973      	cbnz	r3, 8005ae6 <prvIdleTask+0x2a>
 8005ac8:	4b13      	ldr	r3, [pc, #76]	@ (8005b18 <prvIdleTask+0x5c>)
 8005aca:	681b      	ldr	r3, [r3, #0]
 8005acc:	2b01      	cmp	r3, #1
 8005ace:	d9f8      	bls.n	8005ac2 <prvIdleTask+0x6>
 8005ad0:	f04f 23e0 	mov.w	r3, #3758153728	@ 0xe000e000
 8005ad4:	f04f 5280 	mov.w	r2, #268435456	@ 0x10000000
 8005ad8:	f8c3 2d04 	str.w	r2, [r3, #3332]	@ 0xd04
 8005adc:	f3bf 8f4f 	dsb	sy
 8005ae0:	f3bf 8f6f 	isb	sy
 8005ae4:	e7ed      	b.n	8005ac2 <prvIdleTask+0x6>
 8005ae6:	f000 fded 	bl	80066c4 <vPortEnterCritical>
 8005aea:	68fb      	ldr	r3, [r7, #12]
 8005aec:	68de      	ldr	r6, [r3, #12]
 8005aee:	1d30      	adds	r0, r6, #4
 8005af0:	f7ff fbf4 	bl	80052dc <uxListRemove>
 8005af4:	682b      	ldr	r3, [r5, #0]
 8005af6:	3b01      	subs	r3, #1
 8005af8:	602b      	str	r3, [r5, #0]
 8005afa:	6823      	ldr	r3, [r4, #0]
 8005afc:	3b01      	subs	r3, #1
 8005afe:	6023      	str	r3, [r4, #0]
 8005b00:	f000 fe00 	bl	8006704 <vPortExitCritical>
 8005b04:	4630      	mov	r0, r6
 8005b06:	f7ff ffbd 	bl	8005a84 <prvDeleteTCB>
 8005b0a:	e7db      	b.n	8005ac4 <prvIdleTask+0x8>
 8005b0c:	200034e8 	.word	0x200034e8
 8005b10:	200034ec 	.word	0x200034ec
 8005b14:	200034d0 	.word	0x200034d0
 8005b18:	20003544 	.word	0x20003544

08005b1c <prvInitialiseNewTask.constprop.0>:
 8005b1c:	e92d 47f0 	stmdb	sp!, {r4, r5, r6, r7, r8, r9, sl, lr}
 8005b20:	e9dd 9409 	ldrd	r9, r4, [sp, #36]	@ 0x24
 8005b24:	0096      	lsls	r6, r2, #2
 8005b26:	4632      	mov	r2, r6
 8005b28:	4607      	mov	r7, r0
 8005b2a:	460d      	mov	r5, r1
 8005b2c:	6b20      	ldr	r0, [r4, #48]	@ 0x30
 8005b2e:	21a5      	movs	r1, #165	@ 0xa5
 8005b30:	4698      	mov	r8, r3
 8005b32:	f001 fb96 	bl	8007262 <memset>
 8005b36:	6b23      	ldr	r3, [r4, #48]	@ 0x30
 8005b38:	3e04      	subs	r6, #4
 8005b3a:	441e      	add	r6, r3
 8005b3c:	f026 0607 	bic.w	r6, r6, #7
 8005b40:	b3a5      	cbz	r5, 8005bac <prvInitialiseNewTask.constprop.0+0x90>
 8005b42:	1e6b      	subs	r3, r5, #1
 8005b44:	f104 0233 	add.w	r2, r4, #51	@ 0x33
 8005b48:	350f      	adds	r5, #15
 8005b4a:	f813 1f01 	ldrb.w	r1, [r3, #1]!
 8005b4e:	f802 1f01 	strb.w	r1, [r2, #1]!
 8005b52:	b109      	cbz	r1, 8005b58 <prvInitialiseNewTask.constprop.0+0x3c>
 8005b54:	42ab      	cmp	r3, r5
 8005b56:	d1f8      	bne.n	8005b4a <prvInitialiseNewTask.constprop.0+0x2e>
 8005b58:	2300      	movs	r3, #0
 8005b5a:	f884 3043 	strb.w	r3, [r4, #67]	@ 0x43
 8005b5e:	9d08      	ldr	r5, [sp, #32]
 8005b60:	2d37      	cmp	r5, #55	@ 0x37
 8005b62:	bf28      	it	cs
 8005b64:	2537      	movcs	r5, #55	@ 0x37
 8005b66:	f04f 0a00 	mov.w	sl, #0
 8005b6a:	62e5      	str	r5, [r4, #44]	@ 0x2c
 8005b6c:	64e5      	str	r5, [r4, #76]	@ 0x4c
 8005b6e:	1d20      	adds	r0, r4, #4
 8005b70:	f8c4 a050 	str.w	sl, [r4, #80]	@ 0x50
 8005b74:	f7ff fb8d 	bl	8005292 <vListInitialiseItem>
 8005b78:	f1c5 0538 	rsb	r5, r5, #56	@ 0x38
 8005b7c:	f104 0018 	add.w	r0, r4, #24
 8005b80:	f7ff fb87 	bl	8005292 <vListInitialiseItem>
 8005b84:	f8c4 a054 	str.w	sl, [r4, #84]	@ 0x54
 8005b88:	6124      	str	r4, [r4, #16]
 8005b8a:	61a5      	str	r5, [r4, #24]
 8005b8c:	6264      	str	r4, [r4, #36]	@ 0x24
 8005b8e:	f884 a058 	strb.w	sl, [r4, #88]	@ 0x58
 8005b92:	4642      	mov	r2, r8
 8005b94:	4639      	mov	r1, r7
 8005b96:	4630      	mov	r0, r6
 8005b98:	f000 fd6c 	bl	8006674 <pxPortInitialiseStack>
 8005b9c:	6020      	str	r0, [r4, #0]
 8005b9e:	f1b9 0f00 	cmp.w	r9, #0
 8005ba2:	d001      	beq.n	8005ba8 <prvInitialiseNewTask.constprop.0+0x8c>
 8005ba4:	f8c9 4000 	str.w	r4, [r9]
 8005ba8:	e8bd 87f0 	ldmia.w	sp!, {r4, r5, r6, r7, r8, r9, sl, pc}
 8005bac:	f884 5034 	strb.w	r5, [r4, #52]	@ 0x34
 8005bb0:	e7d5      	b.n	8005b5e <prvInitialiseNewTask.constprop.0+0x42>

08005bb2 <xTaskCreateStatic>:
 8005bb2:	b570      	push	{r4, r5, r6, lr}
 8005bb4:	b086      	sub	sp, #24
 8005bb6:	e9dd 540b 	ldrd	r5, r4, [sp, #44]	@ 0x2c
 8005bba:	b945      	cbnz	r5, 8005bce <xTaskCreateStatic+0x1c>
 8005bbc:	f04f 0350 	mov.w	r3, #80	@ 0x50
 8005bc0:	f383 8811 	msr	BASEPRI, r3
 8005bc4:	f3bf 8f6f 	isb	sy
 8005bc8:	f3bf 8f4f 	dsb	sy
 8005bcc:	e7fe      	b.n	8005bcc <xTaskCreateStatic+0x1a>
 8005bce:	b944      	cbnz	r4, 8005be2 <xTaskCreateStatic+0x30>
 8005bd0:	f04f 0350 	mov.w	r3, #80	@ 0x50
 8005bd4:	f383 8811 	msr	BASEPRI, r3
 8005bd8:	f3bf 8f6f 	isb	sy
 8005bdc:	f3bf 8f4f 	dsb	sy
 8005be0:	e7fe      	b.n	8005be0 <xTaskCreateStatic+0x2e>
 8005be2:	265c      	movs	r6, #92	@ 0x5c
 8005be4:	9605      	str	r6, [sp, #20]
 8005be6:	9e05      	ldr	r6, [sp, #20]
 8005be8:	2e5c      	cmp	r6, #92	@ 0x5c
 8005bea:	d008      	beq.n	8005bfe <xTaskCreateStatic+0x4c>
 8005bec:	f04f 0350 	mov.w	r3, #80	@ 0x50
 8005bf0:	f383 8811 	msr	BASEPRI, r3
 8005bf4:	f3bf 8f6f 	isb	sy
 8005bf8:	f3bf 8f4f 	dsb	sy
 8005bfc:	e7fe      	b.n	8005bfc <xTaskCreateStatic+0x4a>
 8005bfe:	6325      	str	r5, [r4, #48]	@ 0x30
 8005c00:	2502      	movs	r5, #2
 8005c02:	f884 5059 	strb.w	r5, [r4, #89]	@ 0x59
 8005c06:	ad04      	add	r5, sp, #16
 8005c08:	9501      	str	r5, [sp, #4]
 8005c0a:	9d0a      	ldr	r5, [sp, #40]	@ 0x28
 8005c0c:	9402      	str	r4, [sp, #8]
 8005c0e:	9500      	str	r5, [sp, #0]
 8005c10:	9e05      	ldr	r6, [sp, #20]
 8005c12:	f7ff ff83 	bl	8005b1c <prvInitialiseNewTask.constprop.0>
 8005c16:	4620      	mov	r0, r4
 8005c18:	f7ff fe6a 	bl	80058f0 <prvAddNewTaskToReadyList>
 8005c1c:	9804      	ldr	r0, [sp, #16]
 8005c1e:	b006      	add	sp, #24
 8005c20:	bd70      	pop	{r4, r5, r6, pc}

08005c22 <xTaskCreate>:
 8005c22:	e92d 43f0 	stmdb	sp!, {r4, r5, r6, r7, r8, r9, lr}
 8005c26:	4607      	mov	r7, r0
 8005c28:	b085      	sub	sp, #20
 8005c2a:	0090      	lsls	r0, r2, #2
 8005c2c:	4688      	mov	r8, r1
 8005c2e:	4616      	mov	r6, r2
 8005c30:	4699      	mov	r9, r3
 8005c32:	f000 fead 	bl	8006990 <pvPortMalloc>
 8005c36:	4605      	mov	r5, r0
 8005c38:	b920      	cbnz	r0, 8005c44 <xTaskCreate+0x22>
 8005c3a:	f04f 30ff 	mov.w	r0, #4294967295
 8005c3e:	b005      	add	sp, #20
 8005c40:	e8bd 83f0 	ldmia.w	sp!, {r4, r5, r6, r7, r8, r9, pc}
 8005c44:	205c      	movs	r0, #92	@ 0x5c
 8005c46:	f000 fea3 	bl	8006990 <pvPortMalloc>
 8005c4a:	4604      	mov	r4, r0
 8005c4c:	b198      	cbz	r0, 8005c76 <xTaskCreate+0x54>
 8005c4e:	2300      	movs	r3, #0
 8005c50:	f880 3059 	strb.w	r3, [r0, #89]	@ 0x59
 8005c54:	9b0d      	ldr	r3, [sp, #52]	@ 0x34
 8005c56:	6305      	str	r5, [r0, #48]	@ 0x30
 8005c58:	9301      	str	r3, [sp, #4]
 8005c5a:	9b0c      	ldr	r3, [sp, #48]	@ 0x30
 8005c5c:	9002      	str	r0, [sp, #8]
 8005c5e:	9300      	str	r3, [sp, #0]
 8005c60:	4632      	mov	r2, r6
 8005c62:	464b      	mov	r3, r9
 8005c64:	4641      	mov	r1, r8
 8005c66:	4638      	mov	r0, r7
 8005c68:	f7ff ff58 	bl	8005b1c <prvInitialiseNewTask.constprop.0>
 8005c6c:	4620      	mov	r0, r4
 8005c6e:	f7ff fe3f 	bl	80058f0 <prvAddNewTaskToReadyList>
 8005c72:	2001      	movs	r0, #1
 8005c74:	e7e3      	b.n	8005c3e <xTaskCreate+0x1c>
 8005c76:	4628      	mov	r0, r5
 8005c78:	f000 ff22 	bl	8006ac0 <vPortFree>
 8005c7c:	e7dd      	b.n	8005c3a <xTaskCreate+0x18>
	...

08005c80 <vTaskStartScheduler>:
 8005c80:	b510      	push	{r4, lr}
 8005c82:	b088      	sub	sp, #32
 8005c84:	2400      	movs	r4, #0
 8005c86:	aa07      	add	r2, sp, #28
 8005c88:	a906      	add	r1, sp, #24
 8005c8a:	a805      	add	r0, sp, #20
 8005c8c:	e9cd 4405 	strd	r4, r4, [sp, #20]
 8005c90:	f7ff fadc 	bl	800524c <vApplicationGetIdleTaskMemory>
 8005c94:	9b05      	ldr	r3, [sp, #20]
 8005c96:	9302      	str	r3, [sp, #8]
 8005c98:	9b06      	ldr	r3, [sp, #24]
 8005c9a:	9a07      	ldr	r2, [sp, #28]
 8005c9c:	4916      	ldr	r1, [pc, #88]	@ (8005cf8 <vTaskStartScheduler+0x78>)
 8005c9e:	4817      	ldr	r0, [pc, #92]	@ (8005cfc <vTaskStartScheduler+0x7c>)
 8005ca0:	e9cd 4300 	strd	r4, r3, [sp]
 8005ca4:	4623      	mov	r3, r4
 8005ca6:	f7ff ff84 	bl	8005bb2 <xTaskCreateStatic>
 8005caa:	b318      	cbz	r0, 8005cf4 <vTaskStartScheduler+0x74>
 8005cac:	f000 fb0e 	bl	80062cc <xTimerCreateTimerTask>
 8005cb0:	2801      	cmp	r0, #1
 8005cb2:	d114      	bne.n	8005cde <vTaskStartScheduler+0x5e>
 8005cb4:	f04f 0350 	mov.w	r3, #80	@ 0x50
 8005cb8:	f383 8811 	msr	BASEPRI, r3
 8005cbc:	f3bf 8f6f 	isb	sy
 8005cc0:	f3bf 8f4f 	dsb	sy
 8005cc4:	4b0e      	ldr	r3, [pc, #56]	@ (8005d00 <vTaskStartScheduler+0x80>)
 8005cc6:	f04f 32ff 	mov.w	r2, #4294967295
 8005cca:	601a      	str	r2, [r3, #0]
 8005ccc:	4b0d      	ldr	r3, [pc, #52]	@ (8005d04 <vTaskStartScheduler+0x84>)
 8005cce:	6018      	str	r0, [r3, #0]
 8005cd0:	4b0d      	ldr	r3, [pc, #52]	@ (8005d08 <vTaskStartScheduler+0x88>)
 8005cd2:	601c      	str	r4, [r3, #0]
 8005cd4:	b008      	add	sp, #32
 8005cd6:	e8bd 4010 	ldmia.w	sp!, {r4, lr}
 8005cda:	f000 bd83 	b.w	80067e4 <xPortStartScheduler>
 8005cde:	3001      	adds	r0, #1
 8005ce0:	d108      	bne.n	8005cf4 <vTaskStartScheduler+0x74>
 8005ce2:	f04f 0350 	mov.w	r3, #80	@ 0x50
 8005ce6:	f383 8811 	msr	BASEPRI, r3
 8005cea:	f3bf 8f6f 	isb	sy
 8005cee:	f3bf 8f4f 	dsb	sy
 8005cf2:	e7fe      	b.n	8005cf2 <vTaskStartScheduler+0x72>
 8005cf4:	b008      	add	sp, #32
 8005cf6:	bd10      	pop	{r4, pc}
 8005cf8:	08008eed 	.word	0x08008eed
 8005cfc:	08005abd 	.word	0x08005abd
 8005d00:	200034b0 	.word	0x200034b0
 8005d04:	200034c4 	.word	0x200034c4
 8005d08:	200034cc 	.word	0x200034cc

08005d0c <vTaskSuspendAll>:
 8005d0c:	4a02      	ldr	r2, [pc, #8]	@ (8005d18 <vTaskSuspendAll+0xc>)
 8005d0e:	6813      	ldr	r3, [r2, #0]
 8005d10:	3301      	adds	r3, #1
 8005d12:	6013      	str	r3, [r2, #0]
 8005d14:	4770      	bx	lr
 8005d16:	bf00      	nop
 8005d18:	200034ac 	.word	0x200034ac

08005d1c <xTaskGetTickCount>:
 8005d1c:	4b01      	ldr	r3, [pc, #4]	@ (8005d24 <xTaskGetTickCount+0x8>)
 8005d1e:	6818      	ldr	r0, [r3, #0]
 8005d20:	4770      	bx	lr
 8005d22:	bf00      	nop
 8005d24:	200034cc 	.word	0x200034cc

08005d28 <xTaskIncrementTick>:
 8005d28:	4b3f      	ldr	r3, [pc, #252]	@ (8005e28 <xTaskIncrementTick+0x100>)
 8005d2a:	681b      	ldr	r3, [r3, #0]
 8005d2c:	e92d 4ff7 	stmdb	sp!, {r0, r1, r2, r4, r5, r6, r7, r8, r9, sl, fp, lr}
 8005d30:	2b00      	cmp	r3, #0
 8005d32:	d172      	bne.n	8005e1a <xTaskIncrementTick+0xf2>
 8005d34:	4b3d      	ldr	r3, [pc, #244]	@ (8005e2c <xTaskIncrementTick+0x104>)
 8005d36:	681c      	ldr	r4, [r3, #0]
 8005d38:	3401      	adds	r4, #1
 8005d3a:	601c      	str	r4, [r3, #0]
 8005d3c:	b9bc      	cbnz	r4, 8005d6e <xTaskIncrementTick+0x46>
 8005d3e:	4b3c      	ldr	r3, [pc, #240]	@ (8005e30 <xTaskIncrementTick+0x108>)
 8005d40:	681a      	ldr	r2, [r3, #0]
 8005d42:	6812      	ldr	r2, [r2, #0]
 8005d44:	b142      	cbz	r2, 8005d58 <xTaskIncrementTick+0x30>
 8005d46:	f04f 0350 	mov.w	r3, #80	@ 0x50
 8005d4a:	f383 8811 	msr	BASEPRI, r3
 8005d4e:	f3bf 8f6f 	isb	sy
 8005d52:	f3bf 8f4f 	dsb	sy
 8005d56:	e7fe      	b.n	8005d56 <xTaskIncrementTick+0x2e>
 8005d58:	4a36      	ldr	r2, [pc, #216]	@ (8005e34 <xTaskIncrementTick+0x10c>)
 8005d5a:	6819      	ldr	r1, [r3, #0]
 8005d5c:	6810      	ldr	r0, [r2, #0]
 8005d5e:	6018      	str	r0, [r3, #0]
 8005d60:	6011      	str	r1, [r2, #0]
 8005d62:	4a35      	ldr	r2, [pc, #212]	@ (8005e38 <xTaskIncrementTick+0x110>)
 8005d64:	6813      	ldr	r3, [r2, #0]
 8005d66:	3301      	adds	r3, #1
 8005d68:	6013      	str	r3, [r2, #0]
 8005d6a:	f7ff fe79 	bl	8005a60 <prvResetNextTaskUnblockTime>
 8005d6e:	4d33      	ldr	r5, [pc, #204]	@ (8005e3c <xTaskIncrementTick+0x114>)
 8005d70:	4e33      	ldr	r6, [pc, #204]	@ (8005e40 <xTaskIncrementTick+0x118>)
 8005d72:	682b      	ldr	r3, [r5, #0]
 8005d74:	4f33      	ldr	r7, [pc, #204]	@ (8005e44 <xTaskIncrementTick+0x11c>)
 8005d76:	429c      	cmp	r4, r3
 8005d78:	f04f 0b00 	mov.w	fp, #0
 8005d7c:	d212      	bcs.n	8005da4 <xTaskIncrementTick+0x7c>
 8005d7e:	683a      	ldr	r2, [r7, #0]
 8005d80:	6ad2      	ldr	r2, [r2, #44]	@ 0x2c
 8005d82:	2114      	movs	r1, #20
 8005d84:	434a      	muls	r2, r1
 8005d86:	58b2      	ldr	r2, [r6, r2]
 8005d88:	2a02      	cmp	r2, #2
 8005d8a:	4a2f      	ldr	r2, [pc, #188]	@ (8005e48 <xTaskIncrementTick+0x120>)
 8005d8c:	6812      	ldr	r2, [r2, #0]
 8005d8e:	bf28      	it	cs
 8005d90:	f04f 0b01 	movcs.w	fp, #1
 8005d94:	2a00      	cmp	r2, #0
 8005d96:	bf18      	it	ne
 8005d98:	f04f 0b01 	movne.w	fp, #1
 8005d9c:	4658      	mov	r0, fp
 8005d9e:	b003      	add	sp, #12
 8005da0:	e8bd 8ff0 	ldmia.w	sp!, {r4, r5, r6, r7, r8, r9, sl, fp, pc}
 8005da4:	f8df 9088 	ldr.w	r9, [pc, #136]	@ 8005e30 <xTaskIncrementTick+0x108>
 8005da8:	f8df a0a4 	ldr.w	sl, [pc, #164]	@ 8005e50 <xTaskIncrementTick+0x128>
 8005dac:	f8d9 2000 	ldr.w	r2, [r9]
 8005db0:	6812      	ldr	r2, [r2, #0]
 8005db2:	b91a      	cbnz	r2, 8005dbc <xTaskIncrementTick+0x94>
 8005db4:	f04f 32ff 	mov.w	r2, #4294967295
 8005db8:	602a      	str	r2, [r5, #0]
 8005dba:	e7e0      	b.n	8005d7e <xTaskIncrementTick+0x56>
 8005dbc:	f8d9 2000 	ldr.w	r2, [r9]
 8005dc0:	68d2      	ldr	r2, [r2, #12]
 8005dc2:	f8d2 800c 	ldr.w	r8, [r2, #12]
 8005dc6:	f8d8 1004 	ldr.w	r1, [r8, #4]
 8005dca:	428c      	cmp	r4, r1
 8005dcc:	d201      	bcs.n	8005dd2 <xTaskIncrementTick+0xaa>
 8005dce:	6029      	str	r1, [r5, #0]
 8005dd0:	e7d5      	b.n	8005d7e <xTaskIncrementTick+0x56>
 8005dd2:	f108 0304 	add.w	r3, r8, #4
 8005dd6:	4618      	mov	r0, r3
 8005dd8:	9301      	str	r3, [sp, #4]
 8005dda:	f7ff fa7f 	bl	80052dc <uxListRemove>
 8005dde:	f8d8 1028 	ldr.w	r1, [r8, #40]	@ 0x28
 8005de2:	b119      	cbz	r1, 8005dec <xTaskIncrementTick+0xc4>
 8005de4:	f108 0018 	add.w	r0, r8, #24
 8005de8:	f7ff fa78 	bl	80052dc <uxListRemove>
 8005dec:	f8d8 002c 	ldr.w	r0, [r8, #44]	@ 0x2c
 8005df0:	f8da 1000 	ldr.w	r1, [sl]
 8005df4:	2314      	movs	r3, #20
 8005df6:	4288      	cmp	r0, r1
 8005df8:	bf88      	it	hi
 8005dfa:	f8ca 0000 	strhi.w	r0, [sl]
 8005dfe:	9901      	ldr	r1, [sp, #4]
 8005e00:	fb03 6000 	mla	r0, r3, r0, r6
 8005e04:	f7ff fa48 	bl	8005298 <vListInsertEnd>
 8005e08:	6838      	ldr	r0, [r7, #0]
 8005e0a:	f8d8 102c 	ldr.w	r1, [r8, #44]	@ 0x2c
 8005e0e:	6ac2      	ldr	r2, [r0, #44]	@ 0x2c
 8005e10:	4291      	cmp	r1, r2
 8005e12:	bf28      	it	cs
 8005e14:	f04f 0b01 	movcs.w	fp, #1
 8005e18:	e7c8      	b.n	8005dac <xTaskIncrementTick+0x84>
 8005e1a:	4a0c      	ldr	r2, [pc, #48]	@ (8005e4c <xTaskIncrementTick+0x124>)
 8005e1c:	6813      	ldr	r3, [r2, #0]
 8005e1e:	3301      	adds	r3, #1
 8005e20:	6013      	str	r3, [r2, #0]
 8005e22:	f04f 0b00 	mov.w	fp, #0
 8005e26:	e7b9      	b.n	8005d9c <xTaskIncrementTick+0x74>
 8005e28:	200034ac 	.word	0x200034ac
 8005e2c:	200034cc 	.word	0x200034cc
 8005e30:	20003518 	.word	0x20003518
 8005e34:	20003514 	.word	0x20003514
 8005e38:	200034b8 	.word	0x200034b8
 8005e3c:	200034b0 	.word	0x200034b0
 8005e40:	20003544 	.word	0x20003544
 8005e44:	200039a4 	.word	0x200039a4
 8005e48:	200034bc 	.word	0x200034bc
 8005e4c:	200034c0 	.word	0x200034c0
 8005e50:	200034c8 	.word	0x200034c8

08005e54 <xTaskResumeAll>:
 8005e54:	e92d 41f0 	stmdb	sp!, {r4, r5, r6, r7, r8, lr}
 8005e58:	4c30      	ldr	r4, [pc, #192]	@ (8005f1c <xTaskResumeAll+0xc8>)
 8005e5a:	6823      	ldr	r3, [r4, #0]
 8005e5c:	b943      	cbnz	r3, 8005e70 <xTaskResumeAll+0x1c>
 8005e5e:	f04f 0350 	mov.w	r3, #80	@ 0x50
 8005e62:	f383 8811 	msr	BASEPRI, r3
 8005e66:	f3bf 8f6f 	isb	sy
 8005e6a:	f3bf 8f4f 	dsb	sy
 8005e6e:	e7fe      	b.n	8005e6e <xTaskResumeAll+0x1a>
 8005e70:	f000 fc28 	bl	80066c4 <vPortEnterCritical>
 8005e74:	6823      	ldr	r3, [r4, #0]
 8005e76:	3b01      	subs	r3, #1
 8005e78:	6023      	str	r3, [r4, #0]
 8005e7a:	6824      	ldr	r4, [r4, #0]
 8005e7c:	b12c      	cbz	r4, 8005e8a <xTaskResumeAll+0x36>
 8005e7e:	2400      	movs	r4, #0
 8005e80:	f000 fc40 	bl	8006704 <vPortExitCritical>
 8005e84:	4620      	mov	r0, r4
 8005e86:	e8bd 81f0 	ldmia.w	sp!, {r4, r5, r6, r7, r8, pc}
 8005e8a:	4b25      	ldr	r3, [pc, #148]	@ (8005f20 <xTaskResumeAll+0xcc>)
 8005e8c:	681b      	ldr	r3, [r3, #0]
 8005e8e:	2b00      	cmp	r3, #0
 8005e90:	d0f5      	beq.n	8005e7e <xTaskResumeAll+0x2a>
 8005e92:	4d24      	ldr	r5, [pc, #144]	@ (8005f24 <xTaskResumeAll+0xd0>)
 8005e94:	4e24      	ldr	r6, [pc, #144]	@ (8005f28 <xTaskResumeAll+0xd4>)
 8005e96:	f8df 80a0 	ldr.w	r8, [pc, #160]	@ 8005f38 <xTaskResumeAll+0xe4>
 8005e9a:	e01d      	b.n	8005ed8 <xTaskResumeAll+0x84>
 8005e9c:	68eb      	ldr	r3, [r5, #12]
 8005e9e:	68dc      	ldr	r4, [r3, #12]
 8005ea0:	1d27      	adds	r7, r4, #4
 8005ea2:	f104 0018 	add.w	r0, r4, #24
 8005ea6:	f7ff fa19 	bl	80052dc <uxListRemove>
 8005eaa:	4638      	mov	r0, r7
 8005eac:	f7ff fa16 	bl	80052dc <uxListRemove>
 8005eb0:	6ae3      	ldr	r3, [r4, #44]	@ 0x2c
 8005eb2:	6832      	ldr	r2, [r6, #0]
 8005eb4:	2014      	movs	r0, #20
 8005eb6:	4293      	cmp	r3, r2
 8005eb8:	fb00 8003 	mla	r0, r0, r3, r8
 8005ebc:	4639      	mov	r1, r7
 8005ebe:	bf88      	it	hi
 8005ec0:	6033      	strhi	r3, [r6, #0]
 8005ec2:	f7ff f9e9 	bl	8005298 <vListInsertEnd>
 8005ec6:	4b19      	ldr	r3, [pc, #100]	@ (8005f2c <xTaskResumeAll+0xd8>)
 8005ec8:	6ae2      	ldr	r2, [r4, #44]	@ 0x2c
 8005eca:	681b      	ldr	r3, [r3, #0]
 8005ecc:	6adb      	ldr	r3, [r3, #44]	@ 0x2c
 8005ece:	429a      	cmp	r2, r3
 8005ed0:	d302      	bcc.n	8005ed8 <xTaskResumeAll+0x84>
 8005ed2:	4b17      	ldr	r3, [pc, #92]	@ (8005f30 <xTaskResumeAll+0xdc>)
 8005ed4:	2201      	movs	r2, #1
 8005ed6:	601a      	str	r2, [r3, #0]
 8005ed8:	682b      	ldr	r3, [r5, #0]
 8005eda:	2b00      	cmp	r3, #0
 8005edc:	d1de      	bne.n	8005e9c <xTaskResumeAll+0x48>
 8005ede:	b10c      	cbz	r4, 8005ee4 <xTaskResumeAll+0x90>
 8005ee0:	f7ff fdbe 	bl	8005a60 <prvResetNextTaskUnblockTime>
 8005ee4:	4d13      	ldr	r5, [pc, #76]	@ (8005f34 <xTaskResumeAll+0xe0>)
 8005ee6:	682c      	ldr	r4, [r5, #0]
 8005ee8:	b144      	cbz	r4, 8005efc <xTaskResumeAll+0xa8>
 8005eea:	4e11      	ldr	r6, [pc, #68]	@ (8005f30 <xTaskResumeAll+0xdc>)
 8005eec:	2701      	movs	r7, #1
 8005eee:	f7ff ff1b 	bl	8005d28 <xTaskIncrementTick>
 8005ef2:	b100      	cbz	r0, 8005ef6 <xTaskResumeAll+0xa2>
 8005ef4:	6037      	str	r7, [r6, #0]
 8005ef6:	3c01      	subs	r4, #1
 8005ef8:	d1f9      	bne.n	8005eee <xTaskResumeAll+0x9a>
 8005efa:	602c      	str	r4, [r5, #0]
 8005efc:	4b0c      	ldr	r3, [pc, #48]	@ (8005f30 <xTaskResumeAll+0xdc>)
 8005efe:	681b      	ldr	r3, [r3, #0]
 8005f00:	2b00      	cmp	r3, #0
 8005f02:	d0bc      	beq.n	8005e7e <xTaskResumeAll+0x2a>
 8005f04:	f04f 23e0 	mov.w	r3, #3758153728	@ 0xe000e000
 8005f08:	f04f 5280 	mov.w	r2, #268435456	@ 0x10000000
 8005f0c:	f8c3 2d04 	str.w	r2, [r3, #3332]	@ 0xd04
 8005f10:	f3bf 8f4f 	dsb	sy
 8005f14:	f3bf 8f6f 	isb	sy
 8005f18:	2401      	movs	r4, #1
 8005f1a:	e7b1      	b.n	8005e80 <xTaskResumeAll+0x2c>
 8005f1c:	200034ac 	.word	0x200034ac
 8005f20:	200034d0 	.word	0x200034d0
 8005f24:	20003500 	.word	0x20003500
 8005f28:	200034c8 	.word	0x200034c8
 8005f2c:	200039a4 	.word	0x200039a4
 8005f30:	200034bc 	.word	0x200034bc
 8005f34:	200034c0 	.word	0x200034c0
 8005f38:	20003544 	.word	0x20003544

08005f3c <vTaskDelay>:
 8005f3c:	b508      	push	{r3, lr}
 8005f3e:	b950      	cbnz	r0, 8005f56 <vTaskDelay+0x1a>
 8005f40:	f04f 23e0 	mov.w	r3, #3758153728	@ 0xe000e000
 8005f44:	f04f 5280 	mov.w	r2, #268435456	@ 0x10000000
 8005f48:	f8c3 2d04 	str.w	r2, [r3, #3332]	@ 0xd04
 8005f4c:	f3bf 8f4f 	dsb	sy
 8005f50:	f3bf 8f6f 	isb	sy
 8005f54:	bd08      	pop	{r3, pc}
 8005f56:	4b0a      	ldr	r3, [pc, #40]	@ (8005f80 <vTaskDelay+0x44>)
 8005f58:	6819      	ldr	r1, [r3, #0]
 8005f5a:	b141      	cbz	r1, 8005f6e <vTaskDelay+0x32>
 8005f5c:	f04f 0350 	mov.w	r3, #80	@ 0x50
 8005f60:	f383 8811 	msr	BASEPRI, r3
 8005f64:	f3bf 8f6f 	isb	sy
 8005f68:	f3bf 8f4f 	dsb	sy
 8005f6c:	e7fe      	b.n	8005f6c <vTaskDelay+0x30>
 8005f6e:	f7ff fecd 	bl	8005d0c <vTaskSuspendAll>
 8005f72:	f7ff fd3d 	bl	80059f0 <prvAddCurrentTaskToDelayedList>
 8005f76:	f7ff ff6d 	bl	8005e54 <xTaskResumeAll>
 8005f7a:	2800      	cmp	r0, #0
 8005f7c:	d0e0      	beq.n	8005f40 <vTaskDelay+0x4>
 8005f7e:	e7e9      	b.n	8005f54 <vTaskDelay+0x18>
 8005f80:	200034ac 	.word	0x200034ac

08005f84 <vTaskSwitchContext>:
 8005f84:	4b17      	ldr	r3, [pc, #92]	@ (8005fe4 <vTaskSwitchContext+0x60>)
 8005f86:	681a      	ldr	r2, [r3, #0]
 8005f88:	4b17      	ldr	r3, [pc, #92]	@ (8005fe8 <vTaskSwitchContext+0x64>)
 8005f8a:	b570      	push	{r4, r5, r6, lr}
 8005f8c:	b112      	cbz	r2, 8005f94 <vTaskSwitchContext+0x10>
 8005f8e:	2201      	movs	r2, #1
 8005f90:	601a      	str	r2, [r3, #0]
 8005f92:	bd70      	pop	{r4, r5, r6, pc}
 8005f94:	4d15      	ldr	r5, [pc, #84]	@ (8005fec <vTaskSwitchContext+0x68>)
 8005f96:	601a      	str	r2, [r3, #0]
 8005f98:	682a      	ldr	r2, [r5, #0]
 8005f9a:	4915      	ldr	r1, [pc, #84]	@ (8005ff0 <vTaskSwitchContext+0x6c>)
 8005f9c:	2614      	movs	r6, #20
 8005f9e:	fb06 f302 	mul.w	r3, r6, r2
 8005fa2:	18c8      	adds	r0, r1, r3
 8005fa4:	58cc      	ldr	r4, [r1, r3]
 8005fa6:	b18c      	cbz	r4, 8005fcc <vTaskSwitchContext+0x48>
 8005fa8:	6844      	ldr	r4, [r0, #4]
 8005faa:	3308      	adds	r3, #8
 8005fac:	6864      	ldr	r4, [r4, #4]
 8005fae:	6044      	str	r4, [r0, #4]
 8005fb0:	440b      	add	r3, r1
 8005fb2:	429c      	cmp	r4, r3
 8005fb4:	bf04      	itt	eq
 8005fb6:	6863      	ldreq	r3, [r4, #4]
 8005fb8:	6043      	streq	r3, [r0, #4]
 8005fba:	2314      	movs	r3, #20
 8005fbc:	fb03 1102 	mla	r1, r3, r2, r1
 8005fc0:	684b      	ldr	r3, [r1, #4]
 8005fc2:	68d9      	ldr	r1, [r3, #12]
 8005fc4:	4b0b      	ldr	r3, [pc, #44]	@ (8005ff4 <vTaskSwitchContext+0x70>)
 8005fc6:	6019      	str	r1, [r3, #0]
 8005fc8:	602a      	str	r2, [r5, #0]
 8005fca:	e7e2      	b.n	8005f92 <vTaskSwitchContext+0xe>
 8005fcc:	b942      	cbnz	r2, 8005fe0 <vTaskSwitchContext+0x5c>
 8005fce:	f04f 0350 	mov.w	r3, #80	@ 0x50
 8005fd2:	f383 8811 	msr	BASEPRI, r3
 8005fd6:	f3bf 8f6f 	isb	sy
 8005fda:	f3bf 8f4f 	dsb	sy
 8005fde:	e7fe      	b.n	8005fde <vTaskSwitchContext+0x5a>
 8005fe0:	3a01      	subs	r2, #1
 8005fe2:	e7dc      	b.n	8005f9e <vTaskSwitchContext+0x1a>
 8005fe4:	200034ac 	.word	0x200034ac
 8005fe8:	200034bc 	.word	0x200034bc
 8005fec:	200034c8 	.word	0x200034c8
 8005ff0:	20003544 	.word	0x20003544
 8005ff4:	200039a4 	.word	0x200039a4

08005ff8 <vTaskPlaceOnEventList>:
 8005ff8:	b510      	push	{r4, lr}
 8005ffa:	460c      	mov	r4, r1
 8005ffc:	b940      	cbnz	r0, 8006010 <vTaskPlaceOnEventList+0x18>
 8005ffe:	f04f 0350 	mov.w	r3, #80	@ 0x50
 8006002:	f383 8811 	msr	BASEPRI, r3
 8006006:	f3bf 8f6f 	isb	sy
 800600a:	f3bf 8f4f 	dsb	sy
 800600e:	e7fe      	b.n	800600e <vTaskPlaceOnEventList+0x16>
 8006010:	4b05      	ldr	r3, [pc, #20]	@ (8006028 <vTaskPlaceOnEventList+0x30>)
 8006012:	6819      	ldr	r1, [r3, #0]
 8006014:	3118      	adds	r1, #24
 8006016:	f7ff f94a 	bl	80052ae <vListInsert>
 800601a:	4620      	mov	r0, r4
 800601c:	2101      	movs	r1, #1
 800601e:	e8bd 4010 	ldmia.w	sp!, {r4, lr}
 8006022:	f7ff bce5 	b.w	80059f0 <prvAddCurrentTaskToDelayedList>
 8006026:	bf00      	nop
 8006028:	200039a4 	.word	0x200039a4

0800602c <vTaskPlaceOnEventListRestricted>:
 800602c:	b538      	push	{r3, r4, r5, lr}
 800602e:	460d      	mov	r5, r1
 8006030:	4614      	mov	r4, r2
 8006032:	b940      	cbnz	r0, 8006046 <vTaskPlaceOnEventListRestricted+0x1a>
 8006034:	f04f 0350 	mov.w	r3, #80	@ 0x50
 8006038:	f383 8811 	msr	BASEPRI, r3
 800603c:	f3bf 8f6f 	isb	sy
 8006040:	f3bf 8f4f 	dsb	sy
 8006044:	e7fe      	b.n	8006044 <vTaskPlaceOnEventListRestricted+0x18>
 8006046:	4b07      	ldr	r3, [pc, #28]	@ (8006064 <vTaskPlaceOnEventListRestricted+0x38>)
 8006048:	6819      	ldr	r1, [r3, #0]
 800604a:	3118      	adds	r1, #24
 800604c:	f7ff f924 	bl	8005298 <vListInsertEnd>
 8006050:	2c00      	cmp	r4, #0
 8006052:	4621      	mov	r1, r4
 8006054:	bf0c      	ite	eq
 8006056:	4628      	moveq	r0, r5
 8006058:	f04f 30ff 	movne.w	r0, #4294967295
 800605c:	e8bd 4038 	ldmia.w	sp!, {r3, r4, r5, lr}
 8006060:	f7ff bcc6 	b.w	80059f0 <prvAddCurrentTaskToDelayedList>
 8006064:	200039a4 	.word	0x200039a4

08006068 <xTaskRemoveFromEventList>:
 8006068:	b538      	push	{r3, r4, r5, lr}
 800606a:	68c3      	ldr	r3, [r0, #12]
 800606c:	68dc      	ldr	r4, [r3, #12]
 800606e:	b944      	cbnz	r4, 8006082 <xTaskRemoveFromEventList+0x1a>
 8006070:	f04f 0350 	mov.w	r3, #80	@ 0x50
 8006074:	f383 8811 	msr	BASEPRI, r3
 8006078:	f3bf 8f6f 	isb	sy
 800607c:	f3bf 8f4f 	dsb	sy
 8006080:	e7fe      	b.n	8006080 <xTaskRemoveFromEventList+0x18>
 8006082:	f104 0518 	add.w	r5, r4, #24
 8006086:	4628      	mov	r0, r5
 8006088:	f7ff f928 	bl	80052dc <uxListRemove>
 800608c:	4b10      	ldr	r3, [pc, #64]	@ (80060d0 <xTaskRemoveFromEventList+0x68>)
 800608e:	681b      	ldr	r3, [r3, #0]
 8006090:	b9db      	cbnz	r3, 80060ca <xTaskRemoveFromEventList+0x62>
 8006092:	1d25      	adds	r5, r4, #4
 8006094:	4628      	mov	r0, r5
 8006096:	f7ff f921 	bl	80052dc <uxListRemove>
 800609a:	4a0e      	ldr	r2, [pc, #56]	@ (80060d4 <xTaskRemoveFromEventList+0x6c>)
 800609c:	6ae3      	ldr	r3, [r4, #44]	@ 0x2c
 800609e:	6811      	ldr	r1, [r2, #0]
 80060a0:	428b      	cmp	r3, r1
 80060a2:	bf88      	it	hi
 80060a4:	6013      	strhi	r3, [r2, #0]
 80060a6:	4a0c      	ldr	r2, [pc, #48]	@ (80060d8 <xTaskRemoveFromEventList+0x70>)
 80060a8:	2014      	movs	r0, #20
 80060aa:	4629      	mov	r1, r5
 80060ac:	fb00 2003 	mla	r0, r0, r3, r2
 80060b0:	f7ff f8f2 	bl	8005298 <vListInsertEnd>
 80060b4:	4b09      	ldr	r3, [pc, #36]	@ (80060dc <xTaskRemoveFromEventList+0x74>)
 80060b6:	6ae2      	ldr	r2, [r4, #44]	@ 0x2c
 80060b8:	681b      	ldr	r3, [r3, #0]
 80060ba:	6adb      	ldr	r3, [r3, #44]	@ 0x2c
 80060bc:	429a      	cmp	r2, r3
 80060be:	bf83      	ittte	hi
 80060c0:	4b07      	ldrhi	r3, [pc, #28]	@ (80060e0 <xTaskRemoveFromEventList+0x78>)
 80060c2:	2001      	movhi	r0, #1
 80060c4:	6018      	strhi	r0, [r3, #0]
 80060c6:	2000      	movls	r0, #0
 80060c8:	bd38      	pop	{r3, r4, r5, pc}
 80060ca:	4806      	ldr	r0, [pc, #24]	@ (80060e4 <xTaskRemoveFromEventList+0x7c>)
 80060cc:	4629      	mov	r1, r5
 80060ce:	e7ef      	b.n	80060b0 <xTaskRemoveFromEventList+0x48>
 80060d0:	200034ac 	.word	0x200034ac
 80060d4:	200034c8 	.word	0x200034c8
 80060d8:	20003544 	.word	0x20003544
 80060dc:	200039a4 	.word	0x200039a4
 80060e0:	200034bc 	.word	0x200034bc
 80060e4:	20003500 	.word	0x20003500

080060e8 <vTaskInternalSetTimeOutState>:
 80060e8:	4b03      	ldr	r3, [pc, #12]	@ (80060f8 <vTaskInternalSetTimeOutState+0x10>)
 80060ea:	681b      	ldr	r3, [r3, #0]
 80060ec:	6003      	str	r3, [r0, #0]
 80060ee:	4b03      	ldr	r3, [pc, #12]	@ (80060fc <vTaskInternalSetTimeOutState+0x14>)
 80060f0:	681b      	ldr	r3, [r3, #0]
 80060f2:	6043      	str	r3, [r0, #4]
 80060f4:	4770      	bx	lr
 80060f6:	bf00      	nop
 80060f8:	200034b8 	.word	0x200034b8
 80060fc:	200034cc 	.word	0x200034cc

08006100 <xTaskCheckForTimeOut>:
 8006100:	b570      	push	{r4, r5, r6, lr}
 8006102:	460c      	mov	r4, r1
 8006104:	4605      	mov	r5, r0
 8006106:	b940      	cbnz	r0, 800611a <xTaskCheckForTimeOut+0x1a>
 8006108:	f04f 0350 	mov.w	r3, #80	@ 0x50
 800610c:	f383 8811 	msr	BASEPRI, r3
 8006110:	f3bf 8f6f 	isb	sy
 8006114:	f3bf 8f4f 	dsb	sy
 8006118:	e7fe      	b.n	8006118 <xTaskCheckForTimeOut+0x18>
 800611a:	b941      	cbnz	r1, 800612e <xTaskCheckForTimeOut+0x2e>
 800611c:	f04f 0350 	mov.w	r3, #80	@ 0x50
 8006120:	f383 8811 	msr	BASEPRI, r3
 8006124:	f3bf 8f6f 	isb	sy
 8006128:	f3bf 8f4f 	dsb	sy
 800612c:	e7fe      	b.n	800612c <xTaskCheckForTimeOut+0x2c>
 800612e:	f000 fac9 	bl	80066c4 <vPortEnterCritical>
 8006132:	4b0f      	ldr	r3, [pc, #60]	@ (8006170 <xTaskCheckForTimeOut+0x70>)
 8006134:	6819      	ldr	r1, [r3, #0]
 8006136:	6823      	ldr	r3, [r4, #0]
 8006138:	1c5a      	adds	r2, r3, #1
 800613a:	d010      	beq.n	800615e <xTaskCheckForTimeOut+0x5e>
 800613c:	480d      	ldr	r0, [pc, #52]	@ (8006174 <xTaskCheckForTimeOut+0x74>)
 800613e:	682e      	ldr	r6, [r5, #0]
 8006140:	6800      	ldr	r0, [r0, #0]
 8006142:	686a      	ldr	r2, [r5, #4]
 8006144:	4286      	cmp	r6, r0
 8006146:	d001      	beq.n	800614c <xTaskCheckForTimeOut+0x4c>
 8006148:	428a      	cmp	r2, r1
 800614a:	d90f      	bls.n	800616c <xTaskCheckForTimeOut+0x6c>
 800614c:	1a88      	subs	r0, r1, r2
 800614e:	4283      	cmp	r3, r0
 8006150:	d90a      	bls.n	8006168 <xTaskCheckForTimeOut+0x68>
 8006152:	1a5b      	subs	r3, r3, r1
 8006154:	4413      	add	r3, r2
 8006156:	6023      	str	r3, [r4, #0]
 8006158:	4628      	mov	r0, r5
 800615a:	f7ff ffc5 	bl	80060e8 <vTaskInternalSetTimeOutState>
 800615e:	2400      	movs	r4, #0
 8006160:	f000 fad0 	bl	8006704 <vPortExitCritical>
 8006164:	4620      	mov	r0, r4
 8006166:	bd70      	pop	{r4, r5, r6, pc}
 8006168:	2300      	movs	r3, #0
 800616a:	6023      	str	r3, [r4, #0]
 800616c:	2401      	movs	r4, #1
 800616e:	e7f7      	b.n	8006160 <xTaskCheckForTimeOut+0x60>
 8006170:	200034cc 	.word	0x200034cc
 8006174:	200034b8 	.word	0x200034b8

08006178 <vTaskMissedYield>:
 8006178:	4b01      	ldr	r3, [pc, #4]	@ (8006180 <vTaskMissedYield+0x8>)
 800617a:	2201      	movs	r2, #1
 800617c:	601a      	str	r2, [r3, #0]
 800617e:	4770      	bx	lr
 8006180:	200034bc 	.word	0x200034bc

08006184 <xTaskGetSchedulerState>:
 8006184:	4b05      	ldr	r3, [pc, #20]	@ (800619c <xTaskGetSchedulerState+0x18>)
 8006186:	681b      	ldr	r3, [r3, #0]
 8006188:	b133      	cbz	r3, 8006198 <xTaskGetSchedulerState+0x14>
 800618a:	4b05      	ldr	r3, [pc, #20]	@ (80061a0 <xTaskGetSchedulerState+0x1c>)
 800618c:	6818      	ldr	r0, [r3, #0]
 800618e:	fab0 f080 	clz	r0, r0
 8006192:	0940      	lsrs	r0, r0, #5
 8006194:	0040      	lsls	r0, r0, #1
 8006196:	4770      	bx	lr
 8006198:	2001      	movs	r0, #1
 800619a:	4770      	bx	lr
 800619c:	200034c4 	.word	0x200034c4
 80061a0:	200034ac 	.word	0x200034ac

080061a4 <xTaskPriorityDisinherit>:
 80061a4:	b538      	push	{r3, r4, r5, lr}
 80061a6:	b908      	cbnz	r0, 80061ac <xTaskPriorityDisinherit+0x8>
 80061a8:	2000      	movs	r0, #0
 80061aa:	bd38      	pop	{r3, r4, r5, pc}
 80061ac:	4b1b      	ldr	r3, [pc, #108]	@ (800621c <xTaskPriorityDisinherit+0x78>)
 80061ae:	681c      	ldr	r4, [r3, #0]
 80061b0:	4284      	cmp	r4, r0
 80061b2:	d008      	beq.n	80061c6 <xTaskPriorityDisinherit+0x22>
 80061b4:	f04f 0350 	mov.w	r3, #80	@ 0x50
 80061b8:	f383 8811 	msr	BASEPRI, r3
 80061bc:	f3bf 8f6f 	isb	sy
 80061c0:	f3bf 8f4f 	dsb	sy
 80061c4:	e7fe      	b.n	80061c4 <xTaskPriorityDisinherit+0x20>
 80061c6:	6d23      	ldr	r3, [r4, #80]	@ 0x50
 80061c8:	b943      	cbnz	r3, 80061dc <xTaskPriorityDisinherit+0x38>
 80061ca:	f04f 0350 	mov.w	r3, #80	@ 0x50
 80061ce:	f383 8811 	msr	BASEPRI, r3
 80061d2:	f3bf 8f6f 	isb	sy
 80061d6:	f3bf 8f4f 	dsb	sy
 80061da:	e7fe      	b.n	80061da <xTaskPriorityDisinherit+0x36>
 80061dc:	6ae1      	ldr	r1, [r4, #44]	@ 0x2c
 80061de:	6ce2      	ldr	r2, [r4, #76]	@ 0x4c
 80061e0:	3b01      	subs	r3, #1
 80061e2:	4291      	cmp	r1, r2
 80061e4:	6523      	str	r3, [r4, #80]	@ 0x50
 80061e6:	d0df      	beq.n	80061a8 <xTaskPriorityDisinherit+0x4>
 80061e8:	2b00      	cmp	r3, #0
 80061ea:	d1dd      	bne.n	80061a8 <xTaskPriorityDisinherit+0x4>
 80061ec:	1d25      	adds	r5, r4, #4
 80061ee:	4628      	mov	r0, r5
 80061f0:	f7ff f874 	bl	80052dc <uxListRemove>
 80061f4:	6ce3      	ldr	r3, [r4, #76]	@ 0x4c
 80061f6:	62e3      	str	r3, [r4, #44]	@ 0x2c
 80061f8:	f1c3 0238 	rsb	r2, r3, #56	@ 0x38
 80061fc:	61a2      	str	r2, [r4, #24]
 80061fe:	4a08      	ldr	r2, [pc, #32]	@ (8006220 <xTaskPriorityDisinherit+0x7c>)
 8006200:	6811      	ldr	r1, [r2, #0]
 8006202:	428b      	cmp	r3, r1
 8006204:	bf88      	it	hi
 8006206:	6013      	strhi	r3, [r2, #0]
 8006208:	4a06      	ldr	r2, [pc, #24]	@ (8006224 <xTaskPriorityDisinherit+0x80>)
 800620a:	2014      	movs	r0, #20
 800620c:	fb00 2003 	mla	r0, r0, r3, r2
 8006210:	4629      	mov	r1, r5
 8006212:	f7ff f841 	bl	8005298 <vListInsertEnd>
 8006216:	2001      	movs	r0, #1
 8006218:	e7c7      	b.n	80061aa <xTaskPriorityDisinherit+0x6>
 800621a:	bf00      	nop
 800621c:	200039a4 	.word	0x200039a4
 8006220:	200034c8 	.word	0x200034c8
 8006224:	20003544 	.word	0x20003544

08006228 <prvInsertTimerInActiveList>:
 8006228:	4291      	cmp	r1, r2
 800622a:	b508      	push	{r3, lr}
 800622c:	6041      	str	r1, [r0, #4]
 800622e:	6100      	str	r0, [r0, #16]
 8006230:	d80a      	bhi.n	8006248 <prvInsertTimerInActiveList+0x20>
 8006232:	1ad2      	subs	r2, r2, r3
 8006234:	6983      	ldr	r3, [r0, #24]
 8006236:	429a      	cmp	r2, r3
 8006238:	d20d      	bcs.n	8006256 <prvInsertTimerInActiveList+0x2e>
 800623a:	4b08      	ldr	r3, [pc, #32]	@ (800625c <prvInsertTimerInActiveList+0x34>)
 800623c:	1d01      	adds	r1, r0, #4
 800623e:	6818      	ldr	r0, [r3, #0]
 8006240:	f7ff f835 	bl	80052ae <vListInsert>
 8006244:	2000      	movs	r0, #0
 8006246:	bd08      	pop	{r3, pc}
 8006248:	429a      	cmp	r2, r3
 800624a:	d201      	bcs.n	8006250 <prvInsertTimerInActiveList+0x28>
 800624c:	4299      	cmp	r1, r3
 800624e:	d202      	bcs.n	8006256 <prvInsertTimerInActiveList+0x2e>
 8006250:	4b03      	ldr	r3, [pc, #12]	@ (8006260 <prvInsertTimerInActiveList+0x38>)
 8006252:	1d01      	adds	r1, r0, #4
 8006254:	e7f3      	b.n	800623e <prvInsertTimerInActiveList+0x16>
 8006256:	2001      	movs	r0, #1
 8006258:	e7f5      	b.n	8006246 <prvInsertTimerInActiveList+0x1e>
 800625a:	bf00      	nop
 800625c:	20003aa4 	.word	0x20003aa4
 8006260:	20003aa8 	.word	0x20003aa8

08006264 <prvCheckForValidListAndQueue>:
 8006264:	b5f7      	push	{r0, r1, r2, r4, r5, r6, r7, lr}
 8006266:	4c11      	ldr	r4, [pc, #68]	@ (80062ac <prvCheckForValidListAndQueue+0x48>)
 8006268:	f000 fa2c 	bl	80066c4 <vPortEnterCritical>
 800626c:	6825      	ldr	r5, [r4, #0]
 800626e:	b9bd      	cbnz	r5, 80062a0 <prvCheckForValidListAndQueue+0x3c>
 8006270:	4f0f      	ldr	r7, [pc, #60]	@ (80062b0 <prvCheckForValidListAndQueue+0x4c>)
 8006272:	4e10      	ldr	r6, [pc, #64]	@ (80062b4 <prvCheckForValidListAndQueue+0x50>)
 8006274:	4638      	mov	r0, r7
 8006276:	f7ff f801 	bl	800527c <vListInitialise>
 800627a:	4630      	mov	r0, r6
 800627c:	f7fe fffe 	bl	800527c <vListInitialise>
 8006280:	4b0d      	ldr	r3, [pc, #52]	@ (80062b8 <prvCheckForValidListAndQueue+0x54>)
 8006282:	4a0e      	ldr	r2, [pc, #56]	@ (80062bc <prvCheckForValidListAndQueue+0x58>)
 8006284:	601f      	str	r7, [r3, #0]
 8006286:	4b0e      	ldr	r3, [pc, #56]	@ (80062c0 <prvCheckForValidListAndQueue+0x5c>)
 8006288:	2110      	movs	r1, #16
 800628a:	601e      	str	r6, [r3, #0]
 800628c:	200a      	movs	r0, #10
 800628e:	4b0d      	ldr	r3, [pc, #52]	@ (80062c4 <prvCheckForValidListAndQueue+0x60>)
 8006290:	9500      	str	r5, [sp, #0]
 8006292:	f7ff f8fc 	bl	800548e <xQueueGenericCreateStatic>
 8006296:	6020      	str	r0, [r4, #0]
 8006298:	b110      	cbz	r0, 80062a0 <prvCheckForValidListAndQueue+0x3c>
 800629a:	490b      	ldr	r1, [pc, #44]	@ (80062c8 <prvCheckForValidListAndQueue+0x64>)
 800629c:	f7ff faf2 	bl	8005884 <vQueueAddToRegistry>
 80062a0:	b003      	add	sp, #12
 80062a2:	e8bd 40f0 	ldmia.w	sp!, {r4, r5, r6, r7, lr}
 80062a6:	f000 ba2d 	b.w	8006704 <vPortExitCritical>
 80062aa:	bf00      	nop
 80062ac:	20003aa0 	.word	0x20003aa0
 80062b0:	20003ac0 	.word	0x20003ac0
 80062b4:	20003aac 	.word	0x20003aac
 80062b8:	20003aa8 	.word	0x20003aa8
 80062bc:	200039f8 	.word	0x200039f8
 80062c0:	20003aa4 	.word	0x20003aa4
 80062c4:	200039a8 	.word	0x200039a8
 80062c8:	08008ef2 	.word	0x08008ef2

080062cc <xTimerCreateTimerTask>:
 80062cc:	b510      	push	{r4, lr}
 80062ce:	b088      	sub	sp, #32
 80062d0:	f7ff ffc8 	bl	8006264 <prvCheckForValidListAndQueue>
 80062d4:	4b12      	ldr	r3, [pc, #72]	@ (8006320 <xTimerCreateTimerTask+0x54>)
 80062d6:	681b      	ldr	r3, [r3, #0]
 80062d8:	b1b3      	cbz	r3, 8006308 <xTimerCreateTimerTask+0x3c>
 80062da:	2400      	movs	r4, #0
 80062dc:	aa07      	add	r2, sp, #28
 80062de:	a906      	add	r1, sp, #24
 80062e0:	a805      	add	r0, sp, #20
 80062e2:	e9cd 4405 	strd	r4, r4, [sp, #20]
 80062e6:	f7fe ffbd 	bl	8005264 <vApplicationGetTimerTaskMemory>
 80062ea:	9b05      	ldr	r3, [sp, #20]
 80062ec:	9302      	str	r3, [sp, #8]
 80062ee:	9b06      	ldr	r3, [sp, #24]
 80062f0:	9301      	str	r3, [sp, #4]
 80062f2:	2302      	movs	r3, #2
 80062f4:	9300      	str	r3, [sp, #0]
 80062f6:	9a07      	ldr	r2, [sp, #28]
 80062f8:	490a      	ldr	r1, [pc, #40]	@ (8006324 <xTimerCreateTimerTask+0x58>)
 80062fa:	480b      	ldr	r0, [pc, #44]	@ (8006328 <xTimerCreateTimerTask+0x5c>)
 80062fc:	4623      	mov	r3, r4
 80062fe:	f7ff fc58 	bl	8005bb2 <xTaskCreateStatic>
 8006302:	4b0a      	ldr	r3, [pc, #40]	@ (800632c <xTimerCreateTimerTask+0x60>)
 8006304:	6018      	str	r0, [r3, #0]
 8006306:	b940      	cbnz	r0, 800631a <xTimerCreateTimerTask+0x4e>
 8006308:	f04f 0350 	mov.w	r3, #80	@ 0x50
 800630c:	f383 8811 	msr	BASEPRI, r3
 8006310:	f3bf 8f6f 	isb	sy
 8006314:	f3bf 8f4f 	dsb	sy
 8006318:	e7fe      	b.n	8006318 <xTimerCreateTimerTask+0x4c>
 800631a:	2001      	movs	r0, #1
 800631c:	b008      	add	sp, #32
 800631e:	bd10      	pop	{r4, pc}
 8006320:	20003aa0 	.word	0x20003aa0
 8006324:	08008ef7 	.word	0x08008ef7
 8006328:	0800642d 	.word	0x0800642d
 800632c:	20003a9c 	.word	0x20003a9c

08006330 <xTimerGenericCommand>:
 8006330:	b57f      	push	{r0, r1, r2, r3, r4, r5, r6, lr}
 8006332:	4616      	mov	r6, r2
 8006334:	4604      	mov	r4, r0
 8006336:	461a      	mov	r2, r3
 8006338:	b940      	cbnz	r0, 800634c <xTimerGenericCommand+0x1c>
 800633a:	f04f 0350 	mov.w	r3, #80	@ 0x50
 800633e:	f383 8811 	msr	BASEPRI, r3
 8006342:	f3bf 8f6f 	isb	sy
 8006346:	f3bf 8f4f 	dsb	sy
 800634a:	e7fe      	b.n	800634a <xTimerGenericCommand+0x1a>
 800634c:	4d0d      	ldr	r5, [pc, #52]	@ (8006384 <xTimerGenericCommand+0x54>)
 800634e:	6828      	ldr	r0, [r5, #0]
 8006350:	b180      	cbz	r0, 8006374 <xTimerGenericCommand+0x44>
 8006352:	2905      	cmp	r1, #5
 8006354:	e9cd 1600 	strd	r1, r6, [sp]
 8006358:	9402      	str	r4, [sp, #8]
 800635a:	dc0d      	bgt.n	8006378 <xTimerGenericCommand+0x48>
 800635c:	f7ff ff12 	bl	8006184 <xTaskGetSchedulerState>
 8006360:	2300      	movs	r3, #0
 8006362:	2802      	cmp	r0, #2
 8006364:	bf08      	it	eq
 8006366:	9a08      	ldreq	r2, [sp, #32]
 8006368:	6828      	ldr	r0, [r5, #0]
 800636a:	bf18      	it	ne
 800636c:	461a      	movne	r2, r3
 800636e:	4669      	mov	r1, sp
 8006370:	f7ff f8db 	bl	800552a <xQueueGenericSend>
 8006374:	b004      	add	sp, #16
 8006376:	bd70      	pop	{r4, r5, r6, pc}
 8006378:	2300      	movs	r3, #0
 800637a:	4669      	mov	r1, sp
 800637c:	f7ff f987 	bl	800568e <xQueueGenericSendFromISR>
 8006380:	e7f8      	b.n	8006374 <xTimerGenericCommand+0x44>
 8006382:	bf00      	nop
 8006384:	20003aa0 	.word	0x20003aa0

08006388 <prvSampleTimeNow>:
 8006388:	e92d 47f3 	stmdb	sp!, {r0, r1, r4, r5, r6, r7, r8, r9, sl, lr}
 800638c:	f8df 8098 	ldr.w	r8, [pc, #152]	@ 8006428 <prvSampleTimeNow+0xa0>
 8006390:	4606      	mov	r6, r0
 8006392:	f7ff fcc3 	bl	8005d1c <xTaskGetTickCount>
 8006396:	f8d8 3000 	ldr.w	r3, [r8]
 800639a:	4283      	cmp	r3, r0
 800639c:	4605      	mov	r5, r0
 800639e:	d909      	bls.n	80063b4 <prvSampleTimeNow+0x2c>
 80063a0:	4f1f      	ldr	r7, [pc, #124]	@ (8006420 <prvSampleTimeNow+0x98>)
 80063a2:	683b      	ldr	r3, [r7, #0]
 80063a4:	681a      	ldr	r2, [r3, #0]
 80063a6:	b96a      	cbnz	r2, 80063c4 <prvSampleTimeNow+0x3c>
 80063a8:	4a1e      	ldr	r2, [pc, #120]	@ (8006424 <prvSampleTimeNow+0x9c>)
 80063aa:	6811      	ldr	r1, [r2, #0]
 80063ac:	6039      	str	r1, [r7, #0]
 80063ae:	6013      	str	r3, [r2, #0]
 80063b0:	2301      	movs	r3, #1
 80063b2:	e000      	b.n	80063b6 <prvSampleTimeNow+0x2e>
 80063b4:	2300      	movs	r3, #0
 80063b6:	4628      	mov	r0, r5
 80063b8:	6033      	str	r3, [r6, #0]
 80063ba:	f8c8 5000 	str.w	r5, [r8]
 80063be:	b002      	add	sp, #8
 80063c0:	e8bd 87f0 	ldmia.w	sp!, {r4, r5, r6, r7, r8, r9, sl, pc}
 80063c4:	68db      	ldr	r3, [r3, #12]
 80063c6:	68dc      	ldr	r4, [r3, #12]
 80063c8:	f8d3 9000 	ldr.w	r9, [r3]
 80063cc:	f104 0a04 	add.w	sl, r4, #4
 80063d0:	4650      	mov	r0, sl
 80063d2:	f7fe ff83 	bl	80052dc <uxListRemove>
 80063d6:	6a23      	ldr	r3, [r4, #32]
 80063d8:	4620      	mov	r0, r4
 80063da:	4798      	blx	r3
 80063dc:	f894 3028 	ldrb.w	r3, [r4, #40]	@ 0x28
 80063e0:	075b      	lsls	r3, r3, #29
 80063e2:	d5de      	bpl.n	80063a2 <prvSampleTimeNow+0x1a>
 80063e4:	69a3      	ldr	r3, [r4, #24]
 80063e6:	444b      	add	r3, r9
 80063e8:	4599      	cmp	r9, r3
 80063ea:	d206      	bcs.n	80063fa <prvSampleTimeNow+0x72>
 80063ec:	6838      	ldr	r0, [r7, #0]
 80063ee:	6063      	str	r3, [r4, #4]
 80063f0:	6124      	str	r4, [r4, #16]
 80063f2:	4651      	mov	r1, sl
 80063f4:	f7fe ff5b 	bl	80052ae <vListInsert>
 80063f8:	e7d3      	b.n	80063a2 <prvSampleTimeNow+0x1a>
 80063fa:	2300      	movs	r3, #0
 80063fc:	9300      	str	r3, [sp, #0]
 80063fe:	464a      	mov	r2, r9
 8006400:	4619      	mov	r1, r3
 8006402:	4620      	mov	r0, r4
 8006404:	f7ff ff94 	bl	8006330 <xTimerGenericCommand>
 8006408:	2800      	cmp	r0, #0
 800640a:	d1ca      	bne.n	80063a2 <prvSampleTimeNow+0x1a>
 800640c:	f04f 0350 	mov.w	r3, #80	@ 0x50
 8006410:	f383 8811 	msr	BASEPRI, r3
 8006414:	f3bf 8f6f 	isb	sy
 8006418:	f3bf 8f4f 	dsb	sy
 800641c:	e7fe      	b.n	800641c <prvSampleTimeNow+0x94>
 800641e:	bf00      	nop
 8006420:	20003aa8 	.word	0x20003aa8
 8006424:	20003aa4 	.word	0x20003aa4
 8006428:	20003a98 	.word	0x20003a98

0800642c <prvTimerTask>:
 800642c:	e92d 43f0 	stmdb	sp!, {r4, r5, r6, r7, r8, r9, lr}
 8006430:	4d6e      	ldr	r5, [pc, #440]	@ (80065ec <prvTimerTask+0x1c0>)
 8006432:	4e6f      	ldr	r6, [pc, #444]	@ (80065f0 <prvTimerTask+0x1c4>)
 8006434:	b089      	sub	sp, #36	@ 0x24
 8006436:	682b      	ldr	r3, [r5, #0]
 8006438:	f8d3 8000 	ldr.w	r8, [r3]
 800643c:	f1b8 0f00 	cmp.w	r8, #0
 8006440:	d035      	beq.n	80064ae <prvTimerTask+0x82>
 8006442:	68db      	ldr	r3, [r3, #12]
 8006444:	f8d3 8000 	ldr.w	r8, [r3]
 8006448:	2400      	movs	r4, #0
 800644a:	f7ff fc5f 	bl	8005d0c <vTaskSuspendAll>
 800644e:	a804      	add	r0, sp, #16
 8006450:	f7ff ff9a 	bl	8006388 <prvSampleTimeNow>
 8006454:	9b04      	ldr	r3, [sp, #16]
 8006456:	4681      	mov	r9, r0
 8006458:	2b00      	cmp	r3, #0
 800645a:	d169      	bne.n	8006530 <prvTimerTask+0x104>
 800645c:	2c00      	cmp	r4, #0
 800645e:	d14c      	bne.n	80064fa <prvTimerTask+0xce>
 8006460:	4540      	cmp	r0, r8
 8006462:	d350      	bcc.n	8006506 <prvTimerTask+0xda>
 8006464:	f7ff fcf6 	bl	8005e54 <xTaskResumeAll>
 8006468:	682b      	ldr	r3, [r5, #0]
 800646a:	68db      	ldr	r3, [r3, #12]
 800646c:	68df      	ldr	r7, [r3, #12]
 800646e:	1d38      	adds	r0, r7, #4
 8006470:	f7fe ff34 	bl	80052dc <uxListRemove>
 8006474:	f897 3028 	ldrb.w	r3, [r7, #40]	@ 0x28
 8006478:	0758      	lsls	r0, r3, #29
 800647a:	d51a      	bpl.n	80064b2 <prvTimerTask+0x86>
 800647c:	69b9      	ldr	r1, [r7, #24]
 800647e:	4643      	mov	r3, r8
 8006480:	464a      	mov	r2, r9
 8006482:	4441      	add	r1, r8
 8006484:	4638      	mov	r0, r7
 8006486:	f7ff fecf 	bl	8006228 <prvInsertTimerInActiveList>
 800648a:	b1b0      	cbz	r0, 80064ba <prvTimerTask+0x8e>
 800648c:	9400      	str	r4, [sp, #0]
 800648e:	4623      	mov	r3, r4
 8006490:	4642      	mov	r2, r8
 8006492:	4621      	mov	r1, r4
 8006494:	4638      	mov	r0, r7
 8006496:	f7ff ff4b 	bl	8006330 <xTimerGenericCommand>
 800649a:	b970      	cbnz	r0, 80064ba <prvTimerTask+0x8e>
 800649c:	f04f 0350 	mov.w	r3, #80	@ 0x50
 80064a0:	f383 8811 	msr	BASEPRI, r3
 80064a4:	f3bf 8f6f 	isb	sy
 80064a8:	f3bf 8f4f 	dsb	sy
 80064ac:	e7fe      	b.n	80064ac <prvTimerTask+0x80>
 80064ae:	2401      	movs	r4, #1
 80064b0:	e7cb      	b.n	800644a <prvTimerTask+0x1e>
 80064b2:	f023 0301 	bic.w	r3, r3, #1
 80064b6:	f887 3028 	strb.w	r3, [r7, #40]	@ 0x28
 80064ba:	6a3b      	ldr	r3, [r7, #32]
 80064bc:	4638      	mov	r0, r7
 80064be:	4798      	blx	r3
 80064c0:	6830      	ldr	r0, [r6, #0]
 80064c2:	2200      	movs	r2, #0
 80064c4:	a904      	add	r1, sp, #16
 80064c6:	f7ff f93f 	bl	8005748 <xQueueReceive>
 80064ca:	2800      	cmp	r0, #0
 80064cc:	d0b3      	beq.n	8006436 <prvTimerTask+0xa>
 80064ce:	9b04      	ldr	r3, [sp, #16]
 80064d0:	9806      	ldr	r0, [sp, #24]
 80064d2:	2b00      	cmp	r3, #0
 80064d4:	db2f      	blt.n	8006536 <prvTimerTask+0x10a>
 80064d6:	9c06      	ldr	r4, [sp, #24]
 80064d8:	6963      	ldr	r3, [r4, #20]
 80064da:	2b00      	cmp	r3, #0
 80064dc:	d132      	bne.n	8006544 <prvTimerTask+0x118>
 80064de:	a803      	add	r0, sp, #12
 80064e0:	f7ff ff52 	bl	8006388 <prvSampleTimeNow>
 80064e4:	9b04      	ldr	r3, [sp, #16]
 80064e6:	4602      	mov	r2, r0
 80064e8:	2b09      	cmp	r3, #9
 80064ea:	d8e9      	bhi.n	80064c0 <prvTimerTask+0x94>
 80064ec:	e8df f003 	tbb	[pc, r3]
 80064f0:	572e2e2e 	.word	0x572e2e2e
 80064f4:	2e2e765e 	.word	0x2e2e765e
 80064f8:	5e57      	.short	0x5e57
 80064fa:	4b3e      	ldr	r3, [pc, #248]	@ (80065f4 <prvTimerTask+0x1c8>)
 80064fc:	681b      	ldr	r3, [r3, #0]
 80064fe:	681c      	ldr	r4, [r3, #0]
 8006500:	fab4 f484 	clz	r4, r4
 8006504:	0964      	lsrs	r4, r4, #5
 8006506:	6830      	ldr	r0, [r6, #0]
 8006508:	4622      	mov	r2, r4
 800650a:	eba8 0109 	sub.w	r1, r8, r9
 800650e:	f7ff f9cb 	bl	80058a8 <vQueueWaitForMessageRestricted>
 8006512:	f7ff fc9f 	bl	8005e54 <xTaskResumeAll>
 8006516:	2800      	cmp	r0, #0
 8006518:	d1d2      	bne.n	80064c0 <prvTimerTask+0x94>
 800651a:	f04f 23e0 	mov.w	r3, #3758153728	@ 0xe000e000
 800651e:	f04f 5280 	mov.w	r2, #268435456	@ 0x10000000
 8006522:	f8c3 2d04 	str.w	r2, [r3, #3332]	@ 0xd04
 8006526:	f3bf 8f4f 	dsb	sy
 800652a:	f3bf 8f6f 	isb	sy
 800652e:	e7c7      	b.n	80064c0 <prvTimerTask+0x94>
 8006530:	f7ff fc90 	bl	8005e54 <xTaskResumeAll>
 8006534:	e7c4      	b.n	80064c0 <prvTimerTask+0x94>
 8006536:	9b05      	ldr	r3, [sp, #20]
 8006538:	9907      	ldr	r1, [sp, #28]
 800653a:	4798      	blx	r3
 800653c:	9b04      	ldr	r3, [sp, #16]
 800653e:	2b00      	cmp	r3, #0
 8006540:	dbbe      	blt.n	80064c0 <prvTimerTask+0x94>
 8006542:	e7c8      	b.n	80064d6 <prvTimerTask+0xaa>
 8006544:	1d20      	adds	r0, r4, #4
 8006546:	f7fe fec9 	bl	80052dc <uxListRemove>
 800654a:	e7c8      	b.n	80064de <prvTimerTask+0xb2>
 800654c:	f894 3028 	ldrb.w	r3, [r4, #40]	@ 0x28
 8006550:	69a1      	ldr	r1, [r4, #24]
 8006552:	f043 0301 	orr.w	r3, r3, #1
 8006556:	f884 3028 	strb.w	r3, [r4, #40]	@ 0x28
 800655a:	9b05      	ldr	r3, [sp, #20]
 800655c:	4620      	mov	r0, r4
 800655e:	4419      	add	r1, r3
 8006560:	f7ff fe62 	bl	8006228 <prvInsertTimerInActiveList>
 8006564:	2800      	cmp	r0, #0
 8006566:	d0ab      	beq.n	80064c0 <prvTimerTask+0x94>
 8006568:	6a23      	ldr	r3, [r4, #32]
 800656a:	4620      	mov	r0, r4
 800656c:	4798      	blx	r3
 800656e:	f894 3028 	ldrb.w	r3, [r4, #40]	@ 0x28
 8006572:	0759      	lsls	r1, r3, #29
 8006574:	d5a4      	bpl.n	80064c0 <prvTimerTask+0x94>
 8006576:	69a2      	ldr	r2, [r4, #24]
 8006578:	9905      	ldr	r1, [sp, #20]
 800657a:	2300      	movs	r3, #0
 800657c:	440a      	add	r2, r1
 800657e:	9300      	str	r3, [sp, #0]
 8006580:	4619      	mov	r1, r3
 8006582:	4620      	mov	r0, r4
 8006584:	f7ff fed4 	bl	8006330 <xTimerGenericCommand>
 8006588:	2800      	cmp	r0, #0
 800658a:	d199      	bne.n	80064c0 <prvTimerTask+0x94>
 800658c:	f04f 0350 	mov.w	r3, #80	@ 0x50
 8006590:	f383 8811 	msr	BASEPRI, r3
 8006594:	f3bf 8f6f 	isb	sy
 8006598:	f3bf 8f4f 	dsb	sy
 800659c:	e7fe      	b.n	800659c <prvTimerTask+0x170>
 800659e:	f894 3028 	ldrb.w	r3, [r4, #40]	@ 0x28
 80065a2:	f023 0301 	bic.w	r3, r3, #1
 80065a6:	f884 3028 	strb.w	r3, [r4, #40]	@ 0x28
 80065aa:	e789      	b.n	80064c0 <prvTimerTask+0x94>
 80065ac:	f894 3028 	ldrb.w	r3, [r4, #40]	@ 0x28
 80065b0:	f043 0301 	orr.w	r3, r3, #1
 80065b4:	f884 3028 	strb.w	r3, [r4, #40]	@ 0x28
 80065b8:	9905      	ldr	r1, [sp, #20]
 80065ba:	61a1      	str	r1, [r4, #24]
 80065bc:	b941      	cbnz	r1, 80065d0 <prvTimerTask+0x1a4>
 80065be:	f04f 0350 	mov.w	r3, #80	@ 0x50
 80065c2:	f383 8811 	msr	BASEPRI, r3
 80065c6:	f3bf 8f6f 	isb	sy
 80065ca:	f3bf 8f4f 	dsb	sy
 80065ce:	e7fe      	b.n	80065ce <prvTimerTask+0x1a2>
 80065d0:	4603      	mov	r3, r0
 80065d2:	4401      	add	r1, r0
 80065d4:	4620      	mov	r0, r4
 80065d6:	f7ff fe27 	bl	8006228 <prvInsertTimerInActiveList>
 80065da:	e771      	b.n	80064c0 <prvTimerTask+0x94>
 80065dc:	f894 3028 	ldrb.w	r3, [r4, #40]	@ 0x28
 80065e0:	079a      	lsls	r2, r3, #30
 80065e2:	d4de      	bmi.n	80065a2 <prvTimerTask+0x176>
 80065e4:	4620      	mov	r0, r4
 80065e6:	f000 fa6b 	bl	8006ac0 <vPortFree>
 80065ea:	e769      	b.n	80064c0 <prvTimerTask+0x94>
 80065ec:	20003aa8 	.word	0x20003aa8
 80065f0:	20003aa0 	.word	0x20003aa0
 80065f4:	20003aa4 	.word	0x20003aa4

080065f8 <prvPortStartFirstTask>:
 80065f8:	4808      	ldr	r0, [pc, #32]	@ (800661c <prvPortStartFirstTask+0x24>)
 80065fa:	6800      	ldr	r0, [r0, #0]
 80065fc:	6800      	ldr	r0, [r0, #0]
 80065fe:	f380 8808 	msr	MSP, r0
 8006602:	f04f 0000 	mov.w	r0, #0
 8006606:	f380 8814 	msr	CONTROL, r0
 800660a:	b662      	cpsie	i
 800660c:	b661      	cpsie	f
 800660e:	f3bf 8f4f 	dsb	sy
 8006612:	f3bf 8f6f 	isb	sy
 8006616:	df00      	svc	0
 8006618:	bf00      	nop
 800661a:	0000      	.short	0x0000
 800661c:	e000ed08 	.word	0xe000ed08

08006620 <vPortEnableVFP>:
 8006620:	f8df 000c 	ldr.w	r0, [pc, #12]	@ 8006630 <vPortEnableVFP+0x10>
 8006624:	6801      	ldr	r1, [r0, #0]
 8006626:	f441 0170 	orr.w	r1, r1, #15728640	@ 0xf00000
 800662a:	6001      	str	r1, [r0, #0]
 800662c:	4770      	bx	lr
 800662e:	0000      	.short	0x0000
 8006630:	e000ed88 	.word	0xe000ed88

08006634 <prvTaskExitError>:
 8006634:	b082      	sub	sp, #8
 8006636:	2300      	movs	r3, #0
 8006638:	9301      	str	r3, [sp, #4]
 800663a:	4b0d      	ldr	r3, [pc, #52]	@ (8006670 <prvTaskExitError+0x3c>)
 800663c:	681b      	ldr	r3, [r3, #0]
 800663e:	3301      	adds	r3, #1
 8006640:	d008      	beq.n	8006654 <prvTaskExitError+0x20>
 8006642:	f04f 0350 	mov.w	r3, #80	@ 0x50
 8006646:	f383 8811 	msr	BASEPRI, r3
 800664a:	f3bf 8f6f 	isb	sy
 800664e:	f3bf 8f4f 	dsb	sy
 8006652:	e7fe      	b.n	8006652 <prvTaskExitError+0x1e>
 8006654:	f04f 0350 	mov.w	r3, #80	@ 0x50
 8006658:	f383 8811 	msr	BASEPRI, r3
 800665c:	f3bf 8f6f 	isb	sy
 8006660:	f3bf 8f4f 	dsb	sy
 8006664:	9b01      	ldr	r3, [sp, #4]
 8006666:	2b00      	cmp	r3, #0
 8006668:	d0fc      	beq.n	8006664 <prvTaskExitError+0x30>
 800666a:	b002      	add	sp, #8
 800666c:	4770      	bx	lr
 800666e:	bf00      	nop
 8006670:	200003b0 	.word	0x200003b0

08006674 <pxPortInitialiseStack>:
 8006674:	f04f 7380 	mov.w	r3, #16777216	@ 0x1000000
 8006678:	f840 3c04 	str.w	r3, [r0, #-4]
 800667c:	4b07      	ldr	r3, [pc, #28]	@ (800669c <pxPortInitialiseStack+0x28>)
 800667e:	f840 3c0c 	str.w	r3, [r0, #-12]
 8006682:	f021 0101 	bic.w	r1, r1, #1
 8006686:	f06f 0302 	mvn.w	r3, #2
 800668a:	f840 1c08 	str.w	r1, [r0, #-8]
 800668e:	f840 2c20 	str.w	r2, [r0, #-32]
 8006692:	f840 3c24 	str.w	r3, [r0, #-36]
 8006696:	3844      	subs	r0, #68	@ 0x44
 8006698:	4770      	bx	lr
 800669a:	bf00      	nop
 800669c:	08006635 	.word	0x08006635

080066a0 <SVC_Handler>:
 80066a0:	4b07      	ldr	r3, [pc, #28]	@ (80066c0 <pxCurrentTCBConst2>)
 80066a2:	6819      	ldr	r1, [r3, #0]
 80066a4:	6808      	ldr	r0, [r1, #0]
 80066a6:	e8b0 4ff0 	ldmia.w	r0!, {r4, r5, r6, r7, r8, r9, sl, fp, lr}
 80066aa:	f380 8809 	msr	PSP, r0
 80066ae:	f3bf 8f6f 	isb	sy
 80066b2:	f04f 0000 	mov.w	r0, #0
 80066b6:	f380 8811 	msr	BASEPRI, r0
 80066ba:	4770      	bx	lr
 80066bc:	f3af 8000 	nop.w

080066c0 <pxCurrentTCBConst2>:
 80066c0:	200039a4 	.word	0x200039a4

080066c4 <vPortEnterCritical>:
 80066c4:	f04f 0350 	mov.w	r3, #80	@ 0x50
 80066c8:	f383 8811 	msr	BASEPRI, r3
 80066cc:	f3bf 8f6f 	isb	sy
 80066d0:	f3bf 8f4f 	dsb	sy
 80066d4:	4a0a      	ldr	r2, [pc, #40]	@ (8006700 <vPortEnterCritical+0x3c>)
 80066d6:	6813      	ldr	r3, [r2, #0]
 80066d8:	3301      	adds	r3, #1
 80066da:	2b01      	cmp	r3, #1
 80066dc:	6013      	str	r3, [r2, #0]
 80066de:	d10e      	bne.n	80066fe <vPortEnterCritical+0x3a>
 80066e0:	f04f 23e0 	mov.w	r3, #3758153728	@ 0xe000e000
 80066e4:	f8d3 3d04 	ldr.w	r3, [r3, #3332]	@ 0xd04
 80066e8:	b2db      	uxtb	r3, r3
 80066ea:	b143      	cbz	r3, 80066fe <vPortEnterCritical+0x3a>
 80066ec:	f04f 0350 	mov.w	r3, #80	@ 0x50
 80066f0:	f383 8811 	msr	BASEPRI, r3
 80066f4:	f3bf 8f6f 	isb	sy
 80066f8:	f3bf 8f4f 	dsb	sy
 80066fc:	e7fe      	b.n	80066fc <vPortEnterCritical+0x38>
 80066fe:	4770      	bx	lr
 8006700:	200003b0 	.word	0x200003b0

08006704 <vPortExitCritical>:
 8006704:	4a08      	ldr	r2, [pc, #32]	@ (8006728 <vPortExitCritical+0x24>)
 8006706:	6813      	ldr	r3, [r2, #0]
 8006708:	b943      	cbnz	r3, 800671c <vPortExitCritical+0x18>
 800670a:	f04f 0350 	mov.w	r3, #80	@ 0x50
 800670e:	f383 8811 	msr	BASEPRI, r3
 8006712:	f3bf 8f6f 	isb	sy
 8006716:	f3bf 8f4f 	dsb	sy
 800671a:	e7fe      	b.n	800671a <vPortExitCritical+0x16>
 800671c:	3b01      	subs	r3, #1
 800671e:	6013      	str	r3, [r2, #0]
 8006720:	b90b      	cbnz	r3, 8006726 <vPortExitCritical+0x22>
 8006722:	f383 8811 	msr	BASEPRI, r3
 8006726:	4770      	bx	lr
 8006728:	200003b0 	.word	0x200003b0
 800672c:	00000000 	.word	0x00000000

08006730 <PendSV_Handler>:
 8006730:	f3ef 8009 	mrs	r0, PSP
 8006734:	f3bf 8f6f 	isb	sy
 8006738:	4b15      	ldr	r3, [pc, #84]	@ (8006790 <pxCurrentTCBConst>)
 800673a:	681a      	ldr	r2, [r3, #0]
 800673c:	f01e 0f10 	tst.w	lr, #16
 8006740:	bf08      	it	eq
 8006742:	ed20 8a10 	vstmdbeq	r0!, {s16-s31}
 8006746:	e920 4ff0 	stmdb	r0!, {r4, r5, r6, r7, r8, r9, sl, fp, lr}
 800674a:	6010      	str	r0, [r2, #0]
 800674c:	e92d 0009 	stmdb	sp!, {r0, r3}
 8006750:	f04f 0050 	mov.w	r0, #80	@ 0x50
 8006754:	f380 8811 	msr	BASEPRI, r0
 8006758:	f3bf 8f4f 	dsb	sy
 800675c:	f3bf 8f6f 	isb	sy
 8006760:	f7ff fc10 	bl	8005f84 <vTaskSwitchContext>
 8006764:	f04f 0000 	mov.w	r0, #0
 8006768:	f380 8811 	msr	BASEPRI, r0
 800676c:	bc09      	pop	{r0, r3}
 800676e:	6819      	ldr	r1, [r3, #0]
 8006770:	6808      	ldr	r0, [r1, #0]
 8006772:	e8b0 4ff0 	ldmia.w	r0!, {r4, r5, r6, r7, r8, r9, sl, fp, lr}
 8006776:	f01e 0f10 	tst.w	lr, #16
 800677a:	bf08      	it	eq
 800677c:	ecb0 8a10 	vldmiaeq	r0!, {s16-s31}
 8006780:	f380 8809 	msr	PSP, r0
 8006784:	f3bf 8f6f 	isb	sy
 8006788:	4770      	bx	lr
 800678a:	bf00      	nop
 800678c:	f3af 8000 	nop.w

08006790 <pxCurrentTCBConst>:
 8006790:	200039a4 	.word	0x200039a4

08006794 <xPortSysTickHandler>:
 8006794:	b508      	push	{r3, lr}
 8006796:	f04f 0350 	mov.w	r3, #80	@ 0x50
 800679a:	f383 8811 	msr	BASEPRI, r3
 800679e:	f3bf 8f6f 	isb	sy
 80067a2:	f3bf 8f4f 	dsb	sy
 80067a6:	f7ff fabf 	bl	8005d28 <xTaskIncrementTick>
 80067aa:	b128      	cbz	r0, 80067b8 <xPortSysTickHandler+0x24>
 80067ac:	f04f 23e0 	mov.w	r3, #3758153728	@ 0xe000e000
 80067b0:	f04f 5280 	mov.w	r2, #268435456	@ 0x10000000
 80067b4:	f8c3 2d04 	str.w	r2, [r3, #3332]	@ 0xd04
 80067b8:	2300      	movs	r3, #0
 80067ba:	f383 8811 	msr	BASEPRI, r3
 80067be:	bd08      	pop	{r3, pc}

080067c0 <vPortSetupTimerInterrupt>:
 80067c0:	f04f 22e0 	mov.w	r2, #3758153728	@ 0xe000e000
 80067c4:	2300      	movs	r3, #0
 80067c6:	6113      	str	r3, [r2, #16]
 80067c8:	6193      	str	r3, [r2, #24]
 80067ca:	4b05      	ldr	r3, [pc, #20]	@ (80067e0 <vPortSetupTimerInterrupt+0x20>)
 80067cc:	f44f 717a 	mov.w	r1, #1000	@ 0x3e8
 80067d0:	681b      	ldr	r3, [r3, #0]
 80067d2:	fbb3 f3f1 	udiv	r3, r3, r1
 80067d6:	3b01      	subs	r3, #1
 80067d8:	6153      	str	r3, [r2, #20]
 80067da:	2307      	movs	r3, #7
 80067dc:	6113      	str	r3, [r2, #16]
 80067de:	4770      	bx	lr
 80067e0:	2000031c 	.word	0x2000031c

080067e4 <xPortStartScheduler>:
 80067e4:	f04f 23e0 	mov.w	r3, #3758153728	@ 0xe000e000
 80067e8:	b537      	push	{r0, r1, r2, r4, r5, lr}
 80067ea:	f8d3 1d00 	ldr.w	r1, [r3, #3328]	@ 0xd00
 80067ee:	4a38      	ldr	r2, [pc, #224]	@ (80068d0 <xPortStartScheduler+0xec>)
 80067f0:	4291      	cmp	r1, r2
 80067f2:	d108      	bne.n	8006806 <xPortStartScheduler+0x22>
 80067f4:	f04f 0350 	mov.w	r3, #80	@ 0x50
 80067f8:	f383 8811 	msr	BASEPRI, r3
 80067fc:	f3bf 8f6f 	isb	sy
 8006800:	f3bf 8f4f 	dsb	sy
 8006804:	e7fe      	b.n	8006804 <xPortStartScheduler+0x20>
 8006806:	f8d3 2d00 	ldr.w	r2, [r3, #3328]	@ 0xd00
 800680a:	4b32      	ldr	r3, [pc, #200]	@ (80068d4 <xPortStartScheduler+0xf0>)
 800680c:	429a      	cmp	r2, r3
 800680e:	d108      	bne.n	8006822 <xPortStartScheduler+0x3e>
 8006810:	f04f 0350 	mov.w	r3, #80	@ 0x50
 8006814:	f383 8811 	msr	BASEPRI, r3
 8006818:	f3bf 8f6f 	isb	sy
 800681c:	f3bf 8f4f 	dsb	sy
 8006820:	e7fe      	b.n	8006820 <xPortStartScheduler+0x3c>
 8006822:	4b2d      	ldr	r3, [pc, #180]	@ (80068d8 <xPortStartScheduler+0xf4>)
 8006824:	781a      	ldrb	r2, [r3, #0]
 8006826:	b2d2      	uxtb	r2, r2
 8006828:	9201      	str	r2, [sp, #4]
 800682a:	22ff      	movs	r2, #255	@ 0xff
 800682c:	701a      	strb	r2, [r3, #0]
 800682e:	781b      	ldrb	r3, [r3, #0]
 8006830:	4a2a      	ldr	r2, [pc, #168]	@ (80068dc <xPortStartScheduler+0xf8>)
 8006832:	b2db      	uxtb	r3, r3
 8006834:	f88d 3003 	strb.w	r3, [sp, #3]
 8006838:	f89d 3003 	ldrb.w	r3, [sp, #3]
 800683c:	f003 0350 	and.w	r3, r3, #80	@ 0x50
 8006840:	7013      	strb	r3, [r2, #0]
 8006842:	4a27      	ldr	r2, [pc, #156]	@ (80068e0 <xPortStartScheduler+0xfc>)
 8006844:	2307      	movs	r3, #7
 8006846:	6013      	str	r3, [r2, #0]
 8006848:	f89d 1003 	ldrb.w	r1, [sp, #3]
 800684c:	6813      	ldr	r3, [r2, #0]
 800684e:	0609      	lsls	r1, r1, #24
 8006850:	d40a      	bmi.n	8006868 <xPortStartScheduler+0x84>
 8006852:	2b03      	cmp	r3, #3
 8006854:	d011      	beq.n	800687a <xPortStartScheduler+0x96>
 8006856:	f04f 0350 	mov.w	r3, #80	@ 0x50
 800685a:	f383 8811 	msr	BASEPRI, r3
 800685e:	f3bf 8f6f 	isb	sy
 8006862:	f3bf 8f4f 	dsb	sy
 8006866:	e7fe      	b.n	8006866 <xPortStartScheduler+0x82>
 8006868:	3b01      	subs	r3, #1
 800686a:	6013      	str	r3, [r2, #0]
 800686c:	f89d 3003 	ldrb.w	r3, [sp, #3]
 8006870:	005b      	lsls	r3, r3, #1
 8006872:	b2db      	uxtb	r3, r3
 8006874:	f88d 3003 	strb.w	r3, [sp, #3]
 8006878:	e7e6      	b.n	8006848 <xPortStartScheduler+0x64>
 800687a:	f44f 7340 	mov.w	r3, #768	@ 0x300
 800687e:	6013      	str	r3, [r2, #0]
 8006880:	9b01      	ldr	r3, [sp, #4]
 8006882:	4a15      	ldr	r2, [pc, #84]	@ (80068d8 <xPortStartScheduler+0xf4>)
 8006884:	f04f 24e0 	mov.w	r4, #3758153728	@ 0xe000e000
 8006888:	b2db      	uxtb	r3, r3
 800688a:	7013      	strb	r3, [r2, #0]
 800688c:	f8d4 3d20 	ldr.w	r3, [r4, #3360]	@ 0xd20
 8006890:	f443 0370 	orr.w	r3, r3, #15728640	@ 0xf00000
 8006894:	f8c4 3d20 	str.w	r3, [r4, #3360]	@ 0xd20
 8006898:	f8d4 3d20 	ldr.w	r3, [r4, #3360]	@ 0xd20
 800689c:	f043 4370 	orr.w	r3, r3, #4026531840	@ 0xf0000000
 80068a0:	f8c4 3d20 	str.w	r3, [r4, #3360]	@ 0xd20
 80068a4:	f7ff ff8c 	bl	80067c0 <vPortSetupTimerInterrupt>
 80068a8:	4b0e      	ldr	r3, [pc, #56]	@ (80068e4 <xPortStartScheduler+0x100>)
 80068aa:	2500      	movs	r5, #0
 80068ac:	601d      	str	r5, [r3, #0]
 80068ae:	f7ff feb7 	bl	8006620 <vPortEnableVFP>
 80068b2:	f8d4 3f34 	ldr.w	r3, [r4, #3892]	@ 0xf34
 80068b6:	f043 4340 	orr.w	r3, r3, #3221225472	@ 0xc0000000
 80068ba:	f8c4 3f34 	str.w	r3, [r4, #3892]	@ 0xf34
 80068be:	f7ff fe9b 	bl	80065f8 <prvPortStartFirstTask>
 80068c2:	f7ff fb5f 	bl	8005f84 <vTaskSwitchContext>
 80068c6:	f7ff feb5 	bl	8006634 <prvTaskExitError>
 80068ca:	4628      	mov	r0, r5
 80068cc:	b003      	add	sp, #12
 80068ce:	bd30      	pop	{r4, r5, pc}
 80068d0:	410fc271 	.word	0x410fc271
 80068d4:	410fc270 	.word	0x410fc270
 80068d8:	e000e400 	.word	0xe000e400
 80068dc:	20003ad8 	.word	0x20003ad8
 80068e0:	20003ad4 	.word	0x20003ad4
 80068e4:	200003b0 	.word	0x200003b0

080068e8 <vPortValidateInterruptPriority>:
 80068e8:	f3ef 8305 	mrs	r3, IPSR
 80068ec:	2b0f      	cmp	r3, #15
 80068ee:	d90e      	bls.n	800690e <vPortValidateInterruptPriority+0x26>
 80068f0:	4a11      	ldr	r2, [pc, #68]	@ (8006938 <vPortValidateInterruptPriority+0x50>)
 80068f2:	5c9b      	ldrb	r3, [r3, r2]
 80068f4:	4a11      	ldr	r2, [pc, #68]	@ (800693c <vPortValidateInterruptPriority+0x54>)
 80068f6:	7812      	ldrb	r2, [r2, #0]
 80068f8:	429a      	cmp	r2, r3
 80068fa:	d908      	bls.n	800690e <vPortValidateInterruptPriority+0x26>
 80068fc:	f04f 0350 	mov.w	r3, #80	@ 0x50
 8006900:	f383 8811 	msr	BASEPRI, r3
 8006904:	f3bf 8f6f 	isb	sy
 8006908:	f3bf 8f4f 	dsb	sy
 800690c:	e7fe      	b.n	800690c <vPortValidateInterruptPriority+0x24>
 800690e:	f04f 23e0 	mov.w	r3, #3758153728	@ 0xe000e000
 8006912:	4a0b      	ldr	r2, [pc, #44]	@ (8006940 <vPortValidateInterruptPriority+0x58>)
 8006914:	f8d3 3d0c 	ldr.w	r3, [r3, #3340]	@ 0xd0c
 8006918:	6812      	ldr	r2, [r2, #0]
 800691a:	f403 63e0 	and.w	r3, r3, #1792	@ 0x700
 800691e:	4293      	cmp	r3, r2
 8006920:	d908      	bls.n	8006934 <vPortValidateInterruptPriority+0x4c>
 8006922:	f04f 0350 	mov.w	r3, #80	@ 0x50
 8006926:	f383 8811 	msr	BASEPRI, r3
 800692a:	f3bf 8f6f 	isb	sy
 800692e:	f3bf 8f4f 	dsb	sy
 8006932:	e7fe      	b.n	8006932 <vPortValidateInterruptPriority+0x4a>
 8006934:	4770      	bx	lr
 8006936:	bf00      	nop
 8006938:	e000e3f0 	.word	0xe000e3f0
 800693c:	20003ad8 	.word	0x20003ad8
 8006940:	20003ad4 	.word	0x20003ad4

08006944 <prvInsertBlockIntoFreeList>:
 8006944:	b510      	push	{r4, lr}
 8006946:	4b10      	ldr	r3, [pc, #64]	@ (8006988 <prvInsertBlockIntoFreeList+0x44>)
 8006948:	461a      	mov	r2, r3
 800694a:	681b      	ldr	r3, [r3, #0]
 800694c:	4283      	cmp	r3, r0
 800694e:	d3fb      	bcc.n	8006948 <prvInsertBlockIntoFreeList+0x4>
 8006950:	6854      	ldr	r4, [r2, #4]
 8006952:	1911      	adds	r1, r2, r4
 8006954:	4288      	cmp	r0, r1
 8006956:	bf01      	itttt	eq
 8006958:	6841      	ldreq	r1, [r0, #4]
 800695a:	4610      	moveq	r0, r2
 800695c:	1909      	addeq	r1, r1, r4
 800695e:	6051      	streq	r1, [r2, #4]
 8006960:	6844      	ldr	r4, [r0, #4]
 8006962:	1901      	adds	r1, r0, r4
 8006964:	428b      	cmp	r3, r1
 8006966:	d10c      	bne.n	8006982 <prvInsertBlockIntoFreeList+0x3e>
 8006968:	4908      	ldr	r1, [pc, #32]	@ (800698c <prvInsertBlockIntoFreeList+0x48>)
 800696a:	6809      	ldr	r1, [r1, #0]
 800696c:	428b      	cmp	r3, r1
 800696e:	d003      	beq.n	8006978 <prvInsertBlockIntoFreeList+0x34>
 8006970:	6859      	ldr	r1, [r3, #4]
 8006972:	4421      	add	r1, r4
 8006974:	6041      	str	r1, [r0, #4]
 8006976:	6819      	ldr	r1, [r3, #0]
 8006978:	6001      	str	r1, [r0, #0]
 800697a:	4290      	cmp	r0, r2
 800697c:	bf18      	it	ne
 800697e:	6010      	strne	r0, [r2, #0]
 8006980:	bd10      	pop	{r4, pc}
 8006982:	4619      	mov	r1, r3
 8006984:	e7f8      	b.n	8006978 <prvInsertBlockIntoFreeList+0x34>
 8006986:	bf00      	nop
 8006988:	20003af4 	.word	0x20003af4
 800698c:	20003af0 	.word	0x20003af0

08006990 <pvPortMalloc>:
 8006990:	e92d 41f0 	stmdb	sp!, {r4, r5, r6, r7, r8, lr}
 8006994:	4604      	mov	r4, r0
 8006996:	f7ff f9b9 	bl	8005d0c <vTaskSuspendAll>
 800699a:	4942      	ldr	r1, [pc, #264]	@ (8006aa4 <pvPortMalloc+0x114>)
 800699c:	4d42      	ldr	r5, [pc, #264]	@ (8006aa8 <pvPortMalloc+0x118>)
 800699e:	680b      	ldr	r3, [r1, #0]
 80069a0:	bb0b      	cbnz	r3, 80069e6 <pvPortMalloc+0x56>
 80069a2:	4a42      	ldr	r2, [pc, #264]	@ (8006aac <pvPortMalloc+0x11c>)
 80069a4:	0756      	lsls	r6, r2, #29
 80069a6:	bf1f      	itttt	ne
 80069a8:	1dd0      	addne	r0, r2, #7
 80069aa:	f020 0007 	bicne.w	r0, r0, #7
 80069ae:	f502 5270 	addne.w	r2, r2, #15360	@ 0x3c00
 80069b2:	1a13      	subne	r3, r2, r0
 80069b4:	bf0c      	ite	eq
 80069b6:	f44f 5370 	moveq.w	r3, #15360	@ 0x3c00
 80069ba:	4602      	movne	r2, r0
 80069bc:	4413      	add	r3, r2
 80069be:	4e3c      	ldr	r6, [pc, #240]	@ (8006ab0 <pvPortMalloc+0x120>)
 80069c0:	3b08      	subs	r3, #8
 80069c2:	f023 0307 	bic.w	r3, r3, #7
 80069c6:	2000      	movs	r0, #0
 80069c8:	6070      	str	r0, [r6, #4]
 80069ca:	6032      	str	r2, [r6, #0]
 80069cc:	e9c3 0000 	strd	r0, r0, [r3]
 80069d0:	1a98      	subs	r0, r3, r2
 80069d2:	e9c2 3000 	strd	r3, r0, [r2]
 80069d6:	600b      	str	r3, [r1, #0]
 80069d8:	4b36      	ldr	r3, [pc, #216]	@ (8006ab4 <pvPortMalloc+0x124>)
 80069da:	6018      	str	r0, [r3, #0]
 80069dc:	4b36      	ldr	r3, [pc, #216]	@ (8006ab8 <pvPortMalloc+0x128>)
 80069de:	6018      	str	r0, [r3, #0]
 80069e0:	f04f 4300 	mov.w	r3, #2147483648	@ 0x80000000
 80069e4:	602b      	str	r3, [r5, #0]
 80069e6:	682e      	ldr	r6, [r5, #0]
 80069e8:	4226      	tst	r6, r4
 80069ea:	d155      	bne.n	8006a98 <pvPortMalloc+0x108>
 80069ec:	2c00      	cmp	r4, #0
 80069ee:	d046      	beq.n	8006a7e <pvPortMalloc+0xee>
 80069f0:	f104 0308 	add.w	r3, r4, #8
 80069f4:	0760      	lsls	r0, r4, #29
 80069f6:	bf1c      	itt	ne
 80069f8:	f023 0307 	bicne.w	r3, r3, #7
 80069fc:	3308      	addne	r3, #8
 80069fe:	2b00      	cmp	r3, #0
 8006a00:	d04a      	beq.n	8006a98 <pvPortMalloc+0x108>
 8006a02:	4f2d      	ldr	r7, [pc, #180]	@ (8006ab8 <pvPortMalloc+0x128>)
 8006a04:	683c      	ldr	r4, [r7, #0]
 8006a06:	429c      	cmp	r4, r3
 8006a08:	d346      	bcc.n	8006a98 <pvPortMalloc+0x108>
 8006a0a:	4a29      	ldr	r2, [pc, #164]	@ (8006ab0 <pvPortMalloc+0x120>)
 8006a0c:	6815      	ldr	r5, [r2, #0]
 8006a0e:	6868      	ldr	r0, [r5, #4]
 8006a10:	4298      	cmp	r0, r3
 8006a12:	d204      	bcs.n	8006a1e <pvPortMalloc+0x8e>
 8006a14:	f8d5 c000 	ldr.w	ip, [r5]
 8006a18:	f1bc 0f00 	cmp.w	ip, #0
 8006a1c:	d115      	bne.n	8006a4a <pvPortMalloc+0xba>
 8006a1e:	6809      	ldr	r1, [r1, #0]
 8006a20:	42a9      	cmp	r1, r5
 8006a22:	d039      	beq.n	8006a98 <pvPortMalloc+0x108>
 8006a24:	6829      	ldr	r1, [r5, #0]
 8006a26:	f8d2 8000 	ldr.w	r8, [r2]
 8006a2a:	6011      	str	r1, [r2, #0]
 8006a2c:	1ac2      	subs	r2, r0, r3
 8006a2e:	2a10      	cmp	r2, #16
 8006a30:	d912      	bls.n	8006a58 <pvPortMalloc+0xc8>
 8006a32:	18e8      	adds	r0, r5, r3
 8006a34:	0741      	lsls	r1, r0, #29
 8006a36:	d00b      	beq.n	8006a50 <pvPortMalloc+0xc0>
 8006a38:	f04f 0350 	mov.w	r3, #80	@ 0x50
 8006a3c:	f383 8811 	msr	BASEPRI, r3
 8006a40:	f3bf 8f6f 	isb	sy
 8006a44:	f3bf 8f4f 	dsb	sy
 8006a48:	e7fe      	b.n	8006a48 <pvPortMalloc+0xb8>
 8006a4a:	462a      	mov	r2, r5
 8006a4c:	4665      	mov	r5, ip
 8006a4e:	e7de      	b.n	8006a0e <pvPortMalloc+0x7e>
 8006a50:	6042      	str	r2, [r0, #4]
 8006a52:	606b      	str	r3, [r5, #4]
 8006a54:	f7ff ff76 	bl	8006944 <prvInsertBlockIntoFreeList>
 8006a58:	686a      	ldr	r2, [r5, #4]
 8006a5a:	4916      	ldr	r1, [pc, #88]	@ (8006ab4 <pvPortMalloc+0x124>)
 8006a5c:	1aa4      	subs	r4, r4, r2
 8006a5e:	4316      	orrs	r6, r2
 8006a60:	4a16      	ldr	r2, [pc, #88]	@ (8006abc <pvPortMalloc+0x12c>)
 8006a62:	6808      	ldr	r0, [r1, #0]
 8006a64:	603c      	str	r4, [r7, #0]
 8006a66:	2300      	movs	r3, #0
 8006a68:	602b      	str	r3, [r5, #0]
 8006a6a:	6813      	ldr	r3, [r2, #0]
 8006a6c:	606e      	str	r6, [r5, #4]
 8006a6e:	4284      	cmp	r4, r0
 8006a70:	f103 0301 	add.w	r3, r3, #1
 8006a74:	bf38      	it	cc
 8006a76:	600c      	strcc	r4, [r1, #0]
 8006a78:	6013      	str	r3, [r2, #0]
 8006a7a:	f108 0408 	add.w	r4, r8, #8
 8006a7e:	f7ff f9e9 	bl	8005e54 <xTaskResumeAll>
 8006a82:	0763      	lsls	r3, r4, #29
 8006a84:	d00a      	beq.n	8006a9c <pvPortMalloc+0x10c>
 8006a86:	f04f 0350 	mov.w	r3, #80	@ 0x50
 8006a8a:	f383 8811 	msr	BASEPRI, r3
 8006a8e:	f3bf 8f6f 	isb	sy
 8006a92:	f3bf 8f4f 	dsb	sy
 8006a96:	e7fe      	b.n	8006a96 <pvPortMalloc+0x106>
 8006a98:	2400      	movs	r4, #0
 8006a9a:	e7f0      	b.n	8006a7e <pvPortMalloc+0xee>
 8006a9c:	4620      	mov	r0, r4
 8006a9e:	e8bd 81f0 	ldmia.w	sp!, {r4, r5, r6, r7, r8, pc}
 8006aa2:	bf00      	nop
 8006aa4:	20003af0 	.word	0x20003af0
 8006aa8:	20003adc 	.word	0x20003adc
 8006aac:	20003afc 	.word	0x20003afc
 8006ab0:	20003af4 	.word	0x20003af4
 8006ab4:	20003ae8 	.word	0x20003ae8
 8006ab8:	20003aec 	.word	0x20003aec
 8006abc:	20003ae4 	.word	0x20003ae4

08006ac0 <vPortFree>:
 8006ac0:	b510      	push	{r4, lr}
 8006ac2:	4604      	mov	r4, r0
 8006ac4:	b390      	cbz	r0, 8006b2c <vPortFree+0x6c>
 8006ac6:	4a1a      	ldr	r2, [pc, #104]	@ (8006b30 <vPortFree+0x70>)
 8006ac8:	f850 3c04 	ldr.w	r3, [r0, #-4]
 8006acc:	6812      	ldr	r2, [r2, #0]
 8006ace:	4213      	tst	r3, r2
 8006ad0:	d108      	bne.n	8006ae4 <vPortFree+0x24>
 8006ad2:	f04f 0350 	mov.w	r3, #80	@ 0x50
 8006ad6:	f383 8811 	msr	BASEPRI, r3
 8006ada:	f3bf 8f6f 	isb	sy
 8006ade:	f3bf 8f4f 	dsb	sy
 8006ae2:	e7fe      	b.n	8006ae2 <vPortFree+0x22>
 8006ae4:	f850 1c08 	ldr.w	r1, [r0, #-8]
 8006ae8:	b141      	cbz	r1, 8006afc <vPortFree+0x3c>
 8006aea:	f04f 0350 	mov.w	r3, #80	@ 0x50
 8006aee:	f383 8811 	msr	BASEPRI, r3
 8006af2:	f3bf 8f6f 	isb	sy
 8006af6:	f3bf 8f4f 	dsb	sy
 8006afa:	e7fe      	b.n	8006afa <vPortFree+0x3a>
 8006afc:	ea23 0302 	bic.w	r3, r3, r2
 8006b00:	f840 3c04 	str.w	r3, [r0, #-4]
 8006b04:	f7ff f902 	bl	8005d0c <vTaskSuspendAll>
 8006b08:	4a0a      	ldr	r2, [pc, #40]	@ (8006b34 <vPortFree+0x74>)
 8006b0a:	f854 3c04 	ldr.w	r3, [r4, #-4]
 8006b0e:	6811      	ldr	r1, [r2, #0]
 8006b10:	f1a4 0008 	sub.w	r0, r4, #8
 8006b14:	440b      	add	r3, r1
 8006b16:	6013      	str	r3, [r2, #0]
 8006b18:	f7ff ff14 	bl	8006944 <prvInsertBlockIntoFreeList>
 8006b1c:	4a06      	ldr	r2, [pc, #24]	@ (8006b38 <vPortFree+0x78>)
 8006b1e:	6813      	ldr	r3, [r2, #0]
 8006b20:	e8bd 4010 	ldmia.w	sp!, {r4, lr}
 8006b24:	3301      	adds	r3, #1
 8006b26:	6013      	str	r3, [r2, #0]
 8006b28:	f7ff b994 	b.w	8005e54 <xTaskResumeAll>
 8006b2c:	bd10      	pop	{r4, pc}
 8006b2e:	bf00      	nop
 8006b30:	20003adc 	.word	0x20003adc
 8006b34:	20003aec 	.word	0x20003aec
 8006b38:	20003ae0 	.word	0x20003ae0

08006b3c <MX_USB_DEVICE_Init>:
 8006b3c:	b508      	push	{r3, lr}
 8006b3e:	490f      	ldr	r1, [pc, #60]	@ (8006b7c <MX_USB_DEVICE_Init+0x40>)
 8006b40:	480f      	ldr	r0, [pc, #60]	@ (8006b80 <MX_USB_DEVICE_Init+0x44>)
 8006b42:	2200      	movs	r2, #0
 8006b44:	f7fd feaa 	bl	800489c <USBD_Init>
 8006b48:	b108      	cbz	r0, 8006b4e <MX_USB_DEVICE_Init+0x12>
 8006b4a:	f7fb f891 	bl	8001c70 <Error_Handler>
 8006b4e:	490d      	ldr	r1, [pc, #52]	@ (8006b84 <MX_USB_DEVICE_Init+0x48>)
 8006b50:	480b      	ldr	r0, [pc, #44]	@ (8006b80 <MX_USB_DEVICE_Init+0x44>)
 8006b52:	f7fd feb6 	bl	80048c2 <USBD_RegisterClass>
 8006b56:	b108      	cbz	r0, 8006b5c <MX_USB_DEVICE_Init+0x20>
 8006b58:	f7fb f88a 	bl	8001c70 <Error_Handler>
 8006b5c:	490a      	ldr	r1, [pc, #40]	@ (8006b88 <MX_USB_DEVICE_Init+0x4c>)
 8006b5e:	4808      	ldr	r0, [pc, #32]	@ (8006b80 <MX_USB_DEVICE_Init+0x44>)
 8006b60:	f7fd fe46 	bl	80047f0 <USBD_CDC_RegisterInterface>
 8006b64:	b108      	cbz	r0, 8006b6a <MX_USB_DEVICE_Init+0x2e>
 8006b66:	f7fb f883 	bl	8001c70 <Error_Handler>
 8006b6a:	4805      	ldr	r0, [pc, #20]	@ (8006b80 <MX_USB_DEVICE_Init+0x44>)
 8006b6c:	f7fd fec2 	bl	80048f4 <USBD_Start>
 8006b70:	b118      	cbz	r0, 8006b7a <MX_USB_DEVICE_Init+0x3e>
 8006b72:	e8bd 4008 	ldmia.w	sp!, {r3, lr}
 8006b76:	f7fb b87b 	b.w	8001c70 <Error_Handler>
 8006b7a:	bd08      	pop	{r3, pc}
 8006b7c:	20000404 	.word	0x20000404
 8006b80:	200076fc 	.word	0x200076fc
 8006b84:	2000036c 	.word	0x2000036c
 8006b88:	200003bc 	.word	0x200003bc

08006b8c <CDC_DeInit_FS>:
 8006b8c:	2000      	movs	r0, #0
 8006b8e:	4770      	bx	lr

08006b90 <CDC_TransmitCplt_FS>:
 8006b90:	2000      	movs	r0, #0
 8006b92:	4770      	bx	lr

08006b94 <CDC_Receive_FS>:
 8006b94:	b510      	push	{r4, lr}
 8006b96:	4c05      	ldr	r4, [pc, #20]	@ (8006bac <CDC_Receive_FS+0x18>)
 8006b98:	4601      	mov	r1, r0
 8006b9a:	4620      	mov	r0, r4
 8006b9c:	f7fd fe41 	bl	8004822 <USBD_CDC_SetRxBuffer>
 8006ba0:	4620      	mov	r0, r4
 8006ba2:	f7fd fe65 	bl	8004870 <USBD_CDC_ReceivePacket>
 8006ba6:	2000      	movs	r0, #0
 8006ba8:	bd10      	pop	{r4, pc}
 8006baa:	bf00      	nop
 8006bac:	200076fc 	.word	0x200076fc

08006bb0 <CDC_Init_FS>:
 8006bb0:	b510      	push	{r4, lr}
 8006bb2:	4c06      	ldr	r4, [pc, #24]	@ (8006bcc <CDC_Init_FS+0x1c>)
 8006bb4:	4906      	ldr	r1, [pc, #24]	@ (8006bd0 <CDC_Init_FS+0x20>)
 8006bb6:	2200      	movs	r2, #0
 8006bb8:	4620      	mov	r0, r4
 8006bba:	f7fd fe24 	bl	8004806 <USBD_CDC_SetTxBuffer>
 8006bbe:	4905      	ldr	r1, [pc, #20]	@ (8006bd4 <CDC_Init_FS+0x24>)
 8006bc0:	4620      	mov	r0, r4
 8006bc2:	f7fd fe2e 	bl	8004822 <USBD_CDC_SetRxBuffer>
 8006bc6:	2000      	movs	r0, #0
 8006bc8:	bd10      	pop	{r4, pc}
 8006bca:	bf00      	nop
 8006bcc:	200076fc 	.word	0x200076fc
 8006bd0:	200079d8 	.word	0x200079d8
 8006bd4:	200081d8 	.word	0x200081d8

08006bd8 <CDC_Control_FS>:
 8006bd8:	2820      	cmp	r0, #32
 8006bda:	d003      	beq.n	8006be4 <CDC_Control_FS+0xc>
 8006bdc:	2821      	cmp	r0, #33	@ 0x21
 8006bde:	d009      	beq.n	8006bf4 <CDC_Control_FS+0x1c>
 8006be0:	2000      	movs	r0, #0
 8006be2:	4770      	bx	lr
 8006be4:	4b07      	ldr	r3, [pc, #28]	@ (8006c04 <CDC_Control_FS+0x2c>)
 8006be6:	680a      	ldr	r2, [r1, #0]
 8006be8:	601a      	str	r2, [r3, #0]
 8006bea:	888a      	ldrh	r2, [r1, #4]
 8006bec:	809a      	strh	r2, [r3, #4]
 8006bee:	798a      	ldrb	r2, [r1, #6]
 8006bf0:	719a      	strb	r2, [r3, #6]
 8006bf2:	e7f5      	b.n	8006be0 <CDC_Control_FS+0x8>
 8006bf4:	4b03      	ldr	r3, [pc, #12]	@ (8006c04 <CDC_Control_FS+0x2c>)
 8006bf6:	681a      	ldr	r2, [r3, #0]
 8006bf8:	600a      	str	r2, [r1, #0]
 8006bfa:	889a      	ldrh	r2, [r3, #4]
 8006bfc:	799b      	ldrb	r3, [r3, #6]
 8006bfe:	808a      	strh	r2, [r1, #4]
 8006c00:	718b      	strb	r3, [r1, #6]
 8006c02:	e7ed      	b.n	8006be0 <CDC_Control_FS+0x8>
 8006c04:	200003b4 	.word	0x200003b4

08006c08 <CDC_Transmit_FS>:
 8006c08:	b510      	push	{r4, lr}
 8006c0a:	4c09      	ldr	r4, [pc, #36]	@ (8006c30 <CDC_Transmit_FS+0x28>)
 8006c0c:	f8d4 32bc 	ldr.w	r3, [r4, #700]	@ 0x2bc
 8006c10:	f8d3 3214 	ldr.w	r3, [r3, #532]	@ 0x214
 8006c14:	460a      	mov	r2, r1
 8006c16:	b943      	cbnz	r3, 8006c2a <CDC_Transmit_FS+0x22>
 8006c18:	4601      	mov	r1, r0
 8006c1a:	4620      	mov	r0, r4
 8006c1c:	f7fd fdf3 	bl	8004806 <USBD_CDC_SetTxBuffer>
 8006c20:	4620      	mov	r0, r4
 8006c22:	e8bd 4010 	ldmia.w	sp!, {r4, lr}
 8006c26:	f7fd be08 	b.w	800483a <USBD_CDC_TransmitPacket>
 8006c2a:	2001      	movs	r0, #1
 8006c2c:	bd10      	pop	{r4, pc}
 8006c2e:	bf00      	nop
 8006c30:	200076fc 	.word	0x200076fc

08006c34 <USBD_FS_DeviceDescriptor>:
 8006c34:	2312      	movs	r3, #18
 8006c36:	4801      	ldr	r0, [pc, #4]	@ (8006c3c <USBD_FS_DeviceDescriptor+0x8>)
 8006c38:	800b      	strh	r3, [r1, #0]
 8006c3a:	4770      	bx	lr
 8006c3c:	200003f0 	.word	0x200003f0

08006c40 <USBD_FS_LangIDStrDescriptor>:
 8006c40:	2304      	movs	r3, #4
 8006c42:	4801      	ldr	r0, [pc, #4]	@ (8006c48 <USBD_FS_LangIDStrDescriptor+0x8>)
 8006c44:	800b      	strh	r3, [r1, #0]
 8006c46:	4770      	bx	lr
 8006c48:	200003ec 	.word	0x200003ec

08006c4c <IntToUnicode>:
 8006c4c:	2300      	movs	r3, #0
 8006c4e:	b570      	push	{r4, r5, r6, lr}
 8006c50:	1c4d      	adds	r5, r1, #1
 8006c52:	461e      	mov	r6, r3
 8006c54:	0f04      	lsrs	r4, r0, #28
 8006c56:	f1b0 4f20 	cmp.w	r0, #2684354560	@ 0xa0000000
 8006c5a:	bf34      	ite	cc
 8006c5c:	3430      	addcc	r4, #48	@ 0x30
 8006c5e:	3437      	addcs	r4, #55	@ 0x37
 8006c60:	f801 4013 	strb.w	r4, [r1, r3, lsl #1]
 8006c64:	f805 6013 	strb.w	r6, [r5, r3, lsl #1]
 8006c68:	3301      	adds	r3, #1
 8006c6a:	b2dc      	uxtb	r4, r3
 8006c6c:	42a2      	cmp	r2, r4
 8006c6e:	ea4f 1000 	mov.w	r0, r0, lsl #4
 8006c72:	d8ef      	bhi.n	8006c54 <IntToUnicode+0x8>
 8006c74:	bd70      	pop	{r4, r5, r6, pc}
	...

08006c78 <USBD_FS_SerialStrDescriptor>:
 8006c78:	231a      	movs	r3, #26
 8006c7a:	b510      	push	{r4, lr}
 8006c7c:	800b      	strh	r3, [r1, #0]
 8006c7e:	4b0a      	ldr	r3, [pc, #40]	@ (8006ca8 <USBD_FS_SerialStrDescriptor+0x30>)
 8006c80:	f8d3 0a10 	ldr.w	r0, [r3, #2576]	@ 0xa10
 8006c84:	f8d3 2a18 	ldr.w	r2, [r3, #2584]	@ 0xa18
 8006c88:	1880      	adds	r0, r0, r2
 8006c8a:	d00a      	beq.n	8006ca2 <USBD_FS_SerialStrDescriptor+0x2a>
 8006c8c:	f8d3 4a14 	ldr.w	r4, [r3, #2580]	@ 0xa14
 8006c90:	4906      	ldr	r1, [pc, #24]	@ (8006cac <USBD_FS_SerialStrDescriptor+0x34>)
 8006c92:	2208      	movs	r2, #8
 8006c94:	f7ff ffda 	bl	8006c4c <IntToUnicode>
 8006c98:	2204      	movs	r2, #4
 8006c9a:	3110      	adds	r1, #16
 8006c9c:	4620      	mov	r0, r4
 8006c9e:	f7ff ffd5 	bl	8006c4c <IntToUnicode>
 8006ca2:	4803      	ldr	r0, [pc, #12]	@ (8006cb0 <USBD_FS_SerialStrDescriptor+0x38>)
 8006ca4:	bd10      	pop	{r4, pc}
 8006ca6:	bf00      	nop
 8006ca8:	1fff7000 	.word	0x1fff7000
 8006cac:	200003d2 	.word	0x200003d2
 8006cb0:	200003d0 	.word	0x200003d0

08006cb4 <USBD_FS_ManufacturerStrDescriptor>:
 8006cb4:	b510      	push	{r4, lr}
 8006cb6:	4c04      	ldr	r4, [pc, #16]	@ (8006cc8 <USBD_FS_ManufacturerStrDescriptor+0x14>)
 8006cb8:	4804      	ldr	r0, [pc, #16]	@ (8006ccc <USBD_FS_ManufacturerStrDescriptor+0x18>)
 8006cba:	460a      	mov	r2, r1
 8006cbc:	4621      	mov	r1, r4
 8006cbe:	f7fe f9e8 	bl	8005092 <USBD_GetString>
 8006cc2:	4620      	mov	r0, r4
 8006cc4:	bd10      	pop	{r4, pc}
 8006cc6:	bf00      	nop
 8006cc8:	200089d8 	.word	0x200089d8
 8006ccc:	08008eff 	.word	0x08008eff

08006cd0 <USBD_FS_ProductStrDescriptor>:
 8006cd0:	b510      	push	{r4, lr}
 8006cd2:	4c04      	ldr	r4, [pc, #16]	@ (8006ce4 <USBD_FS_ProductStrDescriptor+0x14>)
 8006cd4:	4804      	ldr	r0, [pc, #16]	@ (8006ce8 <USBD_FS_ProductStrDescriptor+0x18>)
 8006cd6:	460a      	mov	r2, r1
 8006cd8:	4621      	mov	r1, r4
 8006cda:	f7fe f9da 	bl	8005092 <USBD_GetString>
 8006cde:	4620      	mov	r0, r4
 8006ce0:	bd10      	pop	{r4, pc}
 8006ce2:	bf00      	nop
 8006ce4:	200089d8 	.word	0x200089d8
 8006ce8:	08008f12 	.word	0x08008f12

08006cec <USBD_FS_ConfigStrDescriptor>:
 8006cec:	b510      	push	{r4, lr}
 8006cee:	4c04      	ldr	r4, [pc, #16]	@ (8006d00 <USBD_FS_ConfigStrDescriptor+0x14>)
 8006cf0:	4804      	ldr	r0, [pc, #16]	@ (8006d04 <USBD_FS_ConfigStrDescriptor+0x18>)
 8006cf2:	460a      	mov	r2, r1
 8006cf4:	4621      	mov	r1, r4
 8006cf6:	f7fe f9cc 	bl	8005092 <USBD_GetString>
 8006cfa:	4620      	mov	r0, r4
 8006cfc:	bd10      	pop	{r4, pc}
 8006cfe:	bf00      	nop
 8006d00:	200089d8 	.word	0x200089d8
 8006d04:	08008f28 	.word	0x08008f28

08006d08 <USBD_FS_InterfaceStrDescriptor>:
 8006d08:	b510      	push	{r4, lr}
 8006d0a:	4c04      	ldr	r4, [pc, #16]	@ (8006d1c <USBD_FS_InterfaceStrDescriptor+0x14>)
 8006d0c:	4804      	ldr	r0, [pc, #16]	@ (8006d20 <USBD_FS_InterfaceStrDescriptor+0x18>)
 8006d0e:	460a      	mov	r2, r1
 8006d10:	4621      	mov	r1, r4
 8006d12:	f7fe f9be 	bl	8005092 <USBD_GetString>
 8006d16:	4620      	mov	r0, r4
 8006d18:	bd10      	pop	{r4, pc}
 8006d1a:	bf00      	nop
 8006d1c:	200089d8 	.word	0x200089d8
 8006d20:	08008f33 	.word	0x08008f33

08006d24 <HAL_PCD_MspInit>:
 8006d24:	b530      	push	{r4, r5, lr}
 8006d26:	4604      	mov	r4, r0
 8006d28:	b089      	sub	sp, #36	@ 0x24
 8006d2a:	2214      	movs	r2, #20
 8006d2c:	2100      	movs	r1, #0
 8006d2e:	a803      	add	r0, sp, #12
 8006d30:	f000 fa97 	bl	8007262 <memset>
 8006d34:	6823      	ldr	r3, [r4, #0]
 8006d36:	f1b3 4fa0 	cmp.w	r3, #1342177280	@ 0x50000000
 8006d3a:	d12e      	bne.n	8006d9a <HAL_PCD_MspInit+0x76>
 8006d3c:	4c18      	ldr	r4, [pc, #96]	@ (8006da0 <HAL_PCD_MspInit+0x7c>)
 8006d3e:	4819      	ldr	r0, [pc, #100]	@ (8006da4 <HAL_PCD_MspInit+0x80>)
 8006d40:	2500      	movs	r5, #0
 8006d42:	9501      	str	r5, [sp, #4]
 8006d44:	6b23      	ldr	r3, [r4, #48]	@ 0x30
 8006d46:	f043 0301 	orr.w	r3, r3, #1
 8006d4a:	6323      	str	r3, [r4, #48]	@ 0x30
 8006d4c:	6b23      	ldr	r3, [r4, #48]	@ 0x30
 8006d4e:	f003 0301 	and.w	r3, r3, #1
 8006d52:	9301      	str	r3, [sp, #4]
 8006d54:	f44f 52c0 	mov.w	r2, #6144	@ 0x1800
 8006d58:	9b01      	ldr	r3, [sp, #4]
 8006d5a:	2302      	movs	r3, #2
 8006d5c:	e9cd 2303 	strd	r2, r3, [sp, #12]
 8006d60:	2103      	movs	r1, #3
 8006d62:	230a      	movs	r3, #10
 8006d64:	e9cd 1306 	strd	r1, r3, [sp, #24]
 8006d68:	a903      	add	r1, sp, #12
 8006d6a:	f7fb f993 	bl	8002094 <HAL_GPIO_Init>
 8006d6e:	6b63      	ldr	r3, [r4, #52]	@ 0x34
 8006d70:	f043 0380 	orr.w	r3, r3, #128	@ 0x80
 8006d74:	6363      	str	r3, [r4, #52]	@ 0x34
 8006d76:	9502      	str	r5, [sp, #8]
 8006d78:	6c63      	ldr	r3, [r4, #68]	@ 0x44
 8006d7a:	f443 4380 	orr.w	r3, r3, #16384	@ 0x4000
 8006d7e:	6463      	str	r3, [r4, #68]	@ 0x44
 8006d80:	6c63      	ldr	r3, [r4, #68]	@ 0x44
 8006d82:	f403 4380 	and.w	r3, r3, #16384	@ 0x4000
 8006d86:	9302      	str	r3, [sp, #8]
 8006d88:	2043      	movs	r0, #67	@ 0x43
 8006d8a:	462a      	mov	r2, r5
 8006d8c:	2105      	movs	r1, #5
 8006d8e:	9b02      	ldr	r3, [sp, #8]
 8006d90:	f7fb f92c 	bl	8001fec <HAL_NVIC_SetPriority>
 8006d94:	2043      	movs	r0, #67	@ 0x43
 8006d96:	f7fb f95b 	bl	8002050 <HAL_NVIC_EnableIRQ>
 8006d9a:	b009      	add	sp, #36	@ 0x24
 8006d9c:	bd30      	pop	{r4, r5, pc}
 8006d9e:	bf00      	nop
 8006da0:	40023800 	.word	0x40023800
 8006da4:	40020000 	.word	0x40020000

08006da8 <HAL_PCD_SetupStageCallback>:
 8006da8:	f200 419c 	addw	r1, r0, #1180	@ 0x49c
 8006dac:	f8d0 04e0 	ldr.w	r0, [r0, #1248]	@ 0x4e0
 8006db0:	f7fd bdb2 	b.w	8004918 <USBD_LL_SetupStage>

08006db4 <HAL_PCD_DataOutStageCallback>:
 8006db4:	2324      	movs	r3, #36	@ 0x24
 8006db6:	fb03 0301 	mla	r3, r3, r1, r0
 8006dba:	f8d0 04e0 	ldr.w	r0, [r0, #1248]	@ 0x4e0
 8006dbe:	f8d3 2260 	ldr.w	r2, [r3, #608]	@ 0x260
 8006dc2:	f7fd bdd9 	b.w	8004978 <USBD_LL_DataOutStage>

08006dc6 <HAL_PCD_DataInStageCallback>:
 8006dc6:	2324      	movs	r3, #36	@ 0x24
 8006dc8:	fb03 0301 	mla	r3, r3, r1, r0
 8006dcc:	f8d0 04e0 	ldr.w	r0, [r0, #1248]	@ 0x4e0
 8006dd0:	6a1a      	ldr	r2, [r3, #32]
 8006dd2:	f7fd be0b 	b.w	80049ec <USBD_LL_DataInStage>

08006dd6 <HAL_PCD_SOFCallback>:
 8006dd6:	f8d0 04e0 	ldr.w	r0, [r0, #1248]	@ 0x4e0
 8006dda:	f7fd bea7 	b.w	8004b2c <USBD_LL_SOF>

08006dde <HAL_PCD_ResetCallback>:
 8006dde:	b510      	push	{r4, lr}
 8006de0:	79c1      	ldrb	r1, [r0, #7]
 8006de2:	4604      	mov	r4, r0
 8006de4:	b121      	cbz	r1, 8006df0 <HAL_PCD_ResetCallback+0x12>
 8006de6:	2902      	cmp	r1, #2
 8006de8:	d001      	beq.n	8006dee <HAL_PCD_ResetCallback+0x10>
 8006dea:	f7fa ff41 	bl	8001c70 <Error_Handler>
 8006dee:	2101      	movs	r1, #1
 8006df0:	f8d4 04e0 	ldr.w	r0, [r4, #1248]	@ 0x4e0
 8006df4:	f7fd fe7e 	bl	8004af4 <USBD_LL_SetSpeed>
 8006df8:	f8d4 04e0 	ldr.w	r0, [r4, #1248]	@ 0x4e0
 8006dfc:	e8bd 4010 	ldmia.w	sp!, {r4, lr}
 8006e00:	f7fd be48 	b.w	8004a94 <USBD_LL_Reset>

08006e04 <HAL_PCD_SuspendCallback>:
 8006e04:	b510      	push	{r4, lr}
 8006e06:	4604      	mov	r4, r0
 8006e08:	f8d0 04e0 	ldr.w	r0, [r0, #1248]	@ 0x4e0
 8006e0c:	f7fd fe75 	bl	8004afa <USBD_LL_Suspend>
 8006e10:	6822      	ldr	r2, [r4, #0]
 8006e12:	f8d2 3e00 	ldr.w	r3, [r2, #3584]	@ 0xe00
 8006e16:	f043 0301 	orr.w	r3, r3, #1
 8006e1a:	f8c2 3e00 	str.w	r3, [r2, #3584]	@ 0xe00
 8006e1e:	7ae3      	ldrb	r3, [r4, #11]
 8006e20:	b123      	cbz	r3, 8006e2c <HAL_PCD_SuspendCallback+0x28>
 8006e22:	4a03      	ldr	r2, [pc, #12]	@ (8006e30 <HAL_PCD_SuspendCallback+0x2c>)
 8006e24:	6913      	ldr	r3, [r2, #16]
 8006e26:	f043 0306 	orr.w	r3, r3, #6
 8006e2a:	6113      	str	r3, [r2, #16]
 8006e2c:	bd10      	pop	{r4, pc}
 8006e2e:	bf00      	nop
 8006e30:	e000ed00 	.word	0xe000ed00

08006e34 <HAL_PCD_ResumeCallback>:
 8006e34:	f8d0 04e0 	ldr.w	r0, [r0, #1248]	@ 0x4e0
 8006e38:	f7fd be6d 	b.w	8004b16 <USBD_LL_Resume>

08006e3c <HAL_PCD_ISOOUTIncompleteCallback>:
 8006e3c:	f8d0 04e0 	ldr.w	r0, [r0, #1248]	@ 0x4e0
 8006e40:	f7fd be94 	b.w	8004b6c <USBD_LL_IsoOUTIncomplete>

08006e44 <HAL_PCD_ISOINIncompleteCallback>:
 8006e44:	f8d0 04e0 	ldr.w	r0, [r0, #1248]	@ 0x4e0
 8006e48:	f7fd be7d 	b.w	8004b46 <USBD_LL_IsoINIncomplete>

08006e4c <HAL_PCD_ConnectCallback>:
 8006e4c:	f8d0 04e0 	ldr.w	r0, [r0, #1248]	@ 0x4e0
 8006e50:	f7fd be9f 	b.w	8004b92 <USBD_LL_DevConnected>

08006e54 <HAL_PCD_DisconnectCallback>:
 8006e54:	f8d0 04e0 	ldr.w	r0, [r0, #1248]	@ 0x4e0
 8006e58:	f7fd be9d 	b.w	8004b96 <USBD_LL_DevDisconnected>

08006e5c <USBD_LL_Init>:
 8006e5c:	b508      	push	{r3, lr}
 8006e5e:	7802      	ldrb	r2, [r0, #0]
 8006e60:	4603      	mov	r3, r0
 8006e62:	bb22      	cbnz	r2, 8006eae <USBD_LL_Init+0x52>
 8006e64:	4813      	ldr	r0, [pc, #76]	@ (8006eb4 <USBD_LL_Init+0x58>)
 8006e66:	f8c0 34e0 	str.w	r3, [r0, #1248]	@ 0x4e0
 8006e6a:	f8c3 02c8 	str.w	r0, [r3, #712]	@ 0x2c8
 8006e6e:	f04f 43a0 	mov.w	r3, #1342177280	@ 0x50000000
 8006e72:	6003      	str	r3, [r0, #0]
 8006e74:	2304      	movs	r3, #4
 8006e76:	7103      	strb	r3, [r0, #4]
 8006e78:	f44f 7300 	mov.w	r3, #512	@ 0x200
 8006e7c:	80c3      	strh	r3, [r0, #6]
 8006e7e:	2302      	movs	r3, #2
 8006e80:	7243      	strb	r3, [r0, #9]
 8006e82:	8142      	strh	r2, [r0, #10]
 8006e84:	7302      	strb	r2, [r0, #12]
 8006e86:	81c2      	strh	r2, [r0, #14]
 8006e88:	f7fb f9e7 	bl	800225a <HAL_PCD_Init>
 8006e8c:	b108      	cbz	r0, 8006e92 <USBD_LL_Init+0x36>
 8006e8e:	f7fa feef 	bl	8001c70 <Error_Handler>
 8006e92:	2180      	movs	r1, #128	@ 0x80
 8006e94:	4807      	ldr	r0, [pc, #28]	@ (8006eb4 <USBD_LL_Init+0x58>)
 8006e96:	f7fb ff0c 	bl	8002cb2 <HAL_PCDEx_SetRxFiFo>
 8006e9a:	2240      	movs	r2, #64	@ 0x40
 8006e9c:	2100      	movs	r1, #0
 8006e9e:	4805      	ldr	r0, [pc, #20]	@ (8006eb4 <USBD_LL_Init+0x58>)
 8006ea0:	f7fb fee8 	bl	8002c74 <HAL_PCDEx_SetTxFiFo>
 8006ea4:	4803      	ldr	r0, [pc, #12]	@ (8006eb4 <USBD_LL_Init+0x58>)
 8006ea6:	2280      	movs	r2, #128	@ 0x80
 8006ea8:	2101      	movs	r1, #1
 8006eaa:	f7fb fee3 	bl	8002c74 <HAL_PCDEx_SetTxFiFo>
 8006eae:	2000      	movs	r0, #0
 8006eb0:	bd08      	pop	{r3, pc}
 8006eb2:	bf00      	nop
 8006eb4:	20008df8 	.word	0x20008df8

08006eb8 <USBD_LL_IsStallEP>:
 8006eb8:	f011 0f80 	tst.w	r1, #128	@ 0x80
 8006ebc:	f8d0 32c8 	ldr.w	r3, [r0, #712]	@ 0x2c8
 8006ec0:	f04f 0224 	mov.w	r2, #36	@ 0x24
 8006ec4:	bf1b      	ittet	ne
 8006ec6:	f001 017f 	andne.w	r1, r1, #127	@ 0x7f
 8006eca:	fb02 3301 	mlane	r3, r2, r1, r3
 8006ece:	fb02 3301 	mlaeq	r3, r2, r1, r3
 8006ed2:	7d98      	ldrbne	r0, [r3, #22]
 8006ed4:	bf08      	it	eq
 8006ed6:	f893 0256 	ldrbeq.w	r0, [r3, #598]	@ 0x256
 8006eda:	4770      	bx	lr

08006edc <USBD_LL_GetRxDataSize>:
 8006edc:	f8d0 02c8 	ldr.w	r0, [r0, #712]	@ 0x2c8
 8006ee0:	f7fb bae1 	b.w	80024a6 <HAL_PCD_EP_GetRxCount>

08006ee4 <USBD_static_malloc>:
 8006ee4:	4800      	ldr	r0, [pc, #0]	@ (8006ee8 <USBD_static_malloc+0x4>)
 8006ee6:	4770      	bx	lr
 8006ee8:	20008bd8 	.word	0x20008bd8

08006eec <USBD_static_free>:
 8006eec:	4770      	bx	lr

08006eee <USBD_Get_USB_Status>:
 8006eee:	b118      	cbz	r0, 8006ef8 <USBD_Get_USB_Status+0xa>
 8006ef0:	2802      	cmp	r0, #2
 8006ef2:	bf0c      	ite	eq
 8006ef4:	2001      	moveq	r0, #1
 8006ef6:	2003      	movne	r0, #3
 8006ef8:	4770      	bx	lr

08006efa <USBD_LL_Start>:
 8006efa:	b508      	push	{r3, lr}
 8006efc:	f8d0 02c8 	ldr.w	r0, [r0, #712]	@ 0x2c8
 8006f00:	f7fb fa1a 	bl	8002338 <HAL_PCD_Start>
 8006f04:	e8bd 4008 	ldmia.w	sp!, {r3, lr}
 8006f08:	f7ff bff1 	b.w	8006eee <USBD_Get_USB_Status>

08006f0c <USBD_LL_OpenEP>:
 8006f0c:	b510      	push	{r4, lr}
 8006f0e:	4614      	mov	r4, r2
 8006f10:	f8d0 02c8 	ldr.w	r0, [r0, #712]	@ 0x2c8
 8006f14:	461a      	mov	r2, r3
 8006f16:	4623      	mov	r3, r4
 8006f18:	f7fb fa40 	bl	800239c <HAL_PCD_EP_Open>
 8006f1c:	e8bd 4010 	ldmia.w	sp!, {r4, lr}
 8006f20:	f7ff bfe5 	b.w	8006eee <USBD_Get_USB_Status>

08006f24 <USBD_LL_CloseEP>:
 8006f24:	b508      	push	{r3, lr}
 8006f26:	f8d0 02c8 	ldr.w	r0, [r0, #712]	@ 0x2c8
 8006f2a:	f7fb fa70 	bl	800240e <HAL_PCD_EP_Close>
 8006f2e:	e8bd 4008 	ldmia.w	sp!, {r3, lr}
 8006f32:	f7ff bfdc 	b.w	8006eee <USBD_Get_USB_Status>

08006f36 <USBD_LL_StallEP>:
 8006f36:	b508      	push	{r3, lr}
 8006f38:	f8d0 02c8 	ldr.w	r0, [r0, #712]	@ 0x2c8
 8006f3c:	f7fb fad6 	bl	80024ec <HAL_PCD_EP_SetStall>
 8006f40:	e8bd 4008 	ldmia.w	sp!, {r3, lr}
 8006f44:	f7ff bfd3 	b.w	8006eee <USBD_Get_USB_Status>

08006f48 <USBD_LL_ClearStallEP>:
 8006f48:	b508      	push	{r3, lr}
 8006f4a:	f8d0 02c8 	ldr.w	r0, [r0, #712]	@ 0x2c8
 8006f4e:	f7fb fb04 	bl	800255a <HAL_PCD_EP_ClrStall>
 8006f52:	e8bd 4008 	ldmia.w	sp!, {r3, lr}
 8006f56:	f7ff bfca 	b.w	8006eee <USBD_Get_USB_Status>

08006f5a <USBD_LL_SetUSBAddress>:
 8006f5a:	b508      	push	{r3, lr}
 8006f5c:	f8d0 02c8 	ldr.w	r0, [r0, #712]	@ 0x2c8
 8006f60:	f7fb fa09 	bl	8002376 <HAL_PCD_SetAddress>
 8006f64:	e8bd 4008 	ldmia.w	sp!, {r3, lr}
 8006f68:	f7ff bfc1 	b.w	8006eee <USBD_Get_USB_Status>

08006f6c <USBD_LL_Transmit>:
 8006f6c:	b508      	push	{r3, lr}
 8006f6e:	f8d0 02c8 	ldr.w	r0, [r0, #712]	@ 0x2c8
 8006f72:	f7fb faa0 	bl	80024b6 <HAL_PCD_EP_Transmit>
 8006f76:	e8bd 4008 	ldmia.w	sp!, {r3, lr}
 8006f7a:	f7ff bfb8 	b.w	8006eee <USBD_Get_USB_Status>

08006f7e <USBD_LL_PrepareReceive>:
 8006f7e:	b508      	push	{r3, lr}
 8006f80:	f8d0 02c8 	ldr.w	r0, [r0, #712]	@ 0x2c8
 8006f84:	f7fb fa71 	bl	800246a <HAL_PCD_EP_Receive>
 8006f88:	e8bd 4008 	ldmia.w	sp!, {r3, lr}
 8006f8c:	f7ff bfaf 	b.w	8006eee <USBD_Get_USB_Status>

08006f90 <std>:
 8006f90:	2300      	movs	r3, #0
 8006f92:	b510      	push	{r4, lr}
 8006f94:	4604      	mov	r4, r0
 8006f96:	e9c0 3300 	strd	r3, r3, [r0]
 8006f9a:	e9c0 3304 	strd	r3, r3, [r0, #16]
 8006f9e:	6083      	str	r3, [r0, #8]
 8006fa0:	8181      	strh	r1, [r0, #12]
 8006fa2:	6643      	str	r3, [r0, #100]	@ 0x64
 8006fa4:	81c2      	strh	r2, [r0, #14]
 8006fa6:	6183      	str	r3, [r0, #24]
 8006fa8:	4619      	mov	r1, r3
 8006faa:	2208      	movs	r2, #8
 8006fac:	305c      	adds	r0, #92	@ 0x5c
 8006fae:	f000 f958 	bl	8007262 <memset>
 8006fb2:	4b0d      	ldr	r3, [pc, #52]	@ (8006fe8 <std+0x58>)
 8006fb4:	6263      	str	r3, [r4, #36]	@ 0x24
 8006fb6:	4b0d      	ldr	r3, [pc, #52]	@ (8006fec <std+0x5c>)
 8006fb8:	62a3      	str	r3, [r4, #40]	@ 0x28
 8006fba:	4b0d      	ldr	r3, [pc, #52]	@ (8006ff0 <std+0x60>)
 8006fbc:	62e3      	str	r3, [r4, #44]	@ 0x2c
 8006fbe:	4b0d      	ldr	r3, [pc, #52]	@ (8006ff4 <std+0x64>)
 8006fc0:	6323      	str	r3, [r4, #48]	@ 0x30
 8006fc2:	4b0d      	ldr	r3, [pc, #52]	@ (8006ff8 <std+0x68>)
 8006fc4:	6224      	str	r4, [r4, #32]
 8006fc6:	429c      	cmp	r4, r3
 8006fc8:	d006      	beq.n	8006fd8 <std+0x48>
 8006fca:	f103 0268 	add.w	r2, r3, #104	@ 0x68
 8006fce:	4294      	cmp	r4, r2
 8006fd0:	d002      	beq.n	8006fd8 <std+0x48>
 8006fd2:	33d0      	adds	r3, #208	@ 0xd0
 8006fd4:	429c      	cmp	r4, r3
 8006fd6:	d105      	bne.n	8006fe4 <std+0x54>
 8006fd8:	f104 0058 	add.w	r0, r4, #88	@ 0x58
 8006fdc:	e8bd 4010 	ldmia.w	sp!, {r4, lr}
 8006fe0:	f000 ba14 	b.w	800740c <__retarget_lock_init_recursive>
 8006fe4:	bd10      	pop	{r4, pc}
 8006fe6:	bf00      	nop
 8006fe8:	080071d9 	.word	0x080071d9
 8006fec:	080071ff 	.word	0x080071ff
 8006ff0:	08007237 	.word	0x08007237
 8006ff4:	0800725b 	.word	0x0800725b
 8006ff8:	200092dc 	.word	0x200092dc

08006ffc <stdio_exit_handler>:
 8006ffc:	4a02      	ldr	r2, [pc, #8]	@ (8007008 <stdio_exit_handler+0xc>)
 8006ffe:	4903      	ldr	r1, [pc, #12]	@ (800700c <stdio_exit_handler+0x10>)
 8007000:	4803      	ldr	r0, [pc, #12]	@ (8007010 <stdio_exit_handler+0x14>)
 8007002:	f000 b869 	b.w	80070d8 <_fwalk_sglue>
 8007006:	bf00      	nop
 8007008:	20000420 	.word	0x20000420
 800700c:	08008389 	.word	0x08008389
 8007010:	20000430 	.word	0x20000430

08007014 <cleanup_stdio>:
 8007014:	6841      	ldr	r1, [r0, #4]
 8007016:	4b0c      	ldr	r3, [pc, #48]	@ (8007048 <cleanup_stdio+0x34>)
 8007018:	4299      	cmp	r1, r3
 800701a:	b510      	push	{r4, lr}
 800701c:	4604      	mov	r4, r0
 800701e:	d001      	beq.n	8007024 <cleanup_stdio+0x10>
 8007020:	f001 f9b2 	bl	8008388 <_fflush_r>
 8007024:	68a1      	ldr	r1, [r4, #8]
 8007026:	4b09      	ldr	r3, [pc, #36]	@ (800704c <cleanup_stdio+0x38>)
 8007028:	4299      	cmp	r1, r3
 800702a:	d002      	beq.n	8007032 <cleanup_stdio+0x1e>
 800702c:	4620      	mov	r0, r4
 800702e:	f001 f9ab 	bl	8008388 <_fflush_r>
 8007032:	68e1      	ldr	r1, [r4, #12]
 8007034:	4b06      	ldr	r3, [pc, #24]	@ (8007050 <cleanup_stdio+0x3c>)
 8007036:	4299      	cmp	r1, r3
 8007038:	d004      	beq.n	8007044 <cleanup_stdio+0x30>
 800703a:	4620      	mov	r0, r4
 800703c:	e8bd 4010 	ldmia.w	sp!, {r4, lr}
 8007040:	f001 b9a2 	b.w	8008388 <_fflush_r>
 8007044:	bd10      	pop	{r4, pc}
 8007046:	bf00      	nop
 8007048:	200092dc 	.word	0x200092dc
 800704c:	20009344 	.word	0x20009344
 8007050:	200093ac 	.word	0x200093ac

08007054 <global_stdio_init.part.0>:
 8007054:	b510      	push	{r4, lr}
 8007056:	4b0b      	ldr	r3, [pc, #44]	@ (8007084 <global_stdio_init.part.0+0x30>)
 8007058:	4c0b      	ldr	r4, [pc, #44]	@ (8007088 <global_stdio_init.part.0+0x34>)
 800705a:	4a0c      	ldr	r2, [pc, #48]	@ (800708c <global_stdio_init.part.0+0x38>)
 800705c:	601a      	str	r2, [r3, #0]
 800705e:	4620      	mov	r0, r4
 8007060:	2200      	movs	r2, #0
 8007062:	2104      	movs	r1, #4
 8007064:	f7ff ff94 	bl	8006f90 <std>
 8007068:	f104 0068 	add.w	r0, r4, #104	@ 0x68
 800706c:	2201      	movs	r2, #1
 800706e:	2109      	movs	r1, #9
 8007070:	f7ff ff8e 	bl	8006f90 <std>
 8007074:	f104 00d0 	add.w	r0, r4, #208	@ 0xd0
 8007078:	2202      	movs	r2, #2
 800707a:	e8bd 4010 	ldmia.w	sp!, {r4, lr}
 800707e:	2112      	movs	r1, #18
 8007080:	f7ff bf86 	b.w	8006f90 <std>
 8007084:	20009414 	.word	0x20009414
 8007088:	200092dc 	.word	0x200092dc
 800708c:	08006ffd 	.word	0x08006ffd

08007090 <__sfp_lock_acquire>:
 8007090:	4801      	ldr	r0, [pc, #4]	@ (8007098 <__sfp_lock_acquire+0x8>)
 8007092:	f000 b9bc 	b.w	800740e <__retarget_lock_acquire_recursive>
 8007096:	bf00      	nop
 8007098:	2000941d 	.word	0x2000941d

0800709c <__sfp_lock_release>:
 800709c:	4801      	ldr	r0, [pc, #4]	@ (80070a4 <__sfp_lock_release+0x8>)
 800709e:	f000 b9b7 	b.w	8007410 <__retarget_lock_release_recursive>
 80070a2:	bf00      	nop
 80070a4:	2000941d 	.word	0x2000941d

080070a8 <__sinit>:
 80070a8:	b510      	push	{r4, lr}
 80070aa:	4604      	mov	r4, r0
 80070ac:	f7ff fff0 	bl	8007090 <__sfp_lock_acquire>
 80070b0:	6a23      	ldr	r3, [r4, #32]
 80070b2:	b11b      	cbz	r3, 80070bc <__sinit+0x14>
 80070b4:	e8bd 4010 	ldmia.w	sp!, {r4, lr}
 80070b8:	f7ff bff0 	b.w	800709c <__sfp_lock_release>
 80070bc:	4b04      	ldr	r3, [pc, #16]	@ (80070d0 <__sinit+0x28>)
 80070be:	6223      	str	r3, [r4, #32]
 80070c0:	4b04      	ldr	r3, [pc, #16]	@ (80070d4 <__sinit+0x2c>)
 80070c2:	681b      	ldr	r3, [r3, #0]
 80070c4:	2b00      	cmp	r3, #0
 80070c6:	d1f5      	bne.n	80070b4 <__sinit+0xc>
 80070c8:	f7ff ffc4 	bl	8007054 <global_stdio_init.part.0>
 80070cc:	e7f2      	b.n	80070b4 <__sinit+0xc>
 80070ce:	bf00      	nop
 80070d0:	08007015 	.word	0x08007015
 80070d4:	20009414 	.word	0x20009414

080070d8 <_fwalk_sglue>:
 80070d8:	e92d 43f8 	stmdb	sp!, {r3, r4, r5, r6, r7, r8, r9, lr}
 80070dc:	4607      	mov	r7, r0
 80070de:	4688      	mov	r8, r1
 80070e0:	4614      	mov	r4, r2
 80070e2:	2600      	movs	r6, #0
 80070e4:	e9d4 9501 	ldrd	r9, r5, [r4, #4]
 80070e8:	f1b9 0901 	subs.w	r9, r9, #1
 80070ec:	d505      	bpl.n	80070fa <_fwalk_sglue+0x22>
 80070ee:	6824      	ldr	r4, [r4, #0]
 80070f0:	2c00      	cmp	r4, #0
 80070f2:	d1f7      	bne.n	80070e4 <_fwalk_sglue+0xc>
 80070f4:	4630      	mov	r0, r6
 80070f6:	e8bd 83f8 	ldmia.w	sp!, {r3, r4, r5, r6, r7, r8, r9, pc}
 80070fa:	89ab      	ldrh	r3, [r5, #12]
 80070fc:	2b01      	cmp	r3, #1
 80070fe:	d907      	bls.n	8007110 <_fwalk_sglue+0x38>
 8007100:	f9b5 300e 	ldrsh.w	r3, [r5, #14]
 8007104:	3301      	adds	r3, #1
 8007106:	d003      	beq.n	8007110 <_fwalk_sglue+0x38>
 8007108:	4629      	mov	r1, r5
 800710a:	4638      	mov	r0, r7
 800710c:	47c0      	blx	r8
 800710e:	4306      	orrs	r6, r0
 8007110:	3568      	adds	r5, #104	@ 0x68
 8007112:	e7e9      	b.n	80070e8 <_fwalk_sglue+0x10>

08007114 <sniprintf>:
 8007114:	b40c      	push	{r2, r3}
 8007116:	b530      	push	{r4, r5, lr}
 8007118:	4b18      	ldr	r3, [pc, #96]	@ (800717c <sniprintf+0x68>)
 800711a:	1e0c      	subs	r4, r1, #0
 800711c:	681d      	ldr	r5, [r3, #0]
 800711e:	b09d      	sub	sp, #116	@ 0x74
 8007120:	da08      	bge.n	8007134 <sniprintf+0x20>
 8007122:	238b      	movs	r3, #139	@ 0x8b
 8007124:	602b      	str	r3, [r5, #0]
 8007126:	f04f 30ff 	mov.w	r0, #4294967295
 800712a:	b01d      	add	sp, #116	@ 0x74
 800712c:	e8bd 4030 	ldmia.w	sp!, {r4, r5, lr}
 8007130:	b002      	add	sp, #8
 8007132:	4770      	bx	lr
 8007134:	f44f 7302 	mov.w	r3, #520	@ 0x208
 8007138:	f8ad 3014 	strh.w	r3, [sp, #20]
 800713c:	f04f 0300 	mov.w	r3, #0
 8007140:	931b      	str	r3, [sp, #108]	@ 0x6c
 8007142:	bf14      	ite	ne
 8007144:	f104 33ff 	addne.w	r3, r4, #4294967295
 8007148:	4623      	moveq	r3, r4
 800714a:	9304      	str	r3, [sp, #16]
 800714c:	9307      	str	r3, [sp, #28]
 800714e:	f64f 73ff 	movw	r3, #65535	@ 0xffff
 8007152:	9002      	str	r0, [sp, #8]
 8007154:	9006      	str	r0, [sp, #24]
 8007156:	f8ad 3016 	strh.w	r3, [sp, #22]
 800715a:	9a20      	ldr	r2, [sp, #128]	@ 0x80
 800715c:	ab21      	add	r3, sp, #132	@ 0x84
 800715e:	a902      	add	r1, sp, #8
 8007160:	4628      	mov	r0, r5
 8007162:	9301      	str	r3, [sp, #4]
 8007164:	f000 fae6 	bl	8007734 <_svfiprintf_r>
 8007168:	1c43      	adds	r3, r0, #1
 800716a:	bfbc      	itt	lt
 800716c:	238b      	movlt	r3, #139	@ 0x8b
 800716e:	602b      	strlt	r3, [r5, #0]
 8007170:	2c00      	cmp	r4, #0
 8007172:	d0da      	beq.n	800712a <sniprintf+0x16>
 8007174:	9b02      	ldr	r3, [sp, #8]
 8007176:	2200      	movs	r2, #0
 8007178:	701a      	strb	r2, [r3, #0]
 800717a:	e7d6      	b.n	800712a <sniprintf+0x16>
 800717c:	2000042c 	.word	0x2000042c

08007180 <siscanf>:
 8007180:	b40e      	push	{r1, r2, r3}
 8007182:	b570      	push	{r4, r5, r6, lr}
 8007184:	b09d      	sub	sp, #116	@ 0x74
 8007186:	ac21      	add	r4, sp, #132	@ 0x84
 8007188:	2500      	movs	r5, #0
 800718a:	f44f 7201 	mov.w	r2, #516	@ 0x204
 800718e:	f854 6b04 	ldr.w	r6, [r4], #4
 8007192:	f8ad 2014 	strh.w	r2, [sp, #20]
 8007196:	951b      	str	r5, [sp, #108]	@ 0x6c
 8007198:	9002      	str	r0, [sp, #8]
 800719a:	9006      	str	r0, [sp, #24]
 800719c:	f7f9 f822 	bl	80001e4 <strlen>
 80071a0:	4b0b      	ldr	r3, [pc, #44]	@ (80071d0 <siscanf+0x50>)
 80071a2:	9003      	str	r0, [sp, #12]
 80071a4:	9007      	str	r0, [sp, #28]
 80071a6:	480b      	ldr	r0, [pc, #44]	@ (80071d4 <siscanf+0x54>)
 80071a8:	930b      	str	r3, [sp, #44]	@ 0x2c
 80071aa:	f64f 73ff 	movw	r3, #65535	@ 0xffff
 80071ae:	f8ad 3016 	strh.w	r3, [sp, #22]
 80071b2:	4632      	mov	r2, r6
 80071b4:	4623      	mov	r3, r4
 80071b6:	a902      	add	r1, sp, #8
 80071b8:	6800      	ldr	r0, [r0, #0]
 80071ba:	950f      	str	r5, [sp, #60]	@ 0x3c
 80071bc:	9514      	str	r5, [sp, #80]	@ 0x50
 80071be:	9401      	str	r4, [sp, #4]
 80071c0:	f000 fc0e 	bl	80079e0 <__ssvfiscanf_r>
 80071c4:	b01d      	add	sp, #116	@ 0x74
 80071c6:	e8bd 4070 	ldmia.w	sp!, {r4, r5, r6, lr}
 80071ca:	b003      	add	sp, #12
 80071cc:	4770      	bx	lr
 80071ce:	bf00      	nop
 80071d0:	080071fb 	.word	0x080071fb
 80071d4:	2000042c 	.word	0x2000042c

080071d8 <__sread>:
 80071d8:	b510      	push	{r4, lr}
 80071da:	460c      	mov	r4, r1
 80071dc:	f9b1 100e 	ldrsh.w	r1, [r1, #14]
 80071e0:	f000 f8c6 	bl	8007370 <_read_r>
 80071e4:	2800      	cmp	r0, #0
 80071e6:	bfab      	itete	ge
 80071e8:	6d63      	ldrge	r3, [r4, #84]	@ 0x54
 80071ea:	89a3      	ldrhlt	r3, [r4, #12]
 80071ec:	181b      	addge	r3, r3, r0
 80071ee:	f423 5380 	biclt.w	r3, r3, #4096	@ 0x1000
 80071f2:	bfac      	ite	ge
 80071f4:	6563      	strge	r3, [r4, #84]	@ 0x54
 80071f6:	81a3      	strhlt	r3, [r4, #12]
 80071f8:	bd10      	pop	{r4, pc}

080071fa <__seofread>:
 80071fa:	2000      	movs	r0, #0
 80071fc:	4770      	bx	lr

080071fe <__swrite>:
 80071fe:	e92d 41f0 	stmdb	sp!, {r4, r5, r6, r7, r8, lr}
 8007202:	461f      	mov	r7, r3
 8007204:	898b      	ldrh	r3, [r1, #12]
 8007206:	05db      	lsls	r3, r3, #23
 8007208:	4605      	mov	r5, r0
 800720a:	460c      	mov	r4, r1
 800720c:	4616      	mov	r6, r2
 800720e:	d505      	bpl.n	800721c <__swrite+0x1e>
 8007210:	f9b1 100e 	ldrsh.w	r1, [r1, #14]
 8007214:	2302      	movs	r3, #2
 8007216:	2200      	movs	r2, #0
 8007218:	f000 f898 	bl	800734c <_lseek_r>
 800721c:	89a3      	ldrh	r3, [r4, #12]
 800721e:	f9b4 100e 	ldrsh.w	r1, [r4, #14]
 8007222:	f423 5380 	bic.w	r3, r3, #4096	@ 0x1000
 8007226:	81a3      	strh	r3, [r4, #12]
 8007228:	4632      	mov	r2, r6
 800722a:	463b      	mov	r3, r7
 800722c:	4628      	mov	r0, r5
 800722e:	e8bd 41f0 	ldmia.w	sp!, {r4, r5, r6, r7, r8, lr}
 8007232:	f000 b8af 	b.w	8007394 <_write_r>

08007236 <__sseek>:
 8007236:	b510      	push	{r4, lr}
 8007238:	460c      	mov	r4, r1
 800723a:	f9b1 100e 	ldrsh.w	r1, [r1, #14]
 800723e:	f000 f885 	bl	800734c <_lseek_r>
 8007242:	1c43      	adds	r3, r0, #1
 8007244:	89a3      	ldrh	r3, [r4, #12]
 8007246:	bf15      	itete	ne
 8007248:	6560      	strne	r0, [r4, #84]	@ 0x54
 800724a:	f423 5380 	biceq.w	r3, r3, #4096	@ 0x1000
 800724e:	f443 5380 	orrne.w	r3, r3, #4096	@ 0x1000
 8007252:	81a3      	strheq	r3, [r4, #12]
 8007254:	bf18      	it	ne
 8007256:	81a3      	strhne	r3, [r4, #12]
 8007258:	bd10      	pop	{r4, pc}

0800725a <__sclose>:
 800725a:	f9b1 100e 	ldrsh.w	r1, [r1, #14]
 800725e:	f000 b865 	b.w	800732c <_close_r>

08007262 <memset>:
 8007262:	4402      	add	r2, r0
 8007264:	4603      	mov	r3, r0
 8007266:	4293      	cmp	r3, r2
 8007268:	d100      	bne.n	800726c <memset+0xa>
 800726a:	4770      	bx	lr
 800726c:	f803 1b01 	strb.w	r1, [r3], #1
 8007270:	e7f9      	b.n	8007266 <memset+0x4>
	...

08007274 <strtok>:
 8007274:	4b16      	ldr	r3, [pc, #88]	@ (80072d0 <strtok+0x5c>)
 8007276:	e92d 41f0 	stmdb	sp!, {r4, r5, r6, r7, r8, lr}
 800727a:	681f      	ldr	r7, [r3, #0]
 800727c:	6c7c      	ldr	r4, [r7, #68]	@ 0x44
 800727e:	4605      	mov	r5, r0
 8007280:	460e      	mov	r6, r1
 8007282:	b9ec      	cbnz	r4, 80072c0 <strtok+0x4c>
 8007284:	2050      	movs	r0, #80	@ 0x50
 8007286:	f000 f943 	bl	8007510 <malloc>
 800728a:	4602      	mov	r2, r0
 800728c:	6478      	str	r0, [r7, #68]	@ 0x44
 800728e:	b920      	cbnz	r0, 800729a <strtok+0x26>
 8007290:	4b10      	ldr	r3, [pc, #64]	@ (80072d4 <strtok+0x60>)
 8007292:	4811      	ldr	r0, [pc, #68]	@ (80072d8 <strtok+0x64>)
 8007294:	215b      	movs	r1, #91	@ 0x5b
 8007296:	f000 f8d3 	bl	8007440 <__assert_func>
 800729a:	e9c0 4400 	strd	r4, r4, [r0]
 800729e:	e9c0 4402 	strd	r4, r4, [r0, #8]
 80072a2:	e9c0 4404 	strd	r4, r4, [r0, #16]
 80072a6:	e9c0 440a 	strd	r4, r4, [r0, #40]	@ 0x28
 80072aa:	e9c0 440c 	strd	r4, r4, [r0, #48]	@ 0x30
 80072ae:	e9c0 440e 	strd	r4, r4, [r0, #56]	@ 0x38
 80072b2:	e9c0 4410 	strd	r4, r4, [r0, #64]	@ 0x40
 80072b6:	e9c0 4412 	strd	r4, r4, [r0, #72]	@ 0x48
 80072ba:	6184      	str	r4, [r0, #24]
 80072bc:	7704      	strb	r4, [r0, #28]
 80072be:	6244      	str	r4, [r0, #36]	@ 0x24
 80072c0:	6c7a      	ldr	r2, [r7, #68]	@ 0x44
 80072c2:	4631      	mov	r1, r6
 80072c4:	4628      	mov	r0, r5
 80072c6:	2301      	movs	r3, #1
 80072c8:	e8bd 41f0 	ldmia.w	sp!, {r4, r5, r6, r7, r8, lr}
 80072cc:	f000 b806 	b.w	80072dc <__strtok_r>
 80072d0:	2000042c 	.word	0x2000042c
 80072d4:	08008f41 	.word	0x08008f41
 80072d8:	08008f58 	.word	0x08008f58

080072dc <__strtok_r>:
 80072dc:	b5f0      	push	{r4, r5, r6, r7, lr}
 80072de:	4604      	mov	r4, r0
 80072e0:	b908      	cbnz	r0, 80072e6 <__strtok_r+0xa>
 80072e2:	6814      	ldr	r4, [r2, #0]
 80072e4:	b144      	cbz	r4, 80072f8 <__strtok_r+0x1c>
 80072e6:	4620      	mov	r0, r4
 80072e8:	f814 5b01 	ldrb.w	r5, [r4], #1
 80072ec:	460f      	mov	r7, r1
 80072ee:	f817 6b01 	ldrb.w	r6, [r7], #1
 80072f2:	b91e      	cbnz	r6, 80072fc <__strtok_r+0x20>
 80072f4:	b965      	cbnz	r5, 8007310 <__strtok_r+0x34>
 80072f6:	6015      	str	r5, [r2, #0]
 80072f8:	2000      	movs	r0, #0
 80072fa:	e005      	b.n	8007308 <__strtok_r+0x2c>
 80072fc:	42b5      	cmp	r5, r6
 80072fe:	d1f6      	bne.n	80072ee <__strtok_r+0x12>
 8007300:	2b00      	cmp	r3, #0
 8007302:	d1f0      	bne.n	80072e6 <__strtok_r+0xa>
 8007304:	6014      	str	r4, [r2, #0]
 8007306:	7003      	strb	r3, [r0, #0]
 8007308:	bdf0      	pop	{r4, r5, r6, r7, pc}
 800730a:	461c      	mov	r4, r3
 800730c:	e00c      	b.n	8007328 <__strtok_r+0x4c>
 800730e:	b91d      	cbnz	r5, 8007318 <__strtok_r+0x3c>
 8007310:	4627      	mov	r7, r4
 8007312:	f814 3b01 	ldrb.w	r3, [r4], #1
 8007316:	460e      	mov	r6, r1
 8007318:	f816 5b01 	ldrb.w	r5, [r6], #1
 800731c:	42ab      	cmp	r3, r5
 800731e:	d1f6      	bne.n	800730e <__strtok_r+0x32>
 8007320:	2b00      	cmp	r3, #0
 8007322:	d0f2      	beq.n	800730a <__strtok_r+0x2e>
 8007324:	2300      	movs	r3, #0
 8007326:	703b      	strb	r3, [r7, #0]
 8007328:	6014      	str	r4, [r2, #0]
 800732a:	e7ed      	b.n	8007308 <__strtok_r+0x2c>

0800732c <_close_r>:
 800732c:	b538      	push	{r3, r4, r5, lr}
 800732e:	4d06      	ldr	r5, [pc, #24]	@ (8007348 <_close_r+0x1c>)
 8007330:	2300      	movs	r3, #0
 8007332:	4604      	mov	r4, r0
 8007334:	4608      	mov	r0, r1
 8007336:	602b      	str	r3, [r5, #0]
 8007338:	f7fa fd82 	bl	8001e40 <_close>
 800733c:	1c43      	adds	r3, r0, #1
 800733e:	d102      	bne.n	8007346 <_close_r+0x1a>
 8007340:	682b      	ldr	r3, [r5, #0]
 8007342:	b103      	cbz	r3, 8007346 <_close_r+0x1a>
 8007344:	6023      	str	r3, [r4, #0]
 8007346:	bd38      	pop	{r3, r4, r5, pc}
 8007348:	20009418 	.word	0x20009418

0800734c <_lseek_r>:
 800734c:	b538      	push	{r3, r4, r5, lr}
 800734e:	4d07      	ldr	r5, [pc, #28]	@ (800736c <_lseek_r+0x20>)
 8007350:	4604      	mov	r4, r0
 8007352:	4608      	mov	r0, r1
 8007354:	4611      	mov	r1, r2
 8007356:	2200      	movs	r2, #0
 8007358:	602a      	str	r2, [r5, #0]
 800735a:	461a      	mov	r2, r3
 800735c:	f7fa fd7a 	bl	8001e54 <_lseek>
 8007360:	1c43      	adds	r3, r0, #1
 8007362:	d102      	bne.n	800736a <_lseek_r+0x1e>
 8007364:	682b      	ldr	r3, [r5, #0]
 8007366:	b103      	cbz	r3, 800736a <_lseek_r+0x1e>
 8007368:	6023      	str	r3, [r4, #0]
 800736a:	bd38      	pop	{r3, r4, r5, pc}
 800736c:	20009418 	.word	0x20009418

08007370 <_read_r>:
 8007370:	b538      	push	{r3, r4, r5, lr}
 8007372:	4d07      	ldr	r5, [pc, #28]	@ (8007390 <_read_r+0x20>)
 8007374:	4604      	mov	r4, r0
 8007376:	4608      	mov	r0, r1
 8007378:	4611      	mov	r1, r2
 800737a:	2200      	movs	r2, #0
 800737c:	602a      	str	r2, [r5, #0]
 800737e:	461a      	mov	r2, r3
 8007380:	f7fa fd42 	bl	8001e08 <_read>
 8007384:	1c43      	adds	r3, r0, #1
 8007386:	d102      	bne.n	800738e <_read_r+0x1e>
 8007388:	682b      	ldr	r3, [r5, #0]
 800738a:	b103      	cbz	r3, 800738e <_read_r+0x1e>
 800738c:	6023      	str	r3, [r4, #0]
 800738e:	bd38      	pop	{r3, r4, r5, pc}
 8007390:	20009418 	.word	0x20009418

08007394 <_write_r>:
 8007394:	b538      	push	{r3, r4, r5, lr}
 8007396:	4d07      	ldr	r5, [pc, #28]	@ (80073b4 <_write_r+0x20>)
 8007398:	4604      	mov	r4, r0
 800739a:	4608      	mov	r0, r1
 800739c:	4611      	mov	r1, r2
 800739e:	2200      	movs	r2, #0
 80073a0:	602a      	str	r2, [r5, #0]
 80073a2:	461a      	mov	r2, r3
 80073a4:	f7fa fd3e 	bl	8001e24 <_write>
 80073a8:	1c43      	adds	r3, r0, #1
 80073aa:	d102      	bne.n	80073b2 <_write_r+0x1e>
 80073ac:	682b      	ldr	r3, [r5, #0]
 80073ae:	b103      	cbz	r3, 80073b2 <_write_r+0x1e>
 80073b0:	6023      	str	r3, [r4, #0]
 80073b2:	bd38      	pop	{r3, r4, r5, pc}
 80073b4:	20009418 	.word	0x20009418

080073b8 <__errno>:
 80073b8:	4b01      	ldr	r3, [pc, #4]	@ (80073c0 <__errno+0x8>)
 80073ba:	6818      	ldr	r0, [r3, #0]
 80073bc:	4770      	bx	lr
 80073be:	bf00      	nop
 80073c0:	2000042c 	.word	0x2000042c

080073c4 <__libc_init_array>:
 80073c4:	b570      	push	{r4, r5, r6, lr}
 80073c6:	4d0d      	ldr	r5, [pc, #52]	@ (80073fc <__libc_init_array+0x38>)
 80073c8:	4c0d      	ldr	r4, [pc, #52]	@ (8007400 <__libc_init_array+0x3c>)
 80073ca:	1b64      	subs	r4, r4, r5
 80073cc:	10a4      	asrs	r4, r4, #2
 80073ce:	2600      	movs	r6, #0
 80073d0:	42a6      	cmp	r6, r4
 80073d2:	d109      	bne.n	80073e8 <__libc_init_array+0x24>
 80073d4:	4d0b      	ldr	r5, [pc, #44]	@ (8007404 <__libc_init_array+0x40>)
 80073d6:	4c0c      	ldr	r4, [pc, #48]	@ (8007408 <__libc_init_array+0x44>)
 80073d8:	f001 fc76 	bl	8008cc8 <_init>
 80073dc:	1b64      	subs	r4, r4, r5
 80073de:	10a4      	asrs	r4, r4, #2
 80073e0:	2600      	movs	r6, #0
 80073e2:	42a6      	cmp	r6, r4
 80073e4:	d105      	bne.n	80073f2 <__libc_init_array+0x2e>
 80073e6:	bd70      	pop	{r4, r5, r6, pc}
 80073e8:	f855 3b04 	ldr.w	r3, [r5], #4
 80073ec:	4798      	blx	r3
 80073ee:	3601      	adds	r6, #1
 80073f0:	e7ee      	b.n	80073d0 <__libc_init_array+0xc>
 80073f2:	f855 3b04 	ldr.w	r3, [r5], #4
 80073f6:	4798      	blx	r3
 80073f8:	3601      	adds	r6, #1
 80073fa:	e7f2      	b.n	80073e2 <__libc_init_array+0x1e>
 80073fc:	08009254 	.word	0x08009254
 8007400:	08009254 	.word	0x08009254
 8007404:	08009254 	.word	0x08009254
 8007408:	08009258 	.word	0x08009258

0800740c <__retarget_lock_init_recursive>:
 800740c:	4770      	bx	lr

0800740e <__retarget_lock_acquire_recursive>:
 800740e:	4770      	bx	lr

08007410 <__retarget_lock_release_recursive>:
 8007410:	4770      	bx	lr

08007412 <strcpy>:
 8007412:	4603      	mov	r3, r0
 8007414:	f811 2b01 	ldrb.w	r2, [r1], #1
 8007418:	f803 2b01 	strb.w	r2, [r3], #1
 800741c:	2a00      	cmp	r2, #0
 800741e:	d1f9      	bne.n	8007414 <strcpy+0x2>
 8007420:	4770      	bx	lr

08007422 <memcpy>:
 8007422:	440a      	add	r2, r1
 8007424:	4291      	cmp	r1, r2
 8007426:	f100 33ff 	add.w	r3, r0, #4294967295
 800742a:	d100      	bne.n	800742e <memcpy+0xc>
 800742c:	4770      	bx	lr
 800742e:	b510      	push	{r4, lr}
 8007430:	f811 4b01 	ldrb.w	r4, [r1], #1
 8007434:	f803 4f01 	strb.w	r4, [r3, #1]!
 8007438:	4291      	cmp	r1, r2
 800743a:	d1f9      	bne.n	8007430 <memcpy+0xe>
 800743c:	bd10      	pop	{r4, pc}
	...

08007440 <__assert_func>:
 8007440:	b51f      	push	{r0, r1, r2, r3, r4, lr}
 8007442:	4614      	mov	r4, r2
 8007444:	461a      	mov	r2, r3
 8007446:	4b09      	ldr	r3, [pc, #36]	@ (800746c <__assert_func+0x2c>)
 8007448:	681b      	ldr	r3, [r3, #0]
 800744a:	4605      	mov	r5, r0
 800744c:	68d8      	ldr	r0, [r3, #12]
 800744e:	b14c      	cbz	r4, 8007464 <__assert_func+0x24>
 8007450:	4b07      	ldr	r3, [pc, #28]	@ (8007470 <__assert_func+0x30>)
 8007452:	9100      	str	r1, [sp, #0]
 8007454:	e9cd 3401 	strd	r3, r4, [sp, #4]
 8007458:	4906      	ldr	r1, [pc, #24]	@ (8007474 <__assert_func+0x34>)
 800745a:	462b      	mov	r3, r5
 800745c:	f000 ffbc 	bl	80083d8 <fiprintf>
 8007460:	f001 f86a 	bl	8008538 <abort>
 8007464:	4b04      	ldr	r3, [pc, #16]	@ (8007478 <__assert_func+0x38>)
 8007466:	461c      	mov	r4, r3
 8007468:	e7f3      	b.n	8007452 <__assert_func+0x12>
 800746a:	bf00      	nop
 800746c:	2000042c 	.word	0x2000042c
 8007470:	08008fb2 	.word	0x08008fb2
 8007474:	08008fbf 	.word	0x08008fbf
 8007478:	08008d10 	.word	0x08008d10

0800747c <_free_r>:
 800747c:	b538      	push	{r3, r4, r5, lr}
 800747e:	4605      	mov	r5, r0
 8007480:	2900      	cmp	r1, #0
 8007482:	d041      	beq.n	8007508 <_free_r+0x8c>
 8007484:	f851 3c04 	ldr.w	r3, [r1, #-4]
 8007488:	1f0c      	subs	r4, r1, #4
 800748a:	2b00      	cmp	r3, #0
 800748c:	bfb8      	it	lt
 800748e:	18e4      	addlt	r4, r4, r3
 8007490:	f000 f8e8 	bl	8007664 <__malloc_lock>
 8007494:	4a1d      	ldr	r2, [pc, #116]	@ (800750c <_free_r+0x90>)
 8007496:	6813      	ldr	r3, [r2, #0]
 8007498:	b933      	cbnz	r3, 80074a8 <_free_r+0x2c>
 800749a:	6063      	str	r3, [r4, #4]
 800749c:	6014      	str	r4, [r2, #0]
 800749e:	4628      	mov	r0, r5
 80074a0:	e8bd 4038 	ldmia.w	sp!, {r3, r4, r5, lr}
 80074a4:	f000 b8e4 	b.w	8007670 <__malloc_unlock>
 80074a8:	42a3      	cmp	r3, r4
 80074aa:	d908      	bls.n	80074be <_free_r+0x42>
 80074ac:	6820      	ldr	r0, [r4, #0]
 80074ae:	1821      	adds	r1, r4, r0
 80074b0:	428b      	cmp	r3, r1
 80074b2:	bf01      	itttt	eq
 80074b4:	6819      	ldreq	r1, [r3, #0]
 80074b6:	685b      	ldreq	r3, [r3, #4]
 80074b8:	1809      	addeq	r1, r1, r0
 80074ba:	6021      	streq	r1, [r4, #0]
 80074bc:	e7ed      	b.n	800749a <_free_r+0x1e>
 80074be:	461a      	mov	r2, r3
 80074c0:	685b      	ldr	r3, [r3, #4]
 80074c2:	b10b      	cbz	r3, 80074c8 <_free_r+0x4c>
 80074c4:	42a3      	cmp	r3, r4
 80074c6:	d9fa      	bls.n	80074be <_free_r+0x42>
 80074c8:	6811      	ldr	r1, [r2, #0]
 80074ca:	1850      	adds	r0, r2, r1
 80074cc:	42a0      	cmp	r0, r4
 80074ce:	d10b      	bne.n	80074e8 <_free_r+0x6c>
 80074d0:	6820      	ldr	r0, [r4, #0]
 80074d2:	4401      	add	r1, r0
 80074d4:	1850      	adds	r0, r2, r1
 80074d6:	4283      	cmp	r3, r0
 80074d8:	6011      	str	r1, [r2, #0]
 80074da:	d1e0      	bne.n	800749e <_free_r+0x22>
 80074dc:	6818      	ldr	r0, [r3, #0]
 80074de:	685b      	ldr	r3, [r3, #4]
 80074e0:	6053      	str	r3, [r2, #4]
 80074e2:	4408      	add	r0, r1
 80074e4:	6010      	str	r0, [r2, #0]
 80074e6:	e7da      	b.n	800749e <_free_r+0x22>
 80074e8:	d902      	bls.n	80074f0 <_free_r+0x74>
 80074ea:	230c      	movs	r3, #12
 80074ec:	602b      	str	r3, [r5, #0]
 80074ee:	e7d6      	b.n	800749e <_free_r+0x22>
 80074f0:	6820      	ldr	r0, [r4, #0]
 80074f2:	1821      	adds	r1, r4, r0
 80074f4:	428b      	cmp	r3, r1
 80074f6:	bf04      	itt	eq
 80074f8:	6819      	ldreq	r1, [r3, #0]
 80074fa:	685b      	ldreq	r3, [r3, #4]
 80074fc:	6063      	str	r3, [r4, #4]
 80074fe:	bf04      	itt	eq
 8007500:	1809      	addeq	r1, r1, r0
 8007502:	6021      	streq	r1, [r4, #0]
 8007504:	6054      	str	r4, [r2, #4]
 8007506:	e7ca      	b.n	800749e <_free_r+0x22>
 8007508:	bd38      	pop	{r3, r4, r5, pc}
 800750a:	bf00      	nop
 800750c:	20009424 	.word	0x20009424

08007510 <malloc>:
 8007510:	4b02      	ldr	r3, [pc, #8]	@ (800751c <malloc+0xc>)
 8007512:	4601      	mov	r1, r0
 8007514:	6818      	ldr	r0, [r3, #0]
 8007516:	f000 b825 	b.w	8007564 <_malloc_r>
 800751a:	bf00      	nop
 800751c:	2000042c 	.word	0x2000042c

08007520 <sbrk_aligned>:
 8007520:	b570      	push	{r4, r5, r6, lr}
 8007522:	4e0f      	ldr	r6, [pc, #60]	@ (8007560 <sbrk_aligned+0x40>)
 8007524:	460c      	mov	r4, r1
 8007526:	6831      	ldr	r1, [r6, #0]
 8007528:	4605      	mov	r5, r0
 800752a:	b911      	cbnz	r1, 8007532 <sbrk_aligned+0x12>
 800752c:	f000 fff4 	bl	8008518 <_sbrk_r>
 8007530:	6030      	str	r0, [r6, #0]
 8007532:	4621      	mov	r1, r4
 8007534:	4628      	mov	r0, r5
 8007536:	f000 ffef 	bl	8008518 <_sbrk_r>
 800753a:	1c43      	adds	r3, r0, #1
 800753c:	d103      	bne.n	8007546 <sbrk_aligned+0x26>
 800753e:	f04f 34ff 	mov.w	r4, #4294967295
 8007542:	4620      	mov	r0, r4
 8007544:	bd70      	pop	{r4, r5, r6, pc}
 8007546:	1cc4      	adds	r4, r0, #3
 8007548:	f024 0403 	bic.w	r4, r4, #3
 800754c:	42a0      	cmp	r0, r4
 800754e:	d0f8      	beq.n	8007542 <sbrk_aligned+0x22>
 8007550:	1a21      	subs	r1, r4, r0
 8007552:	4628      	mov	r0, r5
 8007554:	f000 ffe0 	bl	8008518 <_sbrk_r>
 8007558:	3001      	adds	r0, #1
 800755a:	d1f2      	bne.n	8007542 <sbrk_aligned+0x22>
 800755c:	e7ef      	b.n	800753e <sbrk_aligned+0x1e>
 800755e:	bf00      	nop
 8007560:	20009420 	.word	0x20009420

08007564 <_malloc_r>:
 8007564:	e92d 43f8 	stmdb	sp!, {r3, r4, r5, r6, r7, r8, r9, lr}
 8007568:	1ccd      	adds	r5, r1, #3
 800756a:	f025 0503 	bic.w	r5, r5, #3
 800756e:	3508      	adds	r5, #8
 8007570:	2d0c      	cmp	r5, #12
 8007572:	bf38      	it	cc
 8007574:	250c      	movcc	r5, #12
 8007576:	2d00      	cmp	r5, #0
 8007578:	4606      	mov	r6, r0
 800757a:	db01      	blt.n	8007580 <_malloc_r+0x1c>
 800757c:	42a9      	cmp	r1, r5
 800757e:	d904      	bls.n	800758a <_malloc_r+0x26>
 8007580:	230c      	movs	r3, #12
 8007582:	6033      	str	r3, [r6, #0]
 8007584:	2000      	movs	r0, #0
 8007586:	e8bd 83f8 	ldmia.w	sp!, {r3, r4, r5, r6, r7, r8, r9, pc}
 800758a:	f8df 80d4 	ldr.w	r8, [pc, #212]	@ 8007660 <_malloc_r+0xfc>
 800758e:	f000 f869 	bl	8007664 <__malloc_lock>
 8007592:	f8d8 3000 	ldr.w	r3, [r8]
 8007596:	461c      	mov	r4, r3
 8007598:	bb44      	cbnz	r4, 80075ec <_malloc_r+0x88>
 800759a:	4629      	mov	r1, r5
 800759c:	4630      	mov	r0, r6
 800759e:	f7ff ffbf 	bl	8007520 <sbrk_aligned>
 80075a2:	1c43      	adds	r3, r0, #1
 80075a4:	4604      	mov	r4, r0
 80075a6:	d158      	bne.n	800765a <_malloc_r+0xf6>
 80075a8:	f8d8 4000 	ldr.w	r4, [r8]
 80075ac:	4627      	mov	r7, r4
 80075ae:	2f00      	cmp	r7, #0
 80075b0:	d143      	bne.n	800763a <_malloc_r+0xd6>
 80075b2:	2c00      	cmp	r4, #0
 80075b4:	d04b      	beq.n	800764e <_malloc_r+0xea>
 80075b6:	6823      	ldr	r3, [r4, #0]
 80075b8:	4639      	mov	r1, r7
 80075ba:	4630      	mov	r0, r6
 80075bc:	eb04 0903 	add.w	r9, r4, r3
 80075c0:	f000 ffaa 	bl	8008518 <_sbrk_r>
 80075c4:	4581      	cmp	r9, r0
 80075c6:	d142      	bne.n	800764e <_malloc_r+0xea>
 80075c8:	6821      	ldr	r1, [r4, #0]
 80075ca:	1a6d      	subs	r5, r5, r1
 80075cc:	4629      	mov	r1, r5
 80075ce:	4630      	mov	r0, r6
 80075d0:	f7ff ffa6 	bl	8007520 <sbrk_aligned>
 80075d4:	3001      	adds	r0, #1
 80075d6:	d03a      	beq.n	800764e <_malloc_r+0xea>
 80075d8:	6823      	ldr	r3, [r4, #0]
 80075da:	442b      	add	r3, r5
 80075dc:	6023      	str	r3, [r4, #0]
 80075de:	f8d8 3000 	ldr.w	r3, [r8]
 80075e2:	685a      	ldr	r2, [r3, #4]
 80075e4:	bb62      	cbnz	r2, 8007640 <_malloc_r+0xdc>
 80075e6:	f8c8 7000 	str.w	r7, [r8]
 80075ea:	e00f      	b.n	800760c <_malloc_r+0xa8>
 80075ec:	6822      	ldr	r2, [r4, #0]
 80075ee:	1b52      	subs	r2, r2, r5
 80075f0:	d420      	bmi.n	8007634 <_malloc_r+0xd0>
 80075f2:	2a0b      	cmp	r2, #11
 80075f4:	d917      	bls.n	8007626 <_malloc_r+0xc2>
 80075f6:	1961      	adds	r1, r4, r5
 80075f8:	42a3      	cmp	r3, r4
 80075fa:	6025      	str	r5, [r4, #0]
 80075fc:	bf18      	it	ne
 80075fe:	6059      	strne	r1, [r3, #4]
 8007600:	6863      	ldr	r3, [r4, #4]
 8007602:	bf08      	it	eq
 8007604:	f8c8 1000 	streq.w	r1, [r8]
 8007608:	5162      	str	r2, [r4, r5]
 800760a:	604b      	str	r3, [r1, #4]
 800760c:	4630      	mov	r0, r6
 800760e:	f000 f82f 	bl	8007670 <__malloc_unlock>
 8007612:	f104 000b 	add.w	r0, r4, #11
 8007616:	1d23      	adds	r3, r4, #4
 8007618:	f020 0007 	bic.w	r0, r0, #7
 800761c:	1ac2      	subs	r2, r0, r3
 800761e:	bf1c      	itt	ne
 8007620:	1a1b      	subne	r3, r3, r0
 8007622:	50a3      	strne	r3, [r4, r2]
 8007624:	e7af      	b.n	8007586 <_malloc_r+0x22>
 8007626:	6862      	ldr	r2, [r4, #4]
 8007628:	42a3      	cmp	r3, r4
 800762a:	bf0c      	ite	eq
 800762c:	f8c8 2000 	streq.w	r2, [r8]
 8007630:	605a      	strne	r2, [r3, #4]
 8007632:	e7eb      	b.n	800760c <_malloc_r+0xa8>
 8007634:	4623      	mov	r3, r4
 8007636:	6864      	ldr	r4, [r4, #4]
 8007638:	e7ae      	b.n	8007598 <_malloc_r+0x34>
 800763a:	463c      	mov	r4, r7
 800763c:	687f      	ldr	r7, [r7, #4]
 800763e:	e7b6      	b.n	80075ae <_malloc_r+0x4a>
 8007640:	461a      	mov	r2, r3
 8007642:	685b      	ldr	r3, [r3, #4]
 8007644:	42a3      	cmp	r3, r4
 8007646:	d1fb      	bne.n	8007640 <_malloc_r+0xdc>
 8007648:	2300      	movs	r3, #0
 800764a:	6053      	str	r3, [r2, #4]
 800764c:	e7de      	b.n	800760c <_malloc_r+0xa8>
 800764e:	230c      	movs	r3, #12
 8007650:	6033      	str	r3, [r6, #0]
 8007652:	4630      	mov	r0, r6
 8007654:	f000 f80c 	bl	8007670 <__malloc_unlock>
 8007658:	e794      	b.n	8007584 <_malloc_r+0x20>
 800765a:	6005      	str	r5, [r0, #0]
 800765c:	e7d6      	b.n	800760c <_malloc_r+0xa8>
 800765e:	bf00      	nop
 8007660:	20009424 	.word	0x20009424

08007664 <__malloc_lock>:
 8007664:	4801      	ldr	r0, [pc, #4]	@ (800766c <__malloc_lock+0x8>)
 8007666:	f7ff bed2 	b.w	800740e <__retarget_lock_acquire_recursive>
 800766a:	bf00      	nop
 800766c:	2000941c 	.word	0x2000941c

08007670 <__malloc_unlock>:
 8007670:	4801      	ldr	r0, [pc, #4]	@ (8007678 <__malloc_unlock+0x8>)
 8007672:	f7ff becd 	b.w	8007410 <__retarget_lock_release_recursive>
 8007676:	bf00      	nop
 8007678:	2000941c 	.word	0x2000941c

0800767c <__ssputs_r>:
 800767c:	e92d 47f0 	stmdb	sp!, {r4, r5, r6, r7, r8, r9, sl, lr}
 8007680:	688e      	ldr	r6, [r1, #8]
 8007682:	461f      	mov	r7, r3
 8007684:	42be      	cmp	r6, r7
 8007686:	680b      	ldr	r3, [r1, #0]
 8007688:	4682      	mov	sl, r0
 800768a:	460c      	mov	r4, r1
 800768c:	4690      	mov	r8, r2
 800768e:	d82d      	bhi.n	80076ec <__ssputs_r+0x70>
 8007690:	f9b1 200c 	ldrsh.w	r2, [r1, #12]
 8007694:	f412 6f90 	tst.w	r2, #1152	@ 0x480
 8007698:	d026      	beq.n	80076e8 <__ssputs_r+0x6c>
 800769a:	6965      	ldr	r5, [r4, #20]
 800769c:	6909      	ldr	r1, [r1, #16]
 800769e:	eb05 0545 	add.w	r5, r5, r5, lsl #1
 80076a2:	eba3 0901 	sub.w	r9, r3, r1
 80076a6:	eb05 75d5 	add.w	r5, r5, r5, lsr #31
 80076aa:	1c7b      	adds	r3, r7, #1
 80076ac:	444b      	add	r3, r9
 80076ae:	106d      	asrs	r5, r5, #1
 80076b0:	429d      	cmp	r5, r3
 80076b2:	bf38      	it	cc
 80076b4:	461d      	movcc	r5, r3
 80076b6:	0553      	lsls	r3, r2, #21
 80076b8:	d527      	bpl.n	800770a <__ssputs_r+0x8e>
 80076ba:	4629      	mov	r1, r5
 80076bc:	f7ff ff52 	bl	8007564 <_malloc_r>
 80076c0:	4606      	mov	r6, r0
 80076c2:	b360      	cbz	r0, 800771e <__ssputs_r+0xa2>
 80076c4:	6921      	ldr	r1, [r4, #16]
 80076c6:	464a      	mov	r2, r9
 80076c8:	f7ff feab 	bl	8007422 <memcpy>
 80076cc:	89a3      	ldrh	r3, [r4, #12]
 80076ce:	f423 6390 	bic.w	r3, r3, #1152	@ 0x480
 80076d2:	f043 0380 	orr.w	r3, r3, #128	@ 0x80
 80076d6:	81a3      	strh	r3, [r4, #12]
 80076d8:	6126      	str	r6, [r4, #16]
 80076da:	6165      	str	r5, [r4, #20]
 80076dc:	444e      	add	r6, r9
 80076de:	eba5 0509 	sub.w	r5, r5, r9
 80076e2:	6026      	str	r6, [r4, #0]
 80076e4:	60a5      	str	r5, [r4, #8]
 80076e6:	463e      	mov	r6, r7
 80076e8:	42be      	cmp	r6, r7
 80076ea:	d900      	bls.n	80076ee <__ssputs_r+0x72>
 80076ec:	463e      	mov	r6, r7
 80076ee:	6820      	ldr	r0, [r4, #0]
 80076f0:	4632      	mov	r2, r6
 80076f2:	4641      	mov	r1, r8
 80076f4:	f000 fef5 	bl	80084e2 <memmove>
 80076f8:	68a3      	ldr	r3, [r4, #8]
 80076fa:	1b9b      	subs	r3, r3, r6
 80076fc:	60a3      	str	r3, [r4, #8]
 80076fe:	6823      	ldr	r3, [r4, #0]
 8007700:	4433      	add	r3, r6
 8007702:	6023      	str	r3, [r4, #0]
 8007704:	2000      	movs	r0, #0
 8007706:	e8bd 87f0 	ldmia.w	sp!, {r4, r5, r6, r7, r8, r9, sl, pc}
 800770a:	462a      	mov	r2, r5
 800770c:	f000 ff1b 	bl	8008546 <_realloc_r>
 8007710:	4606      	mov	r6, r0
 8007712:	2800      	cmp	r0, #0
 8007714:	d1e0      	bne.n	80076d8 <__ssputs_r+0x5c>
 8007716:	6921      	ldr	r1, [r4, #16]
 8007718:	4650      	mov	r0, sl
 800771a:	f7ff feaf 	bl	800747c <_free_r>
 800771e:	230c      	movs	r3, #12
 8007720:	f8ca 3000 	str.w	r3, [sl]
 8007724:	89a3      	ldrh	r3, [r4, #12]
 8007726:	f043 0340 	orr.w	r3, r3, #64	@ 0x40
 800772a:	81a3      	strh	r3, [r4, #12]
 800772c:	f04f 30ff 	mov.w	r0, #4294967295
 8007730:	e7e9      	b.n	8007706 <__ssputs_r+0x8a>
	...

08007734 <_svfiprintf_r>:
 8007734:	e92d 4ff0 	stmdb	sp!, {r4, r5, r6, r7, r8, r9, sl, fp, lr}
 8007738:	4698      	mov	r8, r3
 800773a:	898b      	ldrh	r3, [r1, #12]
 800773c:	061b      	lsls	r3, r3, #24
 800773e:	b09d      	sub	sp, #116	@ 0x74
 8007740:	4607      	mov	r7, r0
 8007742:	460d      	mov	r5, r1
 8007744:	4614      	mov	r4, r2
 8007746:	d510      	bpl.n	800776a <_svfiprintf_r+0x36>
 8007748:	690b      	ldr	r3, [r1, #16]
 800774a:	b973      	cbnz	r3, 800776a <_svfiprintf_r+0x36>
 800774c:	2140      	movs	r1, #64	@ 0x40
 800774e:	f7ff ff09 	bl	8007564 <_malloc_r>
 8007752:	6028      	str	r0, [r5, #0]
 8007754:	6128      	str	r0, [r5, #16]
 8007756:	b930      	cbnz	r0, 8007766 <_svfiprintf_r+0x32>
 8007758:	230c      	movs	r3, #12
 800775a:	603b      	str	r3, [r7, #0]
 800775c:	f04f 30ff 	mov.w	r0, #4294967295
 8007760:	b01d      	add	sp, #116	@ 0x74
 8007762:	e8bd 8ff0 	ldmia.w	sp!, {r4, r5, r6, r7, r8, r9, sl, fp, pc}
 8007766:	2340      	movs	r3, #64	@ 0x40
 8007768:	616b      	str	r3, [r5, #20]
 800776a:	2300      	movs	r3, #0
 800776c:	9309      	str	r3, [sp, #36]	@ 0x24
 800776e:	2320      	movs	r3, #32
 8007770:	f88d 3029 	strb.w	r3, [sp, #41]	@ 0x29
 8007774:	f8cd 800c 	str.w	r8, [sp, #12]
 8007778:	2330      	movs	r3, #48	@ 0x30
 800777a:	f8df 819c 	ldr.w	r8, [pc, #412]	@ 8007918 <_svfiprintf_r+0x1e4>
 800777e:	f88d 302a 	strb.w	r3, [sp, #42]	@ 0x2a
 8007782:	f04f 0901 	mov.w	r9, #1
 8007786:	4623      	mov	r3, r4
 8007788:	469a      	mov	sl, r3
 800778a:	f813 2b01 	ldrb.w	r2, [r3], #1
 800778e:	b10a      	cbz	r2, 8007794 <_svfiprintf_r+0x60>
 8007790:	2a25      	cmp	r2, #37	@ 0x25
 8007792:	d1f9      	bne.n	8007788 <_svfiprintf_r+0x54>
 8007794:	ebba 0b04 	subs.w	fp, sl, r4
 8007798:	d00b      	beq.n	80077b2 <_svfiprintf_r+0x7e>
 800779a:	465b      	mov	r3, fp
 800779c:	4622      	mov	r2, r4
 800779e:	4629      	mov	r1, r5
 80077a0:	4638      	mov	r0, r7
 80077a2:	f7ff ff6b 	bl	800767c <__ssputs_r>
 80077a6:	3001      	adds	r0, #1
 80077a8:	f000 80a7 	beq.w	80078fa <_svfiprintf_r+0x1c6>
 80077ac:	9a09      	ldr	r2, [sp, #36]	@ 0x24
 80077ae:	445a      	add	r2, fp
 80077b0:	9209      	str	r2, [sp, #36]	@ 0x24
 80077b2:	f89a 3000 	ldrb.w	r3, [sl]
 80077b6:	2b00      	cmp	r3, #0
 80077b8:	f000 809f 	beq.w	80078fa <_svfiprintf_r+0x1c6>
 80077bc:	2300      	movs	r3, #0
 80077be:	f04f 32ff 	mov.w	r2, #4294967295
 80077c2:	e9cd 2305 	strd	r2, r3, [sp, #20]
 80077c6:	f10a 0a01 	add.w	sl, sl, #1
 80077ca:	9304      	str	r3, [sp, #16]
 80077cc:	9307      	str	r3, [sp, #28]
 80077ce:	f88d 3053 	strb.w	r3, [sp, #83]	@ 0x53
 80077d2:	931a      	str	r3, [sp, #104]	@ 0x68
 80077d4:	4654      	mov	r4, sl
 80077d6:	2205      	movs	r2, #5
 80077d8:	f814 1b01 	ldrb.w	r1, [r4], #1
 80077dc:	484e      	ldr	r0, [pc, #312]	@ (8007918 <_svfiprintf_r+0x1e4>)
 80077de:	f7f8 fd0f 	bl	8000200 <memchr>
 80077e2:	9a04      	ldr	r2, [sp, #16]
 80077e4:	b9d8      	cbnz	r0, 800781e <_svfiprintf_r+0xea>
 80077e6:	06d0      	lsls	r0, r2, #27
 80077e8:	bf44      	itt	mi
 80077ea:	2320      	movmi	r3, #32
 80077ec:	f88d 3053 	strbmi.w	r3, [sp, #83]	@ 0x53
 80077f0:	0711      	lsls	r1, r2, #28
 80077f2:	bf44      	itt	mi
 80077f4:	232b      	movmi	r3, #43	@ 0x2b
 80077f6:	f88d 3053 	strbmi.w	r3, [sp, #83]	@ 0x53
 80077fa:	f89a 3000 	ldrb.w	r3, [sl]
 80077fe:	2b2a      	cmp	r3, #42	@ 0x2a
 8007800:	d015      	beq.n	800782e <_svfiprintf_r+0xfa>
 8007802:	9a07      	ldr	r2, [sp, #28]
 8007804:	4654      	mov	r4, sl
 8007806:	2000      	movs	r0, #0
 8007808:	f04f 0c0a 	mov.w	ip, #10
 800780c:	4621      	mov	r1, r4
 800780e:	f811 3b01 	ldrb.w	r3, [r1], #1
 8007812:	3b30      	subs	r3, #48	@ 0x30
 8007814:	2b09      	cmp	r3, #9
 8007816:	d94b      	bls.n	80078b0 <_svfiprintf_r+0x17c>
 8007818:	b1b0      	cbz	r0, 8007848 <_svfiprintf_r+0x114>
 800781a:	9207      	str	r2, [sp, #28]
 800781c:	e014      	b.n	8007848 <_svfiprintf_r+0x114>
 800781e:	eba0 0308 	sub.w	r3, r0, r8
 8007822:	fa09 f303 	lsl.w	r3, r9, r3
 8007826:	4313      	orrs	r3, r2
 8007828:	9304      	str	r3, [sp, #16]
 800782a:	46a2      	mov	sl, r4
 800782c:	e7d2      	b.n	80077d4 <_svfiprintf_r+0xa0>
 800782e:	9b03      	ldr	r3, [sp, #12]
 8007830:	1d19      	adds	r1, r3, #4
 8007832:	681b      	ldr	r3, [r3, #0]
 8007834:	9103      	str	r1, [sp, #12]
 8007836:	2b00      	cmp	r3, #0
 8007838:	bfbb      	ittet	lt
 800783a:	425b      	neglt	r3, r3
 800783c:	f042 0202 	orrlt.w	r2, r2, #2
 8007840:	9307      	strge	r3, [sp, #28]
 8007842:	9307      	strlt	r3, [sp, #28]
 8007844:	bfb8      	it	lt
 8007846:	9204      	strlt	r2, [sp, #16]
 8007848:	7823      	ldrb	r3, [r4, #0]
 800784a:	2b2e      	cmp	r3, #46	@ 0x2e
 800784c:	d10a      	bne.n	8007864 <_svfiprintf_r+0x130>
 800784e:	7863      	ldrb	r3, [r4, #1]
 8007850:	2b2a      	cmp	r3, #42	@ 0x2a
 8007852:	d132      	bne.n	80078ba <_svfiprintf_r+0x186>
 8007854:	9b03      	ldr	r3, [sp, #12]
 8007856:	1d1a      	adds	r2, r3, #4
 8007858:	681b      	ldr	r3, [r3, #0]
 800785a:	9203      	str	r2, [sp, #12]
 800785c:	ea43 73e3 	orr.w	r3, r3, r3, asr #31
 8007860:	3402      	adds	r4, #2
 8007862:	9305      	str	r3, [sp, #20]
 8007864:	f8df a0c0 	ldr.w	sl, [pc, #192]	@ 8007928 <_svfiprintf_r+0x1f4>
 8007868:	7821      	ldrb	r1, [r4, #0]
 800786a:	2203      	movs	r2, #3
 800786c:	4650      	mov	r0, sl
 800786e:	f7f8 fcc7 	bl	8000200 <memchr>
 8007872:	b138      	cbz	r0, 8007884 <_svfiprintf_r+0x150>
 8007874:	9b04      	ldr	r3, [sp, #16]
 8007876:	eba0 000a 	sub.w	r0, r0, sl
 800787a:	2240      	movs	r2, #64	@ 0x40
 800787c:	4082      	lsls	r2, r0
 800787e:	4313      	orrs	r3, r2
 8007880:	3401      	adds	r4, #1
 8007882:	9304      	str	r3, [sp, #16]
 8007884:	f814 1b01 	ldrb.w	r1, [r4], #1
 8007888:	4824      	ldr	r0, [pc, #144]	@ (800791c <_svfiprintf_r+0x1e8>)
 800788a:	f88d 1028 	strb.w	r1, [sp, #40]	@ 0x28
 800788e:	2206      	movs	r2, #6
 8007890:	f7f8 fcb6 	bl	8000200 <memchr>
 8007894:	2800      	cmp	r0, #0
 8007896:	d036      	beq.n	8007906 <_svfiprintf_r+0x1d2>
 8007898:	4b21      	ldr	r3, [pc, #132]	@ (8007920 <_svfiprintf_r+0x1ec>)
 800789a:	bb1b      	cbnz	r3, 80078e4 <_svfiprintf_r+0x1b0>
 800789c:	9b03      	ldr	r3, [sp, #12]
 800789e:	3307      	adds	r3, #7
 80078a0:	f023 0307 	bic.w	r3, r3, #7
 80078a4:	3308      	adds	r3, #8
 80078a6:	9303      	str	r3, [sp, #12]
 80078a8:	9b09      	ldr	r3, [sp, #36]	@ 0x24
 80078aa:	4433      	add	r3, r6
 80078ac:	9309      	str	r3, [sp, #36]	@ 0x24
 80078ae:	e76a      	b.n	8007786 <_svfiprintf_r+0x52>
 80078b0:	fb0c 3202 	mla	r2, ip, r2, r3
 80078b4:	460c      	mov	r4, r1
 80078b6:	2001      	movs	r0, #1
 80078b8:	e7a8      	b.n	800780c <_svfiprintf_r+0xd8>
 80078ba:	2300      	movs	r3, #0
 80078bc:	3401      	adds	r4, #1
 80078be:	9305      	str	r3, [sp, #20]
 80078c0:	4619      	mov	r1, r3
 80078c2:	f04f 0c0a 	mov.w	ip, #10
 80078c6:	4620      	mov	r0, r4
 80078c8:	f810 2b01 	ldrb.w	r2, [r0], #1
 80078cc:	3a30      	subs	r2, #48	@ 0x30
 80078ce:	2a09      	cmp	r2, #9
 80078d0:	d903      	bls.n	80078da <_svfiprintf_r+0x1a6>
 80078d2:	2b00      	cmp	r3, #0
 80078d4:	d0c6      	beq.n	8007864 <_svfiprintf_r+0x130>
 80078d6:	9105      	str	r1, [sp, #20]
 80078d8:	e7c4      	b.n	8007864 <_svfiprintf_r+0x130>
 80078da:	fb0c 2101 	mla	r1, ip, r1, r2
 80078de:	4604      	mov	r4, r0
 80078e0:	2301      	movs	r3, #1
 80078e2:	e7f0      	b.n	80078c6 <_svfiprintf_r+0x192>
 80078e4:	ab03      	add	r3, sp, #12
 80078e6:	9300      	str	r3, [sp, #0]
 80078e8:	462a      	mov	r2, r5
 80078ea:	4b0e      	ldr	r3, [pc, #56]	@ (8007924 <_svfiprintf_r+0x1f0>)
 80078ec:	a904      	add	r1, sp, #16
 80078ee:	4638      	mov	r0, r7
 80078f0:	f3af 8000 	nop.w
 80078f4:	1c42      	adds	r2, r0, #1
 80078f6:	4606      	mov	r6, r0
 80078f8:	d1d6      	bne.n	80078a8 <_svfiprintf_r+0x174>
 80078fa:	89ab      	ldrh	r3, [r5, #12]
 80078fc:	065b      	lsls	r3, r3, #25
 80078fe:	f53f af2d 	bmi.w	800775c <_svfiprintf_r+0x28>
 8007902:	9809      	ldr	r0, [sp, #36]	@ 0x24
 8007904:	e72c      	b.n	8007760 <_svfiprintf_r+0x2c>
 8007906:	ab03      	add	r3, sp, #12
 8007908:	9300      	str	r3, [sp, #0]
 800790a:	462a      	mov	r2, r5
 800790c:	4b05      	ldr	r3, [pc, #20]	@ (8007924 <_svfiprintf_r+0x1f0>)
 800790e:	a904      	add	r1, sp, #16
 8007910:	4638      	mov	r0, r7
 8007912:	f000 fa49 	bl	8007da8 <_printf_i>
 8007916:	e7ed      	b.n	80078f4 <_svfiprintf_r+0x1c0>
 8007918:	08008fee 	.word	0x08008fee
 800791c:	08008ff8 	.word	0x08008ff8
 8007920:	00000000 	.word	0x00000000
 8007924:	0800767d 	.word	0x0800767d
 8007928:	08008ff4 	.word	0x08008ff4

0800792c <_sungetc_r>:
 800792c:	b538      	push	{r3, r4, r5, lr}
 800792e:	1c4b      	adds	r3, r1, #1
 8007930:	4614      	mov	r4, r2
 8007932:	d103      	bne.n	800793c <_sungetc_r+0x10>
 8007934:	f04f 35ff 	mov.w	r5, #4294967295
 8007938:	4628      	mov	r0, r5
 800793a:	bd38      	pop	{r3, r4, r5, pc}
 800793c:	8993      	ldrh	r3, [r2, #12]
 800793e:	f023 0320 	bic.w	r3, r3, #32
 8007942:	8193      	strh	r3, [r2, #12]
 8007944:	6b63      	ldr	r3, [r4, #52]	@ 0x34
 8007946:	6852      	ldr	r2, [r2, #4]
 8007948:	b2cd      	uxtb	r5, r1
 800794a:	b18b      	cbz	r3, 8007970 <_sungetc_r+0x44>
 800794c:	6ba3      	ldr	r3, [r4, #56]	@ 0x38
 800794e:	4293      	cmp	r3, r2
 8007950:	dd08      	ble.n	8007964 <_sungetc_r+0x38>
 8007952:	6823      	ldr	r3, [r4, #0]
 8007954:	1e5a      	subs	r2, r3, #1
 8007956:	6022      	str	r2, [r4, #0]
 8007958:	f803 5c01 	strb.w	r5, [r3, #-1]
 800795c:	6863      	ldr	r3, [r4, #4]
 800795e:	3301      	adds	r3, #1
 8007960:	6063      	str	r3, [r4, #4]
 8007962:	e7e9      	b.n	8007938 <_sungetc_r+0xc>
 8007964:	4621      	mov	r1, r4
 8007966:	f000 fd82 	bl	800846e <__submore>
 800796a:	2800      	cmp	r0, #0
 800796c:	d0f1      	beq.n	8007952 <_sungetc_r+0x26>
 800796e:	e7e1      	b.n	8007934 <_sungetc_r+0x8>
 8007970:	6921      	ldr	r1, [r4, #16]
 8007972:	6823      	ldr	r3, [r4, #0]
 8007974:	b151      	cbz	r1, 800798c <_sungetc_r+0x60>
 8007976:	4299      	cmp	r1, r3
 8007978:	d208      	bcs.n	800798c <_sungetc_r+0x60>
 800797a:	f813 1c01 	ldrb.w	r1, [r3, #-1]
 800797e:	42a9      	cmp	r1, r5
 8007980:	d104      	bne.n	800798c <_sungetc_r+0x60>
 8007982:	3b01      	subs	r3, #1
 8007984:	3201      	adds	r2, #1
 8007986:	6023      	str	r3, [r4, #0]
 8007988:	6062      	str	r2, [r4, #4]
 800798a:	e7d5      	b.n	8007938 <_sungetc_r+0xc>
 800798c:	e9c4 320f 	strd	r3, r2, [r4, #60]	@ 0x3c
 8007990:	f104 0344 	add.w	r3, r4, #68	@ 0x44
 8007994:	6363      	str	r3, [r4, #52]	@ 0x34
 8007996:	2303      	movs	r3, #3
 8007998:	63a3      	str	r3, [r4, #56]	@ 0x38
 800799a:	4623      	mov	r3, r4
 800799c:	f803 5f46 	strb.w	r5, [r3, #70]!
 80079a0:	6023      	str	r3, [r4, #0]
 80079a2:	2301      	movs	r3, #1
 80079a4:	e7dc      	b.n	8007960 <_sungetc_r+0x34>

080079a6 <__ssrefill_r>:
 80079a6:	b510      	push	{r4, lr}
 80079a8:	460c      	mov	r4, r1
 80079aa:	6b49      	ldr	r1, [r1, #52]	@ 0x34
 80079ac:	b169      	cbz	r1, 80079ca <__ssrefill_r+0x24>
 80079ae:	f104 0344 	add.w	r3, r4, #68	@ 0x44
 80079b2:	4299      	cmp	r1, r3
 80079b4:	d001      	beq.n	80079ba <__ssrefill_r+0x14>
 80079b6:	f7ff fd61 	bl	800747c <_free_r>
 80079ba:	6c23      	ldr	r3, [r4, #64]	@ 0x40
 80079bc:	6063      	str	r3, [r4, #4]
 80079be:	2000      	movs	r0, #0
 80079c0:	6360      	str	r0, [r4, #52]	@ 0x34
 80079c2:	b113      	cbz	r3, 80079ca <__ssrefill_r+0x24>
 80079c4:	6be3      	ldr	r3, [r4, #60]	@ 0x3c
 80079c6:	6023      	str	r3, [r4, #0]
 80079c8:	bd10      	pop	{r4, pc}
 80079ca:	6923      	ldr	r3, [r4, #16]
 80079cc:	6023      	str	r3, [r4, #0]
 80079ce:	2300      	movs	r3, #0
 80079d0:	6063      	str	r3, [r4, #4]
 80079d2:	89a3      	ldrh	r3, [r4, #12]
 80079d4:	f043 0320 	orr.w	r3, r3, #32
 80079d8:	81a3      	strh	r3, [r4, #12]
 80079da:	f04f 30ff 	mov.w	r0, #4294967295
 80079de:	e7f3      	b.n	80079c8 <__ssrefill_r+0x22>

080079e0 <__ssvfiscanf_r>:
 80079e0:	e92d 4ff0 	stmdb	sp!, {r4, r5, r6, r7, r8, r9, sl, fp, lr}
 80079e4:	460c      	mov	r4, r1
 80079e6:	f5ad 7d23 	sub.w	sp, sp, #652	@ 0x28c
 80079ea:	2100      	movs	r1, #0
 80079ec:	e9cd 1144 	strd	r1, r1, [sp, #272]	@ 0x110
 80079f0:	49a6      	ldr	r1, [pc, #664]	@ (8007c8c <__ssvfiscanf_r+0x2ac>)
 80079f2:	91a0      	str	r1, [sp, #640]	@ 0x280
 80079f4:	f10d 0804 	add.w	r8, sp, #4
 80079f8:	49a5      	ldr	r1, [pc, #660]	@ (8007c90 <__ssvfiscanf_r+0x2b0>)
 80079fa:	4fa6      	ldr	r7, [pc, #664]	@ (8007c94 <__ssvfiscanf_r+0x2b4>)
 80079fc:	f8cd 8118 	str.w	r8, [sp, #280]	@ 0x118
 8007a00:	4606      	mov	r6, r0
 8007a02:	91a1      	str	r1, [sp, #644]	@ 0x284
 8007a04:	9300      	str	r3, [sp, #0]
 8007a06:	f892 9000 	ldrb.w	r9, [r2]
 8007a0a:	f1b9 0f00 	cmp.w	r9, #0
 8007a0e:	f000 8158 	beq.w	8007cc2 <__ssvfiscanf_r+0x2e2>
 8007a12:	f817 3009 	ldrb.w	r3, [r7, r9]
 8007a16:	f013 0308 	ands.w	r3, r3, #8
 8007a1a:	f102 0501 	add.w	r5, r2, #1
 8007a1e:	d019      	beq.n	8007a54 <__ssvfiscanf_r+0x74>
 8007a20:	6863      	ldr	r3, [r4, #4]
 8007a22:	2b00      	cmp	r3, #0
 8007a24:	dd0f      	ble.n	8007a46 <__ssvfiscanf_r+0x66>
 8007a26:	6823      	ldr	r3, [r4, #0]
 8007a28:	781a      	ldrb	r2, [r3, #0]
 8007a2a:	5cba      	ldrb	r2, [r7, r2]
 8007a2c:	0712      	lsls	r2, r2, #28
 8007a2e:	d401      	bmi.n	8007a34 <__ssvfiscanf_r+0x54>
 8007a30:	462a      	mov	r2, r5
 8007a32:	e7e8      	b.n	8007a06 <__ssvfiscanf_r+0x26>
 8007a34:	9a45      	ldr	r2, [sp, #276]	@ 0x114
 8007a36:	3201      	adds	r2, #1
 8007a38:	9245      	str	r2, [sp, #276]	@ 0x114
 8007a3a:	6862      	ldr	r2, [r4, #4]
 8007a3c:	3301      	adds	r3, #1
 8007a3e:	3a01      	subs	r2, #1
 8007a40:	6062      	str	r2, [r4, #4]
 8007a42:	6023      	str	r3, [r4, #0]
 8007a44:	e7ec      	b.n	8007a20 <__ssvfiscanf_r+0x40>
 8007a46:	9ba1      	ldr	r3, [sp, #644]	@ 0x284
 8007a48:	4621      	mov	r1, r4
 8007a4a:	4630      	mov	r0, r6
 8007a4c:	4798      	blx	r3
 8007a4e:	2800      	cmp	r0, #0
 8007a50:	d0e9      	beq.n	8007a26 <__ssvfiscanf_r+0x46>
 8007a52:	e7ed      	b.n	8007a30 <__ssvfiscanf_r+0x50>
 8007a54:	f1b9 0f25 	cmp.w	r9, #37	@ 0x25
 8007a58:	f040 8085 	bne.w	8007b66 <__ssvfiscanf_r+0x186>
 8007a5c:	9341      	str	r3, [sp, #260]	@ 0x104
 8007a5e:	9343      	str	r3, [sp, #268]	@ 0x10c
 8007a60:	7853      	ldrb	r3, [r2, #1]
 8007a62:	2b2a      	cmp	r3, #42	@ 0x2a
 8007a64:	bf02      	ittt	eq
 8007a66:	2310      	moveq	r3, #16
 8007a68:	1c95      	addeq	r5, r2, #2
 8007a6a:	9341      	streq	r3, [sp, #260]	@ 0x104
 8007a6c:	220a      	movs	r2, #10
 8007a6e:	46aa      	mov	sl, r5
 8007a70:	f81a 1b01 	ldrb.w	r1, [sl], #1
 8007a74:	f1a1 0330 	sub.w	r3, r1, #48	@ 0x30
 8007a78:	2b09      	cmp	r3, #9
 8007a7a:	d91e      	bls.n	8007aba <__ssvfiscanf_r+0xda>
 8007a7c:	f8df b218 	ldr.w	fp, [pc, #536]	@ 8007c98 <__ssvfiscanf_r+0x2b8>
 8007a80:	2203      	movs	r2, #3
 8007a82:	4658      	mov	r0, fp
 8007a84:	f7f8 fbbc 	bl	8000200 <memchr>
 8007a88:	b138      	cbz	r0, 8007a9a <__ssvfiscanf_r+0xba>
 8007a8a:	9a41      	ldr	r2, [sp, #260]	@ 0x104
 8007a8c:	eba0 000b 	sub.w	r0, r0, fp
 8007a90:	2301      	movs	r3, #1
 8007a92:	4083      	lsls	r3, r0
 8007a94:	4313      	orrs	r3, r2
 8007a96:	9341      	str	r3, [sp, #260]	@ 0x104
 8007a98:	4655      	mov	r5, sl
 8007a9a:	f815 3b01 	ldrb.w	r3, [r5], #1
 8007a9e:	2b78      	cmp	r3, #120	@ 0x78
 8007aa0:	d806      	bhi.n	8007ab0 <__ssvfiscanf_r+0xd0>
 8007aa2:	2b57      	cmp	r3, #87	@ 0x57
 8007aa4:	d810      	bhi.n	8007ac8 <__ssvfiscanf_r+0xe8>
 8007aa6:	2b25      	cmp	r3, #37	@ 0x25
 8007aa8:	d05d      	beq.n	8007b66 <__ssvfiscanf_r+0x186>
 8007aaa:	d857      	bhi.n	8007b5c <__ssvfiscanf_r+0x17c>
 8007aac:	2b00      	cmp	r3, #0
 8007aae:	d075      	beq.n	8007b9c <__ssvfiscanf_r+0x1bc>
 8007ab0:	2303      	movs	r3, #3
 8007ab2:	9347      	str	r3, [sp, #284]	@ 0x11c
 8007ab4:	230a      	movs	r3, #10
 8007ab6:	9342      	str	r3, [sp, #264]	@ 0x108
 8007ab8:	e088      	b.n	8007bcc <__ssvfiscanf_r+0x1ec>
 8007aba:	9b43      	ldr	r3, [sp, #268]	@ 0x10c
 8007abc:	fb02 1103 	mla	r1, r2, r3, r1
 8007ac0:	3930      	subs	r1, #48	@ 0x30
 8007ac2:	9143      	str	r1, [sp, #268]	@ 0x10c
 8007ac4:	4655      	mov	r5, sl
 8007ac6:	e7d2      	b.n	8007a6e <__ssvfiscanf_r+0x8e>
 8007ac8:	f1a3 0258 	sub.w	r2, r3, #88	@ 0x58
 8007acc:	2a20      	cmp	r2, #32
 8007ace:	d8ef      	bhi.n	8007ab0 <__ssvfiscanf_r+0xd0>
 8007ad0:	a101      	add	r1, pc, #4	@ (adr r1, 8007ad8 <__ssvfiscanf_r+0xf8>)
 8007ad2:	f851 f022 	ldr.w	pc, [r1, r2, lsl #2]
 8007ad6:	bf00      	nop
 8007ad8:	08007bab 	.word	0x08007bab
 8007adc:	08007ab1 	.word	0x08007ab1
 8007ae0:	08007ab1 	.word	0x08007ab1
 8007ae4:	08007c05 	.word	0x08007c05
 8007ae8:	08007ab1 	.word	0x08007ab1
 8007aec:	08007ab1 	.word	0x08007ab1
 8007af0:	08007ab1 	.word	0x08007ab1
 8007af4:	08007ab1 	.word	0x08007ab1
 8007af8:	08007ab1 	.word	0x08007ab1
 8007afc:	08007ab1 	.word	0x08007ab1
 8007b00:	08007ab1 	.word	0x08007ab1
 8007b04:	08007c1b 	.word	0x08007c1b
 8007b08:	08007c01 	.word	0x08007c01
 8007b0c:	08007b63 	.word	0x08007b63
 8007b10:	08007b63 	.word	0x08007b63
 8007b14:	08007b63 	.word	0x08007b63
 8007b18:	08007ab1 	.word	0x08007ab1
 8007b1c:	08007bbd 	.word	0x08007bbd
 8007b20:	08007ab1 	.word	0x08007ab1
 8007b24:	08007ab1 	.word	0x08007ab1
 8007b28:	08007ab1 	.word	0x08007ab1
 8007b2c:	08007ab1 	.word	0x08007ab1
 8007b30:	08007c2b 	.word	0x08007c2b
 8007b34:	08007bc5 	.word	0x08007bc5
 8007b38:	08007ba3 	.word	0x08007ba3
 8007b3c:	08007ab1 	.word	0x08007ab1
 8007b40:	08007ab1 	.word	0x08007ab1
 8007b44:	08007c27 	.word	0x08007c27
 8007b48:	08007ab1 	.word	0x08007ab1
 8007b4c:	08007c01 	.word	0x08007c01
 8007b50:	08007ab1 	.word	0x08007ab1
 8007b54:	08007ab1 	.word	0x08007ab1
 8007b58:	08007bab 	.word	0x08007bab
 8007b5c:	3b45      	subs	r3, #69	@ 0x45
 8007b5e:	2b02      	cmp	r3, #2
 8007b60:	d8a6      	bhi.n	8007ab0 <__ssvfiscanf_r+0xd0>
 8007b62:	2305      	movs	r3, #5
 8007b64:	e031      	b.n	8007bca <__ssvfiscanf_r+0x1ea>
 8007b66:	6863      	ldr	r3, [r4, #4]
 8007b68:	2b00      	cmp	r3, #0
 8007b6a:	dd0d      	ble.n	8007b88 <__ssvfiscanf_r+0x1a8>
 8007b6c:	6823      	ldr	r3, [r4, #0]
 8007b6e:	781a      	ldrb	r2, [r3, #0]
 8007b70:	454a      	cmp	r2, r9
 8007b72:	f040 80a6 	bne.w	8007cc2 <__ssvfiscanf_r+0x2e2>
 8007b76:	3301      	adds	r3, #1
 8007b78:	6862      	ldr	r2, [r4, #4]
 8007b7a:	6023      	str	r3, [r4, #0]
 8007b7c:	9b45      	ldr	r3, [sp, #276]	@ 0x114
 8007b7e:	3a01      	subs	r2, #1
 8007b80:	3301      	adds	r3, #1
 8007b82:	6062      	str	r2, [r4, #4]
 8007b84:	9345      	str	r3, [sp, #276]	@ 0x114
 8007b86:	e753      	b.n	8007a30 <__ssvfiscanf_r+0x50>
 8007b88:	9ba1      	ldr	r3, [sp, #644]	@ 0x284
 8007b8a:	4621      	mov	r1, r4
 8007b8c:	4630      	mov	r0, r6
 8007b8e:	4798      	blx	r3
 8007b90:	2800      	cmp	r0, #0
 8007b92:	d0eb      	beq.n	8007b6c <__ssvfiscanf_r+0x18c>
 8007b94:	9844      	ldr	r0, [sp, #272]	@ 0x110
 8007b96:	2800      	cmp	r0, #0
 8007b98:	f040 808b 	bne.w	8007cb2 <__ssvfiscanf_r+0x2d2>
 8007b9c:	f04f 30ff 	mov.w	r0, #4294967295
 8007ba0:	e08b      	b.n	8007cba <__ssvfiscanf_r+0x2da>
 8007ba2:	9a41      	ldr	r2, [sp, #260]	@ 0x104
 8007ba4:	f042 0220 	orr.w	r2, r2, #32
 8007ba8:	9241      	str	r2, [sp, #260]	@ 0x104
 8007baa:	9a41      	ldr	r2, [sp, #260]	@ 0x104
 8007bac:	f442 7200 	orr.w	r2, r2, #512	@ 0x200
 8007bb0:	9241      	str	r2, [sp, #260]	@ 0x104
 8007bb2:	2210      	movs	r2, #16
 8007bb4:	2b6e      	cmp	r3, #110	@ 0x6e
 8007bb6:	9242      	str	r2, [sp, #264]	@ 0x108
 8007bb8:	d902      	bls.n	8007bc0 <__ssvfiscanf_r+0x1e0>
 8007bba:	e005      	b.n	8007bc8 <__ssvfiscanf_r+0x1e8>
 8007bbc:	2300      	movs	r3, #0
 8007bbe:	9342      	str	r3, [sp, #264]	@ 0x108
 8007bc0:	2303      	movs	r3, #3
 8007bc2:	e002      	b.n	8007bca <__ssvfiscanf_r+0x1ea>
 8007bc4:	2308      	movs	r3, #8
 8007bc6:	9342      	str	r3, [sp, #264]	@ 0x108
 8007bc8:	2304      	movs	r3, #4
 8007bca:	9347      	str	r3, [sp, #284]	@ 0x11c
 8007bcc:	6863      	ldr	r3, [r4, #4]
 8007bce:	2b00      	cmp	r3, #0
 8007bd0:	dd39      	ble.n	8007c46 <__ssvfiscanf_r+0x266>
 8007bd2:	9b41      	ldr	r3, [sp, #260]	@ 0x104
 8007bd4:	0659      	lsls	r1, r3, #25
 8007bd6:	d404      	bmi.n	8007be2 <__ssvfiscanf_r+0x202>
 8007bd8:	6823      	ldr	r3, [r4, #0]
 8007bda:	781a      	ldrb	r2, [r3, #0]
 8007bdc:	5cba      	ldrb	r2, [r7, r2]
 8007bde:	0712      	lsls	r2, r2, #28
 8007be0:	d438      	bmi.n	8007c54 <__ssvfiscanf_r+0x274>
 8007be2:	9b47      	ldr	r3, [sp, #284]	@ 0x11c
 8007be4:	2b02      	cmp	r3, #2
 8007be6:	dc47      	bgt.n	8007c78 <__ssvfiscanf_r+0x298>
 8007be8:	466b      	mov	r3, sp
 8007bea:	4622      	mov	r2, r4
 8007bec:	a941      	add	r1, sp, #260	@ 0x104
 8007bee:	4630      	mov	r0, r6
 8007bf0:	f000 f9f8 	bl	8007fe4 <_scanf_chars>
 8007bf4:	2801      	cmp	r0, #1
 8007bf6:	d064      	beq.n	8007cc2 <__ssvfiscanf_r+0x2e2>
 8007bf8:	2802      	cmp	r0, #2
 8007bfa:	f47f af19 	bne.w	8007a30 <__ssvfiscanf_r+0x50>
 8007bfe:	e7c9      	b.n	8007b94 <__ssvfiscanf_r+0x1b4>
 8007c00:	220a      	movs	r2, #10
 8007c02:	e7d7      	b.n	8007bb4 <__ssvfiscanf_r+0x1d4>
 8007c04:	4629      	mov	r1, r5
 8007c06:	4640      	mov	r0, r8
 8007c08:	f000 fbf8 	bl	80083fc <__sccl>
 8007c0c:	9b41      	ldr	r3, [sp, #260]	@ 0x104
 8007c0e:	f043 0340 	orr.w	r3, r3, #64	@ 0x40
 8007c12:	9341      	str	r3, [sp, #260]	@ 0x104
 8007c14:	4605      	mov	r5, r0
 8007c16:	2301      	movs	r3, #1
 8007c18:	e7d7      	b.n	8007bca <__ssvfiscanf_r+0x1ea>
 8007c1a:	9b41      	ldr	r3, [sp, #260]	@ 0x104
 8007c1c:	f043 0340 	orr.w	r3, r3, #64	@ 0x40
 8007c20:	9341      	str	r3, [sp, #260]	@ 0x104
 8007c22:	2300      	movs	r3, #0
 8007c24:	e7d1      	b.n	8007bca <__ssvfiscanf_r+0x1ea>
 8007c26:	2302      	movs	r3, #2
 8007c28:	e7cf      	b.n	8007bca <__ssvfiscanf_r+0x1ea>
 8007c2a:	9841      	ldr	r0, [sp, #260]	@ 0x104
 8007c2c:	06c3      	lsls	r3, r0, #27
 8007c2e:	f53f aeff 	bmi.w	8007a30 <__ssvfiscanf_r+0x50>
 8007c32:	9b00      	ldr	r3, [sp, #0]
 8007c34:	9a45      	ldr	r2, [sp, #276]	@ 0x114
 8007c36:	1d19      	adds	r1, r3, #4
 8007c38:	9100      	str	r1, [sp, #0]
 8007c3a:	681b      	ldr	r3, [r3, #0]
 8007c3c:	07c0      	lsls	r0, r0, #31
 8007c3e:	bf4c      	ite	mi
 8007c40:	801a      	strhmi	r2, [r3, #0]
 8007c42:	601a      	strpl	r2, [r3, #0]
 8007c44:	e6f4      	b.n	8007a30 <__ssvfiscanf_r+0x50>
 8007c46:	9ba1      	ldr	r3, [sp, #644]	@ 0x284
 8007c48:	4621      	mov	r1, r4
 8007c4a:	4630      	mov	r0, r6
 8007c4c:	4798      	blx	r3
 8007c4e:	2800      	cmp	r0, #0
 8007c50:	d0bf      	beq.n	8007bd2 <__ssvfiscanf_r+0x1f2>
 8007c52:	e79f      	b.n	8007b94 <__ssvfiscanf_r+0x1b4>
 8007c54:	9a45      	ldr	r2, [sp, #276]	@ 0x114
 8007c56:	3201      	adds	r2, #1
 8007c58:	9245      	str	r2, [sp, #276]	@ 0x114
 8007c5a:	6862      	ldr	r2, [r4, #4]
 8007c5c:	3a01      	subs	r2, #1
 8007c5e:	2a00      	cmp	r2, #0
 8007c60:	6062      	str	r2, [r4, #4]
 8007c62:	dd02      	ble.n	8007c6a <__ssvfiscanf_r+0x28a>
 8007c64:	3301      	adds	r3, #1
 8007c66:	6023      	str	r3, [r4, #0]
 8007c68:	e7b6      	b.n	8007bd8 <__ssvfiscanf_r+0x1f8>
 8007c6a:	9ba1      	ldr	r3, [sp, #644]	@ 0x284
 8007c6c:	4621      	mov	r1, r4
 8007c6e:	4630      	mov	r0, r6
 8007c70:	4798      	blx	r3
 8007c72:	2800      	cmp	r0, #0
 8007c74:	d0b0      	beq.n	8007bd8 <__ssvfiscanf_r+0x1f8>
 8007c76:	e78d      	b.n	8007b94 <__ssvfiscanf_r+0x1b4>
 8007c78:	2b04      	cmp	r3, #4
 8007c7a:	dc0f      	bgt.n	8007c9c <__ssvfiscanf_r+0x2bc>
 8007c7c:	466b      	mov	r3, sp
 8007c7e:	4622      	mov	r2, r4
 8007c80:	a941      	add	r1, sp, #260	@ 0x104
 8007c82:	4630      	mov	r0, r6
 8007c84:	f000 fa08 	bl	8008098 <_scanf_i>
 8007c88:	e7b4      	b.n	8007bf4 <__ssvfiscanf_r+0x214>
 8007c8a:	bf00      	nop
 8007c8c:	0800792d 	.word	0x0800792d
 8007c90:	080079a7 	.word	0x080079a7
 8007c94:	08009149 	.word	0x08009149
 8007c98:	08008ff4 	.word	0x08008ff4
 8007c9c:	4b0a      	ldr	r3, [pc, #40]	@ (8007cc8 <__ssvfiscanf_r+0x2e8>)
 8007c9e:	2b00      	cmp	r3, #0
 8007ca0:	f43f aec6 	beq.w	8007a30 <__ssvfiscanf_r+0x50>
 8007ca4:	466b      	mov	r3, sp
 8007ca6:	4622      	mov	r2, r4
 8007ca8:	a941      	add	r1, sp, #260	@ 0x104
 8007caa:	4630      	mov	r0, r6
 8007cac:	f3af 8000 	nop.w
 8007cb0:	e7a0      	b.n	8007bf4 <__ssvfiscanf_r+0x214>
 8007cb2:	89a3      	ldrh	r3, [r4, #12]
 8007cb4:	065b      	lsls	r3, r3, #25
 8007cb6:	f53f af71 	bmi.w	8007b9c <__ssvfiscanf_r+0x1bc>
 8007cba:	f50d 7d23 	add.w	sp, sp, #652	@ 0x28c
 8007cbe:	e8bd 8ff0 	ldmia.w	sp!, {r4, r5, r6, r7, r8, r9, sl, fp, pc}
 8007cc2:	9844      	ldr	r0, [sp, #272]	@ 0x110
 8007cc4:	e7f9      	b.n	8007cba <__ssvfiscanf_r+0x2da>
 8007cc6:	bf00      	nop
 8007cc8:	00000000 	.word	0x00000000

08007ccc <_printf_common>:
 8007ccc:	e92d 47f0 	stmdb	sp!, {r4, r5, r6, r7, r8, r9, sl, lr}
 8007cd0:	4616      	mov	r6, r2
 8007cd2:	4698      	mov	r8, r3
 8007cd4:	688a      	ldr	r2, [r1, #8]
 8007cd6:	690b      	ldr	r3, [r1, #16]
 8007cd8:	f8dd 9020 	ldr.w	r9, [sp, #32]
 8007cdc:	4293      	cmp	r3, r2
 8007cde:	bfb8      	it	lt
 8007ce0:	4613      	movlt	r3, r2
 8007ce2:	6033      	str	r3, [r6, #0]
 8007ce4:	f891 2043 	ldrb.w	r2, [r1, #67]	@ 0x43
 8007ce8:	4607      	mov	r7, r0
 8007cea:	460c      	mov	r4, r1
 8007cec:	b10a      	cbz	r2, 8007cf2 <_printf_common+0x26>
 8007cee:	3301      	adds	r3, #1
 8007cf0:	6033      	str	r3, [r6, #0]
 8007cf2:	6823      	ldr	r3, [r4, #0]
 8007cf4:	0699      	lsls	r1, r3, #26
 8007cf6:	bf42      	ittt	mi
 8007cf8:	6833      	ldrmi	r3, [r6, #0]
 8007cfa:	3302      	addmi	r3, #2
 8007cfc:	6033      	strmi	r3, [r6, #0]
 8007cfe:	6825      	ldr	r5, [r4, #0]
 8007d00:	f015 0506 	ands.w	r5, r5, #6
 8007d04:	d106      	bne.n	8007d14 <_printf_common+0x48>
 8007d06:	f104 0a19 	add.w	sl, r4, #25
 8007d0a:	68e3      	ldr	r3, [r4, #12]
 8007d0c:	6832      	ldr	r2, [r6, #0]
 8007d0e:	1a9b      	subs	r3, r3, r2
 8007d10:	42ab      	cmp	r3, r5
 8007d12:	dc26      	bgt.n	8007d62 <_printf_common+0x96>
 8007d14:	f894 3043 	ldrb.w	r3, [r4, #67]	@ 0x43
 8007d18:	6822      	ldr	r2, [r4, #0]
 8007d1a:	3b00      	subs	r3, #0
 8007d1c:	bf18      	it	ne
 8007d1e:	2301      	movne	r3, #1
 8007d20:	0692      	lsls	r2, r2, #26
 8007d22:	d42b      	bmi.n	8007d7c <_printf_common+0xb0>
 8007d24:	f104 0243 	add.w	r2, r4, #67	@ 0x43
 8007d28:	4641      	mov	r1, r8
 8007d2a:	4638      	mov	r0, r7
 8007d2c:	47c8      	blx	r9
 8007d2e:	3001      	adds	r0, #1
 8007d30:	d01e      	beq.n	8007d70 <_printf_common+0xa4>
 8007d32:	6823      	ldr	r3, [r4, #0]
 8007d34:	6922      	ldr	r2, [r4, #16]
 8007d36:	f003 0306 	and.w	r3, r3, #6
 8007d3a:	2b04      	cmp	r3, #4
 8007d3c:	bf02      	ittt	eq
 8007d3e:	68e5      	ldreq	r5, [r4, #12]
 8007d40:	6833      	ldreq	r3, [r6, #0]
 8007d42:	1aed      	subeq	r5, r5, r3
 8007d44:	68a3      	ldr	r3, [r4, #8]
 8007d46:	bf0c      	ite	eq
 8007d48:	ea25 75e5 	biceq.w	r5, r5, r5, asr #31
 8007d4c:	2500      	movne	r5, #0
 8007d4e:	4293      	cmp	r3, r2
 8007d50:	bfc4      	itt	gt
 8007d52:	1a9b      	subgt	r3, r3, r2
 8007d54:	18ed      	addgt	r5, r5, r3
 8007d56:	2600      	movs	r6, #0
 8007d58:	341a      	adds	r4, #26
 8007d5a:	42b5      	cmp	r5, r6
 8007d5c:	d11a      	bne.n	8007d94 <_printf_common+0xc8>
 8007d5e:	2000      	movs	r0, #0
 8007d60:	e008      	b.n	8007d74 <_printf_common+0xa8>
 8007d62:	2301      	movs	r3, #1
 8007d64:	4652      	mov	r2, sl
 8007d66:	4641      	mov	r1, r8
 8007d68:	4638      	mov	r0, r7
 8007d6a:	47c8      	blx	r9
 8007d6c:	3001      	adds	r0, #1
 8007d6e:	d103      	bne.n	8007d78 <_printf_common+0xac>
 8007d70:	f04f 30ff 	mov.w	r0, #4294967295
 8007d74:	e8bd 87f0 	ldmia.w	sp!, {r4, r5, r6, r7, r8, r9, sl, pc}
 8007d78:	3501      	adds	r5, #1
 8007d7a:	e7c6      	b.n	8007d0a <_printf_common+0x3e>
 8007d7c:	18e1      	adds	r1, r4, r3
 8007d7e:	1c5a      	adds	r2, r3, #1
 8007d80:	2030      	movs	r0, #48	@ 0x30
 8007d82:	f881 0043 	strb.w	r0, [r1, #67]	@ 0x43
 8007d86:	4422      	add	r2, r4
 8007d88:	f894 1045 	ldrb.w	r1, [r4, #69]	@ 0x45
 8007d8c:	f882 1043 	strb.w	r1, [r2, #67]	@ 0x43
 8007d90:	3302      	adds	r3, #2
 8007d92:	e7c7      	b.n	8007d24 <_printf_common+0x58>
 8007d94:	2301      	movs	r3, #1
 8007d96:	4622      	mov	r2, r4
 8007d98:	4641      	mov	r1, r8
 8007d9a:	4638      	mov	r0, r7
 8007d9c:	47c8      	blx	r9
 8007d9e:	3001      	adds	r0, #1
 8007da0:	d0e6      	beq.n	8007d70 <_printf_common+0xa4>
 8007da2:	3601      	adds	r6, #1
 8007da4:	e7d9      	b.n	8007d5a <_printf_common+0x8e>
	...

08007da8 <_printf_i>:
 8007da8:	e92d 47ff 	stmdb	sp!, {r0, r1, r2, r3, r4, r5, r6, r7, r8, r9, sl, lr}
 8007dac:	7e0f      	ldrb	r7, [r1, #24]
 8007dae:	9e0c      	ldr	r6, [sp, #48]	@ 0x30
 8007db0:	2f78      	cmp	r7, #120	@ 0x78
 8007db2:	4691      	mov	r9, r2
 8007db4:	4680      	mov	r8, r0
 8007db6:	460c      	mov	r4, r1
 8007db8:	469a      	mov	sl, r3
 8007dba:	f101 0243 	add.w	r2, r1, #67	@ 0x43
 8007dbe:	d807      	bhi.n	8007dd0 <_printf_i+0x28>
 8007dc0:	2f62      	cmp	r7, #98	@ 0x62
 8007dc2:	d80a      	bhi.n	8007dda <_printf_i+0x32>
 8007dc4:	2f00      	cmp	r7, #0
 8007dc6:	f000 80d1 	beq.w	8007f6c <_printf_i+0x1c4>
 8007dca:	2f58      	cmp	r7, #88	@ 0x58
 8007dcc:	f000 80b8 	beq.w	8007f40 <_printf_i+0x198>
 8007dd0:	f104 0642 	add.w	r6, r4, #66	@ 0x42
 8007dd4:	f884 7042 	strb.w	r7, [r4, #66]	@ 0x42
 8007dd8:	e03a      	b.n	8007e50 <_printf_i+0xa8>
 8007dda:	f1a7 0363 	sub.w	r3, r7, #99	@ 0x63
 8007dde:	2b15      	cmp	r3, #21
 8007de0:	d8f6      	bhi.n	8007dd0 <_printf_i+0x28>
 8007de2:	a101      	add	r1, pc, #4	@ (adr r1, 8007de8 <_printf_i+0x40>)
 8007de4:	f851 f023 	ldr.w	pc, [r1, r3, lsl #2]
 8007de8:	08007e41 	.word	0x08007e41
 8007dec:	08007e55 	.word	0x08007e55
 8007df0:	08007dd1 	.word	0x08007dd1
 8007df4:	08007dd1 	.word	0x08007dd1
 8007df8:	08007dd1 	.word	0x08007dd1
 8007dfc:	08007dd1 	.word	0x08007dd1
 8007e00:	08007e55 	.word	0x08007e55
 8007e04:	08007dd1 	.word	0x08007dd1
 8007e08:	08007dd1 	.word	0x08007dd1
 8007e0c:	08007dd1 	.word	0x08007dd1
 8007e10:	08007dd1 	.word	0x08007dd1
 8007e14:	08007f53 	.word	0x08007f53
 8007e18:	08007e7f 	.word	0x08007e7f
 8007e1c:	08007f0d 	.word	0x08007f0d
 8007e20:	08007dd1 	.word	0x08007dd1
 8007e24:	08007dd1 	.word	0x08007dd1
 8007e28:	08007f75 	.word	0x08007f75
 8007e2c:	08007dd1 	.word	0x08007dd1
 8007e30:	08007e7f 	.word	0x08007e7f
 8007e34:	08007dd1 	.word	0x08007dd1
 8007e38:	08007dd1 	.word	0x08007dd1
 8007e3c:	08007f15 	.word	0x08007f15
 8007e40:	6833      	ldr	r3, [r6, #0]
 8007e42:	1d1a      	adds	r2, r3, #4
 8007e44:	681b      	ldr	r3, [r3, #0]
 8007e46:	6032      	str	r2, [r6, #0]
 8007e48:	f104 0642 	add.w	r6, r4, #66	@ 0x42
 8007e4c:	f884 3042 	strb.w	r3, [r4, #66]	@ 0x42
 8007e50:	2301      	movs	r3, #1
 8007e52:	e09c      	b.n	8007f8e <_printf_i+0x1e6>
 8007e54:	6833      	ldr	r3, [r6, #0]
 8007e56:	6820      	ldr	r0, [r4, #0]
 8007e58:	1d19      	adds	r1, r3, #4
 8007e5a:	6031      	str	r1, [r6, #0]
 8007e5c:	0606      	lsls	r6, r0, #24
 8007e5e:	d501      	bpl.n	8007e64 <_printf_i+0xbc>
 8007e60:	681d      	ldr	r5, [r3, #0]
 8007e62:	e003      	b.n	8007e6c <_printf_i+0xc4>
 8007e64:	0645      	lsls	r5, r0, #25
 8007e66:	d5fb      	bpl.n	8007e60 <_printf_i+0xb8>
 8007e68:	f9b3 5000 	ldrsh.w	r5, [r3]
 8007e6c:	2d00      	cmp	r5, #0
 8007e6e:	da03      	bge.n	8007e78 <_printf_i+0xd0>
 8007e70:	232d      	movs	r3, #45	@ 0x2d
 8007e72:	426d      	negs	r5, r5
 8007e74:	f884 3043 	strb.w	r3, [r4, #67]	@ 0x43
 8007e78:	4858      	ldr	r0, [pc, #352]	@ (8007fdc <_printf_i+0x234>)
 8007e7a:	230a      	movs	r3, #10
 8007e7c:	e011      	b.n	8007ea2 <_printf_i+0xfa>
 8007e7e:	6821      	ldr	r1, [r4, #0]
 8007e80:	6833      	ldr	r3, [r6, #0]
 8007e82:	0608      	lsls	r0, r1, #24
 8007e84:	f853 5b04 	ldr.w	r5, [r3], #4
 8007e88:	d402      	bmi.n	8007e90 <_printf_i+0xe8>
 8007e8a:	0649      	lsls	r1, r1, #25
 8007e8c:	bf48      	it	mi
 8007e8e:	b2ad      	uxthmi	r5, r5
 8007e90:	2f6f      	cmp	r7, #111	@ 0x6f
 8007e92:	4852      	ldr	r0, [pc, #328]	@ (8007fdc <_printf_i+0x234>)
 8007e94:	6033      	str	r3, [r6, #0]
 8007e96:	bf14      	ite	ne
 8007e98:	230a      	movne	r3, #10
 8007e9a:	2308      	moveq	r3, #8
 8007e9c:	2100      	movs	r1, #0
 8007e9e:	f884 1043 	strb.w	r1, [r4, #67]	@ 0x43
 8007ea2:	6866      	ldr	r6, [r4, #4]
 8007ea4:	60a6      	str	r6, [r4, #8]
 8007ea6:	2e00      	cmp	r6, #0
 8007ea8:	db05      	blt.n	8007eb6 <_printf_i+0x10e>
 8007eaa:	6821      	ldr	r1, [r4, #0]
 8007eac:	432e      	orrs	r6, r5
 8007eae:	f021 0104 	bic.w	r1, r1, #4
 8007eb2:	6021      	str	r1, [r4, #0]
 8007eb4:	d04b      	beq.n	8007f4e <_printf_i+0x1a6>
 8007eb6:	4616      	mov	r6, r2
 8007eb8:	fbb5 f1f3 	udiv	r1, r5, r3
 8007ebc:	fb03 5711 	mls	r7, r3, r1, r5
 8007ec0:	5dc7      	ldrb	r7, [r0, r7]
 8007ec2:	f806 7d01 	strb.w	r7, [r6, #-1]!
 8007ec6:	462f      	mov	r7, r5
 8007ec8:	42bb      	cmp	r3, r7
 8007eca:	460d      	mov	r5, r1
 8007ecc:	d9f4      	bls.n	8007eb8 <_printf_i+0x110>
 8007ece:	2b08      	cmp	r3, #8
 8007ed0:	d10b      	bne.n	8007eea <_printf_i+0x142>
 8007ed2:	6823      	ldr	r3, [r4, #0]
 8007ed4:	07df      	lsls	r7, r3, #31
 8007ed6:	d508      	bpl.n	8007eea <_printf_i+0x142>
 8007ed8:	6923      	ldr	r3, [r4, #16]
 8007eda:	6861      	ldr	r1, [r4, #4]
 8007edc:	4299      	cmp	r1, r3
 8007ede:	bfde      	ittt	le
 8007ee0:	2330      	movle	r3, #48	@ 0x30
 8007ee2:	f806 3c01 	strble.w	r3, [r6, #-1]
 8007ee6:	f106 36ff 	addle.w	r6, r6, #4294967295
 8007eea:	1b92      	subs	r2, r2, r6
 8007eec:	6122      	str	r2, [r4, #16]
 8007eee:	f8cd a000 	str.w	sl, [sp]
 8007ef2:	464b      	mov	r3, r9
 8007ef4:	aa03      	add	r2, sp, #12
 8007ef6:	4621      	mov	r1, r4
 8007ef8:	4640      	mov	r0, r8
 8007efa:	f7ff fee7 	bl	8007ccc <_printf_common>
 8007efe:	3001      	adds	r0, #1
 8007f00:	d14a      	bne.n	8007f98 <_printf_i+0x1f0>
 8007f02:	f04f 30ff 	mov.w	r0, #4294967295
 8007f06:	b004      	add	sp, #16
 8007f08:	e8bd 87f0 	ldmia.w	sp!, {r4, r5, r6, r7, r8, r9, sl, pc}
 8007f0c:	6823      	ldr	r3, [r4, #0]
 8007f0e:	f043 0320 	orr.w	r3, r3, #32
 8007f12:	6023      	str	r3, [r4, #0]
 8007f14:	4832      	ldr	r0, [pc, #200]	@ (8007fe0 <_printf_i+0x238>)
 8007f16:	2778      	movs	r7, #120	@ 0x78
 8007f18:	f884 7045 	strb.w	r7, [r4, #69]	@ 0x45
 8007f1c:	6823      	ldr	r3, [r4, #0]
 8007f1e:	6831      	ldr	r1, [r6, #0]
 8007f20:	061f      	lsls	r7, r3, #24
 8007f22:	f851 5b04 	ldr.w	r5, [r1], #4
 8007f26:	d402      	bmi.n	8007f2e <_printf_i+0x186>
 8007f28:	065f      	lsls	r7, r3, #25
 8007f2a:	bf48      	it	mi
 8007f2c:	b2ad      	uxthmi	r5, r5
 8007f2e:	6031      	str	r1, [r6, #0]
 8007f30:	07d9      	lsls	r1, r3, #31
 8007f32:	bf44      	itt	mi
 8007f34:	f043 0320 	orrmi.w	r3, r3, #32
 8007f38:	6023      	strmi	r3, [r4, #0]
 8007f3a:	b11d      	cbz	r5, 8007f44 <_printf_i+0x19c>
 8007f3c:	2310      	movs	r3, #16
 8007f3e:	e7ad      	b.n	8007e9c <_printf_i+0xf4>
 8007f40:	4826      	ldr	r0, [pc, #152]	@ (8007fdc <_printf_i+0x234>)
 8007f42:	e7e9      	b.n	8007f18 <_printf_i+0x170>
 8007f44:	6823      	ldr	r3, [r4, #0]
 8007f46:	f023 0320 	bic.w	r3, r3, #32
 8007f4a:	6023      	str	r3, [r4, #0]
 8007f4c:	e7f6      	b.n	8007f3c <_printf_i+0x194>
 8007f4e:	4616      	mov	r6, r2
 8007f50:	e7bd      	b.n	8007ece <_printf_i+0x126>
 8007f52:	6833      	ldr	r3, [r6, #0]
 8007f54:	6825      	ldr	r5, [r4, #0]
 8007f56:	6961      	ldr	r1, [r4, #20]
 8007f58:	1d18      	adds	r0, r3, #4
 8007f5a:	6030      	str	r0, [r6, #0]
 8007f5c:	062e      	lsls	r6, r5, #24
 8007f5e:	681b      	ldr	r3, [r3, #0]
 8007f60:	d501      	bpl.n	8007f66 <_printf_i+0x1be>
 8007f62:	6019      	str	r1, [r3, #0]
 8007f64:	e002      	b.n	8007f6c <_printf_i+0x1c4>
 8007f66:	0668      	lsls	r0, r5, #25
 8007f68:	d5fb      	bpl.n	8007f62 <_printf_i+0x1ba>
 8007f6a:	8019      	strh	r1, [r3, #0]
 8007f6c:	2300      	movs	r3, #0
 8007f6e:	6123      	str	r3, [r4, #16]
 8007f70:	4616      	mov	r6, r2
 8007f72:	e7bc      	b.n	8007eee <_printf_i+0x146>
 8007f74:	6833      	ldr	r3, [r6, #0]
 8007f76:	1d1a      	adds	r2, r3, #4
 8007f78:	6032      	str	r2, [r6, #0]
 8007f7a:	681e      	ldr	r6, [r3, #0]
 8007f7c:	6862      	ldr	r2, [r4, #4]
 8007f7e:	2100      	movs	r1, #0
 8007f80:	4630      	mov	r0, r6
 8007f82:	f7f8 f93d 	bl	8000200 <memchr>
 8007f86:	b108      	cbz	r0, 8007f8c <_printf_i+0x1e4>
 8007f88:	1b80      	subs	r0, r0, r6
 8007f8a:	6060      	str	r0, [r4, #4]
 8007f8c:	6863      	ldr	r3, [r4, #4]
 8007f8e:	6123      	str	r3, [r4, #16]
 8007f90:	2300      	movs	r3, #0
 8007f92:	f884 3043 	strb.w	r3, [r4, #67]	@ 0x43
 8007f96:	e7aa      	b.n	8007eee <_printf_i+0x146>
 8007f98:	6923      	ldr	r3, [r4, #16]
 8007f9a:	4632      	mov	r2, r6
 8007f9c:	4649      	mov	r1, r9
 8007f9e:	4640      	mov	r0, r8
 8007fa0:	47d0      	blx	sl
 8007fa2:	3001      	adds	r0, #1
 8007fa4:	d0ad      	beq.n	8007f02 <_printf_i+0x15a>
 8007fa6:	6823      	ldr	r3, [r4, #0]
 8007fa8:	079b      	lsls	r3, r3, #30
 8007faa:	d413      	bmi.n	8007fd4 <_printf_i+0x22c>
 8007fac:	68e0      	ldr	r0, [r4, #12]
 8007fae:	9b03      	ldr	r3, [sp, #12]
 8007fb0:	4298      	cmp	r0, r3
 8007fb2:	bfb8      	it	lt
 8007fb4:	4618      	movlt	r0, r3
 8007fb6:	e7a6      	b.n	8007f06 <_printf_i+0x15e>
 8007fb8:	2301      	movs	r3, #1
 8007fba:	4632      	mov	r2, r6
 8007fbc:	4649      	mov	r1, r9
 8007fbe:	4640      	mov	r0, r8
 8007fc0:	47d0      	blx	sl
 8007fc2:	3001      	adds	r0, #1
 8007fc4:	d09d      	beq.n	8007f02 <_printf_i+0x15a>
 8007fc6:	3501      	adds	r5, #1
 8007fc8:	68e3      	ldr	r3, [r4, #12]
 8007fca:	9903      	ldr	r1, [sp, #12]
 8007fcc:	1a5b      	subs	r3, r3, r1
 8007fce:	42ab      	cmp	r3, r5
 8007fd0:	dcf2      	bgt.n	8007fb8 <_printf_i+0x210>
 8007fd2:	e7eb      	b.n	8007fac <_printf_i+0x204>
 8007fd4:	2500      	movs	r5, #0
 8007fd6:	f104 0619 	add.w	r6, r4, #25
 8007fda:	e7f5      	b.n	8007fc8 <_printf_i+0x220>
 8007fdc:	08008fff 	.word	0x08008fff
 8007fe0:	08009010 	.word	0x08009010

08007fe4 <_scanf_chars>:
 8007fe4:	e92d 43f8 	stmdb	sp!, {r3, r4, r5, r6, r7, r8, r9, lr}
 8007fe8:	4615      	mov	r5, r2
 8007fea:	688a      	ldr	r2, [r1, #8]
 8007fec:	4680      	mov	r8, r0
 8007fee:	460c      	mov	r4, r1
 8007ff0:	b932      	cbnz	r2, 8008000 <_scanf_chars+0x1c>
 8007ff2:	698a      	ldr	r2, [r1, #24]
 8007ff4:	2a00      	cmp	r2, #0
 8007ff6:	bf14      	ite	ne
 8007ff8:	f04f 32ff 	movne.w	r2, #4294967295
 8007ffc:	2201      	moveq	r2, #1
 8007ffe:	608a      	str	r2, [r1, #8]
 8008000:	6822      	ldr	r2, [r4, #0]
 8008002:	f8df 9090 	ldr.w	r9, [pc, #144]	@ 8008094 <_scanf_chars+0xb0>
 8008006:	06d1      	lsls	r1, r2, #27
 8008008:	bf5f      	itttt	pl
 800800a:	681a      	ldrpl	r2, [r3, #0]
 800800c:	1d11      	addpl	r1, r2, #4
 800800e:	6019      	strpl	r1, [r3, #0]
 8008010:	6816      	ldrpl	r6, [r2, #0]
 8008012:	2700      	movs	r7, #0
 8008014:	69a0      	ldr	r0, [r4, #24]
 8008016:	b188      	cbz	r0, 800803c <_scanf_chars+0x58>
 8008018:	2801      	cmp	r0, #1
 800801a:	d107      	bne.n	800802c <_scanf_chars+0x48>
 800801c:	682b      	ldr	r3, [r5, #0]
 800801e:	781a      	ldrb	r2, [r3, #0]
 8008020:	6963      	ldr	r3, [r4, #20]
 8008022:	5c9b      	ldrb	r3, [r3, r2]
 8008024:	b953      	cbnz	r3, 800803c <_scanf_chars+0x58>
 8008026:	2f00      	cmp	r7, #0
 8008028:	d031      	beq.n	800808e <_scanf_chars+0xaa>
 800802a:	e022      	b.n	8008072 <_scanf_chars+0x8e>
 800802c:	2802      	cmp	r0, #2
 800802e:	d120      	bne.n	8008072 <_scanf_chars+0x8e>
 8008030:	682b      	ldr	r3, [r5, #0]
 8008032:	781b      	ldrb	r3, [r3, #0]
 8008034:	f819 3003 	ldrb.w	r3, [r9, r3]
 8008038:	071b      	lsls	r3, r3, #28
 800803a:	d41a      	bmi.n	8008072 <_scanf_chars+0x8e>
 800803c:	6823      	ldr	r3, [r4, #0]
 800803e:	06da      	lsls	r2, r3, #27
 8008040:	bf5e      	ittt	pl
 8008042:	682b      	ldrpl	r3, [r5, #0]
 8008044:	781b      	ldrbpl	r3, [r3, #0]
 8008046:	f806 3b01 	strbpl.w	r3, [r6], #1
 800804a:	682a      	ldr	r2, [r5, #0]
 800804c:	686b      	ldr	r3, [r5, #4]
 800804e:	3201      	adds	r2, #1
 8008050:	602a      	str	r2, [r5, #0]
 8008052:	68a2      	ldr	r2, [r4, #8]
 8008054:	3b01      	subs	r3, #1
 8008056:	3a01      	subs	r2, #1
 8008058:	606b      	str	r3, [r5, #4]
 800805a:	3701      	adds	r7, #1
 800805c:	60a2      	str	r2, [r4, #8]
 800805e:	b142      	cbz	r2, 8008072 <_scanf_chars+0x8e>
 8008060:	2b00      	cmp	r3, #0
 8008062:	dcd7      	bgt.n	8008014 <_scanf_chars+0x30>
 8008064:	f8d4 3180 	ldr.w	r3, [r4, #384]	@ 0x180
 8008068:	4629      	mov	r1, r5
 800806a:	4640      	mov	r0, r8
 800806c:	4798      	blx	r3
 800806e:	2800      	cmp	r0, #0
 8008070:	d0d0      	beq.n	8008014 <_scanf_chars+0x30>
 8008072:	6823      	ldr	r3, [r4, #0]
 8008074:	f013 0310 	ands.w	r3, r3, #16
 8008078:	d105      	bne.n	8008086 <_scanf_chars+0xa2>
 800807a:	68e2      	ldr	r2, [r4, #12]
 800807c:	3201      	adds	r2, #1
 800807e:	60e2      	str	r2, [r4, #12]
 8008080:	69a2      	ldr	r2, [r4, #24]
 8008082:	b102      	cbz	r2, 8008086 <_scanf_chars+0xa2>
 8008084:	7033      	strb	r3, [r6, #0]
 8008086:	6923      	ldr	r3, [r4, #16]
 8008088:	443b      	add	r3, r7
 800808a:	6123      	str	r3, [r4, #16]
 800808c:	2000      	movs	r0, #0
 800808e:	e8bd 83f8 	ldmia.w	sp!, {r3, r4, r5, r6, r7, r8, r9, pc}
 8008092:	bf00      	nop
 8008094:	08009149 	.word	0x08009149

08008098 <_scanf_i>:
 8008098:	e92d 4ff0 	stmdb	sp!, {r4, r5, r6, r7, r8, r9, sl, fp, lr}
 800809c:	4698      	mov	r8, r3
 800809e:	4b74      	ldr	r3, [pc, #464]	@ (8008270 <_scanf_i+0x1d8>)
 80080a0:	460c      	mov	r4, r1
 80080a2:	4682      	mov	sl, r0
 80080a4:	4616      	mov	r6, r2
 80080a6:	e893 0007 	ldmia.w	r3, {r0, r1, r2}
 80080aa:	b087      	sub	sp, #28
 80080ac:	ab03      	add	r3, sp, #12
 80080ae:	e883 0007 	stmia.w	r3, {r0, r1, r2}
 80080b2:	4b70      	ldr	r3, [pc, #448]	@ (8008274 <_scanf_i+0x1dc>)
 80080b4:	69a1      	ldr	r1, [r4, #24]
 80080b6:	4a70      	ldr	r2, [pc, #448]	@ (8008278 <_scanf_i+0x1e0>)
 80080b8:	2903      	cmp	r1, #3
 80080ba:	bf08      	it	eq
 80080bc:	461a      	moveq	r2, r3
 80080be:	68a3      	ldr	r3, [r4, #8]
 80080c0:	9201      	str	r2, [sp, #4]
 80080c2:	1e5a      	subs	r2, r3, #1
 80080c4:	f5b2 7fae 	cmp.w	r2, #348	@ 0x15c
 80080c8:	bf88      	it	hi
 80080ca:	f46f 75ae 	mvnhi.w	r5, #348	@ 0x15c
 80080ce:	4627      	mov	r7, r4
 80080d0:	bf82      	ittt	hi
 80080d2:	eb03 0905 	addhi.w	r9, r3, r5
 80080d6:	f240 135d 	movwhi	r3, #349	@ 0x15d
 80080da:	60a3      	strhi	r3, [r4, #8]
 80080dc:	f857 3b1c 	ldr.w	r3, [r7], #28
 80080e0:	f443 6350 	orr.w	r3, r3, #3328	@ 0xd00
 80080e4:	bf98      	it	ls
 80080e6:	f04f 0900 	movls.w	r9, #0
 80080ea:	6023      	str	r3, [r4, #0]
 80080ec:	463d      	mov	r5, r7
 80080ee:	f04f 0b00 	mov.w	fp, #0
 80080f2:	6831      	ldr	r1, [r6, #0]
 80080f4:	ab03      	add	r3, sp, #12
 80080f6:	7809      	ldrb	r1, [r1, #0]
 80080f8:	f853 002b 	ldr.w	r0, [r3, fp, lsl #2]
 80080fc:	2202      	movs	r2, #2
 80080fe:	f7f8 f87f 	bl	8000200 <memchr>
 8008102:	b328      	cbz	r0, 8008150 <_scanf_i+0xb8>
 8008104:	f1bb 0f01 	cmp.w	fp, #1
 8008108:	d159      	bne.n	80081be <_scanf_i+0x126>
 800810a:	6862      	ldr	r2, [r4, #4]
 800810c:	b92a      	cbnz	r2, 800811a <_scanf_i+0x82>
 800810e:	6822      	ldr	r2, [r4, #0]
 8008110:	2108      	movs	r1, #8
 8008112:	f442 7200 	orr.w	r2, r2, #512	@ 0x200
 8008116:	6061      	str	r1, [r4, #4]
 8008118:	6022      	str	r2, [r4, #0]
 800811a:	6822      	ldr	r2, [r4, #0]
 800811c:	f422 62a0 	bic.w	r2, r2, #1280	@ 0x500
 8008120:	6022      	str	r2, [r4, #0]
 8008122:	68a2      	ldr	r2, [r4, #8]
 8008124:	1e51      	subs	r1, r2, #1
 8008126:	60a1      	str	r1, [r4, #8]
 8008128:	b192      	cbz	r2, 8008150 <_scanf_i+0xb8>
 800812a:	6832      	ldr	r2, [r6, #0]
 800812c:	1c51      	adds	r1, r2, #1
 800812e:	6031      	str	r1, [r6, #0]
 8008130:	7812      	ldrb	r2, [r2, #0]
 8008132:	f805 2b01 	strb.w	r2, [r5], #1
 8008136:	6872      	ldr	r2, [r6, #4]
 8008138:	3a01      	subs	r2, #1
 800813a:	2a00      	cmp	r2, #0
 800813c:	6072      	str	r2, [r6, #4]
 800813e:	dc07      	bgt.n	8008150 <_scanf_i+0xb8>
 8008140:	f8d4 2180 	ldr.w	r2, [r4, #384]	@ 0x180
 8008144:	4631      	mov	r1, r6
 8008146:	4650      	mov	r0, sl
 8008148:	4790      	blx	r2
 800814a:	2800      	cmp	r0, #0
 800814c:	f040 8085 	bne.w	800825a <_scanf_i+0x1c2>
 8008150:	f10b 0b01 	add.w	fp, fp, #1
 8008154:	f1bb 0f03 	cmp.w	fp, #3
 8008158:	d1cb      	bne.n	80080f2 <_scanf_i+0x5a>
 800815a:	6863      	ldr	r3, [r4, #4]
 800815c:	b90b      	cbnz	r3, 8008162 <_scanf_i+0xca>
 800815e:	230a      	movs	r3, #10
 8008160:	6063      	str	r3, [r4, #4]
 8008162:	6863      	ldr	r3, [r4, #4]
 8008164:	4945      	ldr	r1, [pc, #276]	@ (800827c <_scanf_i+0x1e4>)
 8008166:	6960      	ldr	r0, [r4, #20]
 8008168:	1ac9      	subs	r1, r1, r3
 800816a:	f000 f947 	bl	80083fc <__sccl>
 800816e:	f04f 0b00 	mov.w	fp, #0
 8008172:	68a3      	ldr	r3, [r4, #8]
 8008174:	6822      	ldr	r2, [r4, #0]
 8008176:	2b00      	cmp	r3, #0
 8008178:	d03d      	beq.n	80081f6 <_scanf_i+0x15e>
 800817a:	6831      	ldr	r1, [r6, #0]
 800817c:	6960      	ldr	r0, [r4, #20]
 800817e:	f891 c000 	ldrb.w	ip, [r1]
 8008182:	f810 000c 	ldrb.w	r0, [r0, ip]
 8008186:	2800      	cmp	r0, #0
 8008188:	d035      	beq.n	80081f6 <_scanf_i+0x15e>
 800818a:	f1bc 0f30 	cmp.w	ip, #48	@ 0x30
 800818e:	d124      	bne.n	80081da <_scanf_i+0x142>
 8008190:	0510      	lsls	r0, r2, #20
 8008192:	d522      	bpl.n	80081da <_scanf_i+0x142>
 8008194:	f10b 0b01 	add.w	fp, fp, #1
 8008198:	f1b9 0f00 	cmp.w	r9, #0
 800819c:	d003      	beq.n	80081a6 <_scanf_i+0x10e>
 800819e:	3301      	adds	r3, #1
 80081a0:	f109 39ff 	add.w	r9, r9, #4294967295
 80081a4:	60a3      	str	r3, [r4, #8]
 80081a6:	6873      	ldr	r3, [r6, #4]
 80081a8:	3b01      	subs	r3, #1
 80081aa:	2b00      	cmp	r3, #0
 80081ac:	6073      	str	r3, [r6, #4]
 80081ae:	dd1b      	ble.n	80081e8 <_scanf_i+0x150>
 80081b0:	6833      	ldr	r3, [r6, #0]
 80081b2:	3301      	adds	r3, #1
 80081b4:	6033      	str	r3, [r6, #0]
 80081b6:	68a3      	ldr	r3, [r4, #8]
 80081b8:	3b01      	subs	r3, #1
 80081ba:	60a3      	str	r3, [r4, #8]
 80081bc:	e7d9      	b.n	8008172 <_scanf_i+0xda>
 80081be:	f1bb 0f02 	cmp.w	fp, #2
 80081c2:	d1ae      	bne.n	8008122 <_scanf_i+0x8a>
 80081c4:	6822      	ldr	r2, [r4, #0]
 80081c6:	f402 61c0 	and.w	r1, r2, #1536	@ 0x600
 80081ca:	f5b1 7f00 	cmp.w	r1, #512	@ 0x200
 80081ce:	d1c4      	bne.n	800815a <_scanf_i+0xc2>
 80081d0:	2110      	movs	r1, #16
 80081d2:	6061      	str	r1, [r4, #4]
 80081d4:	f442 7280 	orr.w	r2, r2, #256	@ 0x100
 80081d8:	e7a2      	b.n	8008120 <_scanf_i+0x88>
 80081da:	f422 6210 	bic.w	r2, r2, #2304	@ 0x900
 80081de:	6022      	str	r2, [r4, #0]
 80081e0:	780b      	ldrb	r3, [r1, #0]
 80081e2:	f805 3b01 	strb.w	r3, [r5], #1
 80081e6:	e7de      	b.n	80081a6 <_scanf_i+0x10e>
 80081e8:	f8d4 3180 	ldr.w	r3, [r4, #384]	@ 0x180
 80081ec:	4631      	mov	r1, r6
 80081ee:	4650      	mov	r0, sl
 80081f0:	4798      	blx	r3
 80081f2:	2800      	cmp	r0, #0
 80081f4:	d0df      	beq.n	80081b6 <_scanf_i+0x11e>
 80081f6:	6823      	ldr	r3, [r4, #0]
 80081f8:	05d9      	lsls	r1, r3, #23
 80081fa:	d50d      	bpl.n	8008218 <_scanf_i+0x180>
 80081fc:	42bd      	cmp	r5, r7
 80081fe:	d909      	bls.n	8008214 <_scanf_i+0x17c>
 8008200:	f815 1c01 	ldrb.w	r1, [r5, #-1]
 8008204:	f8d4 317c 	ldr.w	r3, [r4, #380]	@ 0x17c
 8008208:	4632      	mov	r2, r6
 800820a:	4650      	mov	r0, sl
 800820c:	4798      	blx	r3
 800820e:	f105 39ff 	add.w	r9, r5, #4294967295
 8008212:	464d      	mov	r5, r9
 8008214:	42bd      	cmp	r5, r7
 8008216:	d028      	beq.n	800826a <_scanf_i+0x1d2>
 8008218:	6822      	ldr	r2, [r4, #0]
 800821a:	f012 0210 	ands.w	r2, r2, #16
 800821e:	d113      	bne.n	8008248 <_scanf_i+0x1b0>
 8008220:	702a      	strb	r2, [r5, #0]
 8008222:	6863      	ldr	r3, [r4, #4]
 8008224:	9e01      	ldr	r6, [sp, #4]
 8008226:	4639      	mov	r1, r7
 8008228:	4650      	mov	r0, sl
 800822a:	47b0      	blx	r6
 800822c:	f8d8 3000 	ldr.w	r3, [r8]
 8008230:	6821      	ldr	r1, [r4, #0]
 8008232:	1d1a      	adds	r2, r3, #4
 8008234:	f8c8 2000 	str.w	r2, [r8]
 8008238:	f011 0f20 	tst.w	r1, #32
 800823c:	681b      	ldr	r3, [r3, #0]
 800823e:	d00f      	beq.n	8008260 <_scanf_i+0x1c8>
 8008240:	6018      	str	r0, [r3, #0]
 8008242:	68e3      	ldr	r3, [r4, #12]
 8008244:	3301      	adds	r3, #1
 8008246:	60e3      	str	r3, [r4, #12]
 8008248:	6923      	ldr	r3, [r4, #16]
 800824a:	1bed      	subs	r5, r5, r7
 800824c:	445d      	add	r5, fp
 800824e:	442b      	add	r3, r5
 8008250:	6123      	str	r3, [r4, #16]
 8008252:	2000      	movs	r0, #0
 8008254:	b007      	add	sp, #28
 8008256:	e8bd 8ff0 	ldmia.w	sp!, {r4, r5, r6, r7, r8, r9, sl, fp, pc}
 800825a:	f04f 0b00 	mov.w	fp, #0
 800825e:	e7ca      	b.n	80081f6 <_scanf_i+0x15e>
 8008260:	07ca      	lsls	r2, r1, #31
 8008262:	bf4c      	ite	mi
 8008264:	8018      	strhmi	r0, [r3, #0]
 8008266:	6018      	strpl	r0, [r3, #0]
 8008268:	e7eb      	b.n	8008242 <_scanf_i+0x1aa>
 800826a:	2001      	movs	r0, #1
 800826c:	e7f2      	b.n	8008254 <_scanf_i+0x1bc>
 800826e:	bf00      	nop
 8008270:	08008ce0 	.word	0x08008ce0
 8008274:	08008699 	.word	0x08008699
 8008278:	08008779 	.word	0x08008779
 800827c:	08009031 	.word	0x08009031

08008280 <__sflush_r>:
 8008280:	f9b1 200c 	ldrsh.w	r2, [r1, #12]
 8008284:	e92d 41f0 	stmdb	sp!, {r4, r5, r6, r7, r8, lr}
 8008288:	0716      	lsls	r6, r2, #28
 800828a:	4605      	mov	r5, r0
 800828c:	460c      	mov	r4, r1
 800828e:	d454      	bmi.n	800833a <__sflush_r+0xba>
 8008290:	684b      	ldr	r3, [r1, #4]
 8008292:	2b00      	cmp	r3, #0
 8008294:	dc02      	bgt.n	800829c <__sflush_r+0x1c>
 8008296:	6c0b      	ldr	r3, [r1, #64]	@ 0x40
 8008298:	2b00      	cmp	r3, #0
 800829a:	dd48      	ble.n	800832e <__sflush_r+0xae>
 800829c:	6ae6      	ldr	r6, [r4, #44]	@ 0x2c
 800829e:	2e00      	cmp	r6, #0
 80082a0:	d045      	beq.n	800832e <__sflush_r+0xae>
 80082a2:	2300      	movs	r3, #0
 80082a4:	f412 5280 	ands.w	r2, r2, #4096	@ 0x1000
 80082a8:	682f      	ldr	r7, [r5, #0]
 80082aa:	6a21      	ldr	r1, [r4, #32]
 80082ac:	602b      	str	r3, [r5, #0]
 80082ae:	d030      	beq.n	8008312 <__sflush_r+0x92>
 80082b0:	6d62      	ldr	r2, [r4, #84]	@ 0x54
 80082b2:	89a3      	ldrh	r3, [r4, #12]
 80082b4:	0759      	lsls	r1, r3, #29
 80082b6:	d505      	bpl.n	80082c4 <__sflush_r+0x44>
 80082b8:	6863      	ldr	r3, [r4, #4]
 80082ba:	1ad2      	subs	r2, r2, r3
 80082bc:	6b63      	ldr	r3, [r4, #52]	@ 0x34
 80082be:	b10b      	cbz	r3, 80082c4 <__sflush_r+0x44>
 80082c0:	6c23      	ldr	r3, [r4, #64]	@ 0x40
 80082c2:	1ad2      	subs	r2, r2, r3
 80082c4:	2300      	movs	r3, #0
 80082c6:	6ae6      	ldr	r6, [r4, #44]	@ 0x2c
 80082c8:	6a21      	ldr	r1, [r4, #32]
 80082ca:	4628      	mov	r0, r5
 80082cc:	47b0      	blx	r6
 80082ce:	1c43      	adds	r3, r0, #1
 80082d0:	89a3      	ldrh	r3, [r4, #12]
 80082d2:	d106      	bne.n	80082e2 <__sflush_r+0x62>
 80082d4:	6829      	ldr	r1, [r5, #0]
 80082d6:	291d      	cmp	r1, #29
 80082d8:	d82b      	bhi.n	8008332 <__sflush_r+0xb2>
 80082da:	4a2a      	ldr	r2, [pc, #168]	@ (8008384 <__sflush_r+0x104>)
 80082dc:	40ca      	lsrs	r2, r1
 80082de:	07d6      	lsls	r6, r2, #31
 80082e0:	d527      	bpl.n	8008332 <__sflush_r+0xb2>
 80082e2:	2200      	movs	r2, #0
 80082e4:	6062      	str	r2, [r4, #4]
 80082e6:	04d9      	lsls	r1, r3, #19
 80082e8:	6922      	ldr	r2, [r4, #16]
 80082ea:	6022      	str	r2, [r4, #0]
 80082ec:	d504      	bpl.n	80082f8 <__sflush_r+0x78>
 80082ee:	1c42      	adds	r2, r0, #1
 80082f0:	d101      	bne.n	80082f6 <__sflush_r+0x76>
 80082f2:	682b      	ldr	r3, [r5, #0]
 80082f4:	b903      	cbnz	r3, 80082f8 <__sflush_r+0x78>
 80082f6:	6560      	str	r0, [r4, #84]	@ 0x54
 80082f8:	6b61      	ldr	r1, [r4, #52]	@ 0x34
 80082fa:	602f      	str	r7, [r5, #0]
 80082fc:	b1b9      	cbz	r1, 800832e <__sflush_r+0xae>
 80082fe:	f104 0344 	add.w	r3, r4, #68	@ 0x44
 8008302:	4299      	cmp	r1, r3
 8008304:	d002      	beq.n	800830c <__sflush_r+0x8c>
 8008306:	4628      	mov	r0, r5
 8008308:	f7ff f8b8 	bl	800747c <_free_r>
 800830c:	2300      	movs	r3, #0
 800830e:	6363      	str	r3, [r4, #52]	@ 0x34
 8008310:	e00d      	b.n	800832e <__sflush_r+0xae>
 8008312:	2301      	movs	r3, #1
 8008314:	4628      	mov	r0, r5
 8008316:	47b0      	blx	r6
 8008318:	4602      	mov	r2, r0
 800831a:	1c50      	adds	r0, r2, #1
 800831c:	d1c9      	bne.n	80082b2 <__sflush_r+0x32>
 800831e:	682b      	ldr	r3, [r5, #0]
 8008320:	2b00      	cmp	r3, #0
 8008322:	d0c6      	beq.n	80082b2 <__sflush_r+0x32>
 8008324:	2b1d      	cmp	r3, #29
 8008326:	d001      	beq.n	800832c <__sflush_r+0xac>
 8008328:	2b16      	cmp	r3, #22
 800832a:	d11e      	bne.n	800836a <__sflush_r+0xea>
 800832c:	602f      	str	r7, [r5, #0]
 800832e:	2000      	movs	r0, #0
 8008330:	e022      	b.n	8008378 <__sflush_r+0xf8>
 8008332:	f043 0340 	orr.w	r3, r3, #64	@ 0x40
 8008336:	b21b      	sxth	r3, r3
 8008338:	e01b      	b.n	8008372 <__sflush_r+0xf2>
 800833a:	690f      	ldr	r7, [r1, #16]
 800833c:	2f00      	cmp	r7, #0
 800833e:	d0f6      	beq.n	800832e <__sflush_r+0xae>
 8008340:	0793      	lsls	r3, r2, #30
 8008342:	680e      	ldr	r6, [r1, #0]
 8008344:	bf08      	it	eq
 8008346:	694b      	ldreq	r3, [r1, #20]
 8008348:	600f      	str	r7, [r1, #0]
 800834a:	bf18      	it	ne
 800834c:	2300      	movne	r3, #0
 800834e:	eba6 0807 	sub.w	r8, r6, r7
 8008352:	608b      	str	r3, [r1, #8]
 8008354:	f1b8 0f00 	cmp.w	r8, #0
 8008358:	dde9      	ble.n	800832e <__sflush_r+0xae>
 800835a:	6a21      	ldr	r1, [r4, #32]
 800835c:	6aa6      	ldr	r6, [r4, #40]	@ 0x28
 800835e:	4643      	mov	r3, r8
 8008360:	463a      	mov	r2, r7
 8008362:	4628      	mov	r0, r5
 8008364:	47b0      	blx	r6
 8008366:	2800      	cmp	r0, #0
 8008368:	dc08      	bgt.n	800837c <__sflush_r+0xfc>
 800836a:	f9b4 300c 	ldrsh.w	r3, [r4, #12]
 800836e:	f043 0340 	orr.w	r3, r3, #64	@ 0x40
 8008372:	81a3      	strh	r3, [r4, #12]
 8008374:	f04f 30ff 	mov.w	r0, #4294967295
 8008378:	e8bd 81f0 	ldmia.w	sp!, {r4, r5, r6, r7, r8, pc}
 800837c:	4407      	add	r7, r0
 800837e:	eba8 0800 	sub.w	r8, r8, r0
 8008382:	e7e7      	b.n	8008354 <__sflush_r+0xd4>
 8008384:	20400001 	.word	0x20400001

08008388 <_fflush_r>:
 8008388:	b538      	push	{r3, r4, r5, lr}
 800838a:	690b      	ldr	r3, [r1, #16]
 800838c:	4605      	mov	r5, r0
 800838e:	460c      	mov	r4, r1
 8008390:	b913      	cbnz	r3, 8008398 <_fflush_r+0x10>
 8008392:	2500      	movs	r5, #0
 8008394:	4628      	mov	r0, r5
 8008396:	bd38      	pop	{r3, r4, r5, pc}
 8008398:	b118      	cbz	r0, 80083a2 <_fflush_r+0x1a>
 800839a:	6a03      	ldr	r3, [r0, #32]
 800839c:	b90b      	cbnz	r3, 80083a2 <_fflush_r+0x1a>
 800839e:	f7fe fe83 	bl	80070a8 <__sinit>
 80083a2:	f9b4 300c 	ldrsh.w	r3, [r4, #12]
 80083a6:	2b00      	cmp	r3, #0
 80083a8:	d0f3      	beq.n	8008392 <_fflush_r+0xa>
 80083aa:	6e62      	ldr	r2, [r4, #100]	@ 0x64
 80083ac:	07d0      	lsls	r0, r2, #31
 80083ae:	d404      	bmi.n	80083ba <_fflush_r+0x32>
 80083b0:	0599      	lsls	r1, r3, #22
 80083b2:	d402      	bmi.n	80083ba <_fflush_r+0x32>
 80083b4:	6da0      	ldr	r0, [r4, #88]	@ 0x58
 80083b6:	f7ff f82a 	bl	800740e <__retarget_lock_acquire_recursive>
 80083ba:	4628      	mov	r0, r5
 80083bc:	4621      	mov	r1, r4
 80083be:	f7ff ff5f 	bl	8008280 <__sflush_r>
 80083c2:	6e63      	ldr	r3, [r4, #100]	@ 0x64
 80083c4:	07da      	lsls	r2, r3, #31
 80083c6:	4605      	mov	r5, r0
 80083c8:	d4e4      	bmi.n	8008394 <_fflush_r+0xc>
 80083ca:	89a3      	ldrh	r3, [r4, #12]
 80083cc:	059b      	lsls	r3, r3, #22
 80083ce:	d4e1      	bmi.n	8008394 <_fflush_r+0xc>
 80083d0:	6da0      	ldr	r0, [r4, #88]	@ 0x58
 80083d2:	f7ff f81d 	bl	8007410 <__retarget_lock_release_recursive>
 80083d6:	e7dd      	b.n	8008394 <_fflush_r+0xc>

080083d8 <fiprintf>:
 80083d8:	b40e      	push	{r1, r2, r3}
 80083da:	b503      	push	{r0, r1, lr}
 80083dc:	4601      	mov	r1, r0
 80083de:	ab03      	add	r3, sp, #12
 80083e0:	4805      	ldr	r0, [pc, #20]	@ (80083f8 <fiprintf+0x20>)
 80083e2:	f853 2b04 	ldr.w	r2, [r3], #4
 80083e6:	6800      	ldr	r0, [r0, #0]
 80083e8:	9301      	str	r3, [sp, #4]
 80083ea:	f000 f9f1 	bl	80087d0 <_vfiprintf_r>
 80083ee:	b002      	add	sp, #8
 80083f0:	f85d eb04 	ldr.w	lr, [sp], #4
 80083f4:	b003      	add	sp, #12
 80083f6:	4770      	bx	lr
 80083f8:	2000042c 	.word	0x2000042c

080083fc <__sccl>:
 80083fc:	b570      	push	{r4, r5, r6, lr}
 80083fe:	780b      	ldrb	r3, [r1, #0]
 8008400:	4604      	mov	r4, r0
 8008402:	2b5e      	cmp	r3, #94	@ 0x5e
 8008404:	bf0b      	itete	eq
 8008406:	784b      	ldrbeq	r3, [r1, #1]
 8008408:	1c4a      	addne	r2, r1, #1
 800840a:	1c8a      	addeq	r2, r1, #2
 800840c:	2100      	movne	r1, #0
 800840e:	bf08      	it	eq
 8008410:	2101      	moveq	r1, #1
 8008412:	3801      	subs	r0, #1
 8008414:	f104 05ff 	add.w	r5, r4, #255	@ 0xff
 8008418:	f800 1f01 	strb.w	r1, [r0, #1]!
 800841c:	42a8      	cmp	r0, r5
 800841e:	d1fb      	bne.n	8008418 <__sccl+0x1c>
 8008420:	b90b      	cbnz	r3, 8008426 <__sccl+0x2a>
 8008422:	1e50      	subs	r0, r2, #1
 8008424:	bd70      	pop	{r4, r5, r6, pc}
 8008426:	f081 0101 	eor.w	r1, r1, #1
 800842a:	54e1      	strb	r1, [r4, r3]
 800842c:	4610      	mov	r0, r2
 800842e:	4602      	mov	r2, r0
 8008430:	f812 5b01 	ldrb.w	r5, [r2], #1
 8008434:	2d2d      	cmp	r5, #45	@ 0x2d
 8008436:	d005      	beq.n	8008444 <__sccl+0x48>
 8008438:	2d5d      	cmp	r5, #93	@ 0x5d
 800843a:	d016      	beq.n	800846a <__sccl+0x6e>
 800843c:	2d00      	cmp	r5, #0
 800843e:	d0f1      	beq.n	8008424 <__sccl+0x28>
 8008440:	462b      	mov	r3, r5
 8008442:	e7f2      	b.n	800842a <__sccl+0x2e>
 8008444:	7846      	ldrb	r6, [r0, #1]
 8008446:	2e5d      	cmp	r6, #93	@ 0x5d
 8008448:	d0fa      	beq.n	8008440 <__sccl+0x44>
 800844a:	42b3      	cmp	r3, r6
 800844c:	dcf8      	bgt.n	8008440 <__sccl+0x44>
 800844e:	3002      	adds	r0, #2
 8008450:	461a      	mov	r2, r3
 8008452:	3201      	adds	r2, #1
 8008454:	4296      	cmp	r6, r2
 8008456:	54a1      	strb	r1, [r4, r2]
 8008458:	dcfb      	bgt.n	8008452 <__sccl+0x56>
 800845a:	1af2      	subs	r2, r6, r3
 800845c:	3a01      	subs	r2, #1
 800845e:	1c5d      	adds	r5, r3, #1
 8008460:	42b3      	cmp	r3, r6
 8008462:	bfa8      	it	ge
 8008464:	2200      	movge	r2, #0
 8008466:	18ab      	adds	r3, r5, r2
 8008468:	e7e1      	b.n	800842e <__sccl+0x32>
 800846a:	4610      	mov	r0, r2
 800846c:	e7da      	b.n	8008424 <__sccl+0x28>

0800846e <__submore>:
 800846e:	e92d 41f0 	stmdb	sp!, {r4, r5, r6, r7, r8, lr}
 8008472:	460c      	mov	r4, r1
 8008474:	6b49      	ldr	r1, [r1, #52]	@ 0x34
 8008476:	f104 0344 	add.w	r3, r4, #68	@ 0x44
 800847a:	4299      	cmp	r1, r3
 800847c:	d11d      	bne.n	80084ba <__submore+0x4c>
 800847e:	f44f 6180 	mov.w	r1, #1024	@ 0x400
 8008482:	f7ff f86f 	bl	8007564 <_malloc_r>
 8008486:	b918      	cbnz	r0, 8008490 <__submore+0x22>
 8008488:	f04f 30ff 	mov.w	r0, #4294967295
 800848c:	e8bd 81f0 	ldmia.w	sp!, {r4, r5, r6, r7, r8, pc}
 8008490:	f44f 6380 	mov.w	r3, #1024	@ 0x400
 8008494:	63a3      	str	r3, [r4, #56]	@ 0x38
 8008496:	f894 3046 	ldrb.w	r3, [r4, #70]	@ 0x46
 800849a:	6360      	str	r0, [r4, #52]	@ 0x34
 800849c:	f880 33ff 	strb.w	r3, [r0, #1023]	@ 0x3ff
 80084a0:	f894 3045 	ldrb.w	r3, [r4, #69]	@ 0x45
 80084a4:	f880 33fe 	strb.w	r3, [r0, #1022]	@ 0x3fe
 80084a8:	f894 3044 	ldrb.w	r3, [r4, #68]	@ 0x44
 80084ac:	f880 33fd 	strb.w	r3, [r0, #1021]	@ 0x3fd
 80084b0:	f200 30fd 	addw	r0, r0, #1021	@ 0x3fd
 80084b4:	6020      	str	r0, [r4, #0]
 80084b6:	2000      	movs	r0, #0
 80084b8:	e7e8      	b.n	800848c <__submore+0x1e>
 80084ba:	6ba6      	ldr	r6, [r4, #56]	@ 0x38
 80084bc:	0077      	lsls	r7, r6, #1
 80084be:	463a      	mov	r2, r7
 80084c0:	f000 f841 	bl	8008546 <_realloc_r>
 80084c4:	4605      	mov	r5, r0
 80084c6:	2800      	cmp	r0, #0
 80084c8:	d0de      	beq.n	8008488 <__submore+0x1a>
 80084ca:	eb00 0806 	add.w	r8, r0, r6
 80084ce:	4601      	mov	r1, r0
 80084d0:	4632      	mov	r2, r6
 80084d2:	4640      	mov	r0, r8
 80084d4:	f7fe ffa5 	bl	8007422 <memcpy>
 80084d8:	e9c4 570d 	strd	r5, r7, [r4, #52]	@ 0x34
 80084dc:	f8c4 8000 	str.w	r8, [r4]
 80084e0:	e7e9      	b.n	80084b6 <__submore+0x48>

080084e2 <memmove>:
 80084e2:	4288      	cmp	r0, r1
 80084e4:	b510      	push	{r4, lr}
 80084e6:	eb01 0402 	add.w	r4, r1, r2
 80084ea:	d902      	bls.n	80084f2 <memmove+0x10>
 80084ec:	4284      	cmp	r4, r0
 80084ee:	4623      	mov	r3, r4
 80084f0:	d807      	bhi.n	8008502 <memmove+0x20>
 80084f2:	1e43      	subs	r3, r0, #1
 80084f4:	42a1      	cmp	r1, r4
 80084f6:	d008      	beq.n	800850a <memmove+0x28>
 80084f8:	f811 2b01 	ldrb.w	r2, [r1], #1
 80084fc:	f803 2f01 	strb.w	r2, [r3, #1]!
 8008500:	e7f8      	b.n	80084f4 <memmove+0x12>
 8008502:	4402      	add	r2, r0
 8008504:	4601      	mov	r1, r0
 8008506:	428a      	cmp	r2, r1
 8008508:	d100      	bne.n	800850c <memmove+0x2a>
 800850a:	bd10      	pop	{r4, pc}
 800850c:	f813 4d01 	ldrb.w	r4, [r3, #-1]!
 8008510:	f802 4d01 	strb.w	r4, [r2, #-1]!
 8008514:	e7f7      	b.n	8008506 <memmove+0x24>
	...

08008518 <_sbrk_r>:
 8008518:	b538      	push	{r3, r4, r5, lr}
 800851a:	4d06      	ldr	r5, [pc, #24]	@ (8008534 <_sbrk_r+0x1c>)
 800851c:	2300      	movs	r3, #0
 800851e:	4604      	mov	r4, r0
 8008520:	4608      	mov	r0, r1
 8008522:	602b      	str	r3, [r5, #0]
 8008524:	f7f9 fc98 	bl	8001e58 <_sbrk>
 8008528:	1c43      	adds	r3, r0, #1
 800852a:	d102      	bne.n	8008532 <_sbrk_r+0x1a>
 800852c:	682b      	ldr	r3, [r5, #0]
 800852e:	b103      	cbz	r3, 8008532 <_sbrk_r+0x1a>
 8008530:	6023      	str	r3, [r4, #0]
 8008532:	bd38      	pop	{r3, r4, r5, pc}
 8008534:	20009418 	.word	0x20009418

08008538 <abort>:
 8008538:	b508      	push	{r3, lr}
 800853a:	2006      	movs	r0, #6
 800853c:	f000 fb1c 	bl	8008b78 <raise>
 8008540:	2001      	movs	r0, #1
 8008542:	f7f9 fc5b 	bl	8001dfc <_exit>

08008546 <_realloc_r>:
 8008546:	e92d 41f0 	stmdb	sp!, {r4, r5, r6, r7, r8, lr}
 800854a:	4607      	mov	r7, r0
 800854c:	4614      	mov	r4, r2
 800854e:	460d      	mov	r5, r1
 8008550:	b921      	cbnz	r1, 800855c <_realloc_r+0x16>
 8008552:	e8bd 41f0 	ldmia.w	sp!, {r4, r5, r6, r7, r8, lr}
 8008556:	4611      	mov	r1, r2
 8008558:	f7ff b804 	b.w	8007564 <_malloc_r>
 800855c:	b92a      	cbnz	r2, 800856a <_realloc_r+0x24>
 800855e:	f7fe ff8d 	bl	800747c <_free_r>
 8008562:	4625      	mov	r5, r4
 8008564:	4628      	mov	r0, r5
 8008566:	e8bd 81f0 	ldmia.w	sp!, {r4, r5, r6, r7, r8, pc}
 800856a:	f000 fb21 	bl	8008bb0 <_malloc_usable_size_r>
 800856e:	4284      	cmp	r4, r0
 8008570:	4606      	mov	r6, r0
 8008572:	d802      	bhi.n	800857a <_realloc_r+0x34>
 8008574:	ebb4 0f50 	cmp.w	r4, r0, lsr #1
 8008578:	d8f4      	bhi.n	8008564 <_realloc_r+0x1e>
 800857a:	4621      	mov	r1, r4
 800857c:	4638      	mov	r0, r7
 800857e:	f7fe fff1 	bl	8007564 <_malloc_r>
 8008582:	4680      	mov	r8, r0
 8008584:	b908      	cbnz	r0, 800858a <_realloc_r+0x44>
 8008586:	4645      	mov	r5, r8
 8008588:	e7ec      	b.n	8008564 <_realloc_r+0x1e>
 800858a:	42b4      	cmp	r4, r6
 800858c:	4622      	mov	r2, r4
 800858e:	4629      	mov	r1, r5
 8008590:	bf28      	it	cs
 8008592:	4632      	movcs	r2, r6
 8008594:	f7fe ff45 	bl	8007422 <memcpy>
 8008598:	4629      	mov	r1, r5
 800859a:	4638      	mov	r0, r7
 800859c:	f7fe ff6e 	bl	800747c <_free_r>
 80085a0:	e7f1      	b.n	8008586 <_realloc_r+0x40>
	...

080085a4 <_strtol_l.isra.0>:
 80085a4:	2b24      	cmp	r3, #36	@ 0x24
 80085a6:	e92d 47f0 	stmdb	sp!, {r4, r5, r6, r7, r8, r9, sl, lr}
 80085aa:	4686      	mov	lr, r0
 80085ac:	4690      	mov	r8, r2
 80085ae:	d801      	bhi.n	80085b4 <_strtol_l.isra.0+0x10>
 80085b0:	2b01      	cmp	r3, #1
 80085b2:	d106      	bne.n	80085c2 <_strtol_l.isra.0+0x1e>
 80085b4:	f7fe ff00 	bl	80073b8 <__errno>
 80085b8:	2316      	movs	r3, #22
 80085ba:	6003      	str	r3, [r0, #0]
 80085bc:	2000      	movs	r0, #0
 80085be:	e8bd 87f0 	ldmia.w	sp!, {r4, r5, r6, r7, r8, r9, sl, pc}
 80085c2:	4834      	ldr	r0, [pc, #208]	@ (8008694 <_strtol_l.isra.0+0xf0>)
 80085c4:	460d      	mov	r5, r1
 80085c6:	462a      	mov	r2, r5
 80085c8:	f815 4b01 	ldrb.w	r4, [r5], #1
 80085cc:	5d06      	ldrb	r6, [r0, r4]
 80085ce:	f016 0608 	ands.w	r6, r6, #8
 80085d2:	d1f8      	bne.n	80085c6 <_strtol_l.isra.0+0x22>
 80085d4:	2c2d      	cmp	r4, #45	@ 0x2d
 80085d6:	d110      	bne.n	80085fa <_strtol_l.isra.0+0x56>
 80085d8:	782c      	ldrb	r4, [r5, #0]
 80085da:	2601      	movs	r6, #1
 80085dc:	1c95      	adds	r5, r2, #2
 80085de:	f033 0210 	bics.w	r2, r3, #16
 80085e2:	d115      	bne.n	8008610 <_strtol_l.isra.0+0x6c>
 80085e4:	2c30      	cmp	r4, #48	@ 0x30
 80085e6:	d10d      	bne.n	8008604 <_strtol_l.isra.0+0x60>
 80085e8:	782a      	ldrb	r2, [r5, #0]
 80085ea:	f002 02df 	and.w	r2, r2, #223	@ 0xdf
 80085ee:	2a58      	cmp	r2, #88	@ 0x58
 80085f0:	d108      	bne.n	8008604 <_strtol_l.isra.0+0x60>
 80085f2:	786c      	ldrb	r4, [r5, #1]
 80085f4:	3502      	adds	r5, #2
 80085f6:	2310      	movs	r3, #16
 80085f8:	e00a      	b.n	8008610 <_strtol_l.isra.0+0x6c>
 80085fa:	2c2b      	cmp	r4, #43	@ 0x2b
 80085fc:	bf04      	itt	eq
 80085fe:	782c      	ldrbeq	r4, [r5, #0]
 8008600:	1c95      	addeq	r5, r2, #2
 8008602:	e7ec      	b.n	80085de <_strtol_l.isra.0+0x3a>
 8008604:	2b00      	cmp	r3, #0
 8008606:	d1f6      	bne.n	80085f6 <_strtol_l.isra.0+0x52>
 8008608:	2c30      	cmp	r4, #48	@ 0x30
 800860a:	bf14      	ite	ne
 800860c:	230a      	movne	r3, #10
 800860e:	2308      	moveq	r3, #8
 8008610:	f106 4c00 	add.w	ip, r6, #2147483648	@ 0x80000000
 8008614:	f10c 3cff 	add.w	ip, ip, #4294967295
 8008618:	2200      	movs	r2, #0
 800861a:	fbbc f9f3 	udiv	r9, ip, r3
 800861e:	4610      	mov	r0, r2
 8008620:	fb03 ca19 	mls	sl, r3, r9, ip
 8008624:	f1a4 0730 	sub.w	r7, r4, #48	@ 0x30
 8008628:	2f09      	cmp	r7, #9
 800862a:	d80f      	bhi.n	800864c <_strtol_l.isra.0+0xa8>
 800862c:	463c      	mov	r4, r7
 800862e:	42a3      	cmp	r3, r4
 8008630:	dd1b      	ble.n	800866a <_strtol_l.isra.0+0xc6>
 8008632:	1c57      	adds	r7, r2, #1
 8008634:	d007      	beq.n	8008646 <_strtol_l.isra.0+0xa2>
 8008636:	4581      	cmp	r9, r0
 8008638:	d314      	bcc.n	8008664 <_strtol_l.isra.0+0xc0>
 800863a:	d101      	bne.n	8008640 <_strtol_l.isra.0+0x9c>
 800863c:	45a2      	cmp	sl, r4
 800863e:	db11      	blt.n	8008664 <_strtol_l.isra.0+0xc0>
 8008640:	fb00 4003 	mla	r0, r0, r3, r4
 8008644:	2201      	movs	r2, #1
 8008646:	f815 4b01 	ldrb.w	r4, [r5], #1
 800864a:	e7eb      	b.n	8008624 <_strtol_l.isra.0+0x80>
 800864c:	f1a4 0741 	sub.w	r7, r4, #65	@ 0x41
 8008650:	2f19      	cmp	r7, #25
 8008652:	d801      	bhi.n	8008658 <_strtol_l.isra.0+0xb4>
 8008654:	3c37      	subs	r4, #55	@ 0x37
 8008656:	e7ea      	b.n	800862e <_strtol_l.isra.0+0x8a>
 8008658:	f1a4 0761 	sub.w	r7, r4, #97	@ 0x61
 800865c:	2f19      	cmp	r7, #25
 800865e:	d804      	bhi.n	800866a <_strtol_l.isra.0+0xc6>
 8008660:	3c57      	subs	r4, #87	@ 0x57
 8008662:	e7e4      	b.n	800862e <_strtol_l.isra.0+0x8a>
 8008664:	f04f 32ff 	mov.w	r2, #4294967295
 8008668:	e7ed      	b.n	8008646 <_strtol_l.isra.0+0xa2>
 800866a:	1c53      	adds	r3, r2, #1
 800866c:	d108      	bne.n	8008680 <_strtol_l.isra.0+0xdc>
 800866e:	2322      	movs	r3, #34	@ 0x22
 8008670:	f8ce 3000 	str.w	r3, [lr]
 8008674:	4660      	mov	r0, ip
 8008676:	f1b8 0f00 	cmp.w	r8, #0
 800867a:	d0a0      	beq.n	80085be <_strtol_l.isra.0+0x1a>
 800867c:	1e69      	subs	r1, r5, #1
 800867e:	e006      	b.n	800868e <_strtol_l.isra.0+0xea>
 8008680:	b106      	cbz	r6, 8008684 <_strtol_l.isra.0+0xe0>
 8008682:	4240      	negs	r0, r0
 8008684:	f1b8 0f00 	cmp.w	r8, #0
 8008688:	d099      	beq.n	80085be <_strtol_l.isra.0+0x1a>
 800868a:	2a00      	cmp	r2, #0
 800868c:	d1f6      	bne.n	800867c <_strtol_l.isra.0+0xd8>
 800868e:	f8c8 1000 	str.w	r1, [r8]
 8008692:	e794      	b.n	80085be <_strtol_l.isra.0+0x1a>
 8008694:	08009149 	.word	0x08009149

08008698 <_strtol_r>:
 8008698:	f7ff bf84 	b.w	80085a4 <_strtol_l.isra.0>

0800869c <_strtoul_l.isra.0>:
 800869c:	e92d 43f0 	stmdb	sp!, {r4, r5, r6, r7, r8, r9, lr}
 80086a0:	4e34      	ldr	r6, [pc, #208]	@ (8008774 <_strtoul_l.isra.0+0xd8>)
 80086a2:	4686      	mov	lr, r0
 80086a4:	460d      	mov	r5, r1
 80086a6:	4628      	mov	r0, r5
 80086a8:	f815 4b01 	ldrb.w	r4, [r5], #1
 80086ac:	5d37      	ldrb	r7, [r6, r4]
 80086ae:	f017 0708 	ands.w	r7, r7, #8
 80086b2:	d1f8      	bne.n	80086a6 <_strtoul_l.isra.0+0xa>
 80086b4:	2c2d      	cmp	r4, #45	@ 0x2d
 80086b6:	d110      	bne.n	80086da <_strtoul_l.isra.0+0x3e>
 80086b8:	782c      	ldrb	r4, [r5, #0]
 80086ba:	2701      	movs	r7, #1
 80086bc:	1c85      	adds	r5, r0, #2
 80086be:	f033 0010 	bics.w	r0, r3, #16
 80086c2:	d115      	bne.n	80086f0 <_strtoul_l.isra.0+0x54>
 80086c4:	2c30      	cmp	r4, #48	@ 0x30
 80086c6:	d10d      	bne.n	80086e4 <_strtoul_l.isra.0+0x48>
 80086c8:	7828      	ldrb	r0, [r5, #0]
 80086ca:	f000 00df 	and.w	r0, r0, #223	@ 0xdf
 80086ce:	2858      	cmp	r0, #88	@ 0x58
 80086d0:	d108      	bne.n	80086e4 <_strtoul_l.isra.0+0x48>
 80086d2:	786c      	ldrb	r4, [r5, #1]
 80086d4:	3502      	adds	r5, #2
 80086d6:	2310      	movs	r3, #16
 80086d8:	e00a      	b.n	80086f0 <_strtoul_l.isra.0+0x54>
 80086da:	2c2b      	cmp	r4, #43	@ 0x2b
 80086dc:	bf04      	itt	eq
 80086de:	782c      	ldrbeq	r4, [r5, #0]
 80086e0:	1c85      	addeq	r5, r0, #2
 80086e2:	e7ec      	b.n	80086be <_strtoul_l.isra.0+0x22>
 80086e4:	2b00      	cmp	r3, #0
 80086e6:	d1f6      	bne.n	80086d6 <_strtoul_l.isra.0+0x3a>
 80086e8:	2c30      	cmp	r4, #48	@ 0x30
 80086ea:	bf14      	ite	ne
 80086ec:	230a      	movne	r3, #10
 80086ee:	2308      	moveq	r3, #8
 80086f0:	f04f 38ff 	mov.w	r8, #4294967295
 80086f4:	2600      	movs	r6, #0
 80086f6:	fbb8 f8f3 	udiv	r8, r8, r3
 80086fa:	fb03 f908 	mul.w	r9, r3, r8
 80086fe:	ea6f 0909 	mvn.w	r9, r9
 8008702:	4630      	mov	r0, r6
 8008704:	f1a4 0c30 	sub.w	ip, r4, #48	@ 0x30
 8008708:	f1bc 0f09 	cmp.w	ip, #9
 800870c:	d810      	bhi.n	8008730 <_strtoul_l.isra.0+0x94>
 800870e:	4664      	mov	r4, ip
 8008710:	42a3      	cmp	r3, r4
 8008712:	dd1e      	ble.n	8008752 <_strtoul_l.isra.0+0xb6>
 8008714:	f1b6 3fff 	cmp.w	r6, #4294967295
 8008718:	d007      	beq.n	800872a <_strtoul_l.isra.0+0x8e>
 800871a:	4580      	cmp	r8, r0
 800871c:	d316      	bcc.n	800874c <_strtoul_l.isra.0+0xb0>
 800871e:	d101      	bne.n	8008724 <_strtoul_l.isra.0+0x88>
 8008720:	45a1      	cmp	r9, r4
 8008722:	db13      	blt.n	800874c <_strtoul_l.isra.0+0xb0>
 8008724:	fb00 4003 	mla	r0, r0, r3, r4
 8008728:	2601      	movs	r6, #1
 800872a:	f815 4b01 	ldrb.w	r4, [r5], #1
 800872e:	e7e9      	b.n	8008704 <_strtoul_l.isra.0+0x68>
 8008730:	f1a4 0c41 	sub.w	ip, r4, #65	@ 0x41
 8008734:	f1bc 0f19 	cmp.w	ip, #25
 8008738:	d801      	bhi.n	800873e <_strtoul_l.isra.0+0xa2>
 800873a:	3c37      	subs	r4, #55	@ 0x37
 800873c:	e7e8      	b.n	8008710 <_strtoul_l.isra.0+0x74>
 800873e:	f1a4 0c61 	sub.w	ip, r4, #97	@ 0x61
 8008742:	f1bc 0f19 	cmp.w	ip, #25
 8008746:	d804      	bhi.n	8008752 <_strtoul_l.isra.0+0xb6>
 8008748:	3c57      	subs	r4, #87	@ 0x57
 800874a:	e7e1      	b.n	8008710 <_strtoul_l.isra.0+0x74>
 800874c:	f04f 36ff 	mov.w	r6, #4294967295
 8008750:	e7eb      	b.n	800872a <_strtoul_l.isra.0+0x8e>
 8008752:	1c73      	adds	r3, r6, #1
 8008754:	d106      	bne.n	8008764 <_strtoul_l.isra.0+0xc8>
 8008756:	2322      	movs	r3, #34	@ 0x22
 8008758:	f8ce 3000 	str.w	r3, [lr]
 800875c:	4630      	mov	r0, r6
 800875e:	b932      	cbnz	r2, 800876e <_strtoul_l.isra.0+0xd2>
 8008760:	e8bd 83f0 	ldmia.w	sp!, {r4, r5, r6, r7, r8, r9, pc}
 8008764:	b107      	cbz	r7, 8008768 <_strtoul_l.isra.0+0xcc>
 8008766:	4240      	negs	r0, r0
 8008768:	2a00      	cmp	r2, #0
 800876a:	d0f9      	beq.n	8008760 <_strtoul_l.isra.0+0xc4>
 800876c:	b106      	cbz	r6, 8008770 <_strtoul_l.isra.0+0xd4>
 800876e:	1e69      	subs	r1, r5, #1
 8008770:	6011      	str	r1, [r2, #0]
 8008772:	e7f5      	b.n	8008760 <_strtoul_l.isra.0+0xc4>
 8008774:	08009149 	.word	0x08009149

08008778 <_strtoul_r>:
 8008778:	f7ff bf90 	b.w	800869c <_strtoul_l.isra.0>

0800877c <__sfputc_r>:
 800877c:	6893      	ldr	r3, [r2, #8]
 800877e:	3b01      	subs	r3, #1
 8008780:	2b00      	cmp	r3, #0
 8008782:	b410      	push	{r4}
 8008784:	6093      	str	r3, [r2, #8]
 8008786:	da08      	bge.n	800879a <__sfputc_r+0x1e>
 8008788:	6994      	ldr	r4, [r2, #24]
 800878a:	42a3      	cmp	r3, r4
 800878c:	db01      	blt.n	8008792 <__sfputc_r+0x16>
 800878e:	290a      	cmp	r1, #10
 8008790:	d103      	bne.n	800879a <__sfputc_r+0x1e>
 8008792:	f85d 4b04 	ldr.w	r4, [sp], #4
 8008796:	f000 b933 	b.w	8008a00 <__swbuf_r>
 800879a:	6813      	ldr	r3, [r2, #0]
 800879c:	1c58      	adds	r0, r3, #1
 800879e:	6010      	str	r0, [r2, #0]
 80087a0:	7019      	strb	r1, [r3, #0]
 80087a2:	4608      	mov	r0, r1
 80087a4:	f85d 4b04 	ldr.w	r4, [sp], #4
 80087a8:	4770      	bx	lr

080087aa <__sfputs_r>:
 80087aa:	b5f8      	push	{r3, r4, r5, r6, r7, lr}
 80087ac:	4606      	mov	r6, r0
 80087ae:	460f      	mov	r7, r1
 80087b0:	4614      	mov	r4, r2
 80087b2:	18d5      	adds	r5, r2, r3
 80087b4:	42ac      	cmp	r4, r5
 80087b6:	d101      	bne.n	80087bc <__sfputs_r+0x12>
 80087b8:	2000      	movs	r0, #0
 80087ba:	e007      	b.n	80087cc <__sfputs_r+0x22>
 80087bc:	f814 1b01 	ldrb.w	r1, [r4], #1
 80087c0:	463a      	mov	r2, r7
 80087c2:	4630      	mov	r0, r6
 80087c4:	f7ff ffda 	bl	800877c <__sfputc_r>
 80087c8:	1c43      	adds	r3, r0, #1
 80087ca:	d1f3      	bne.n	80087b4 <__sfputs_r+0xa>
 80087cc:	bdf8      	pop	{r3, r4, r5, r6, r7, pc}
	...

080087d0 <_vfiprintf_r>:
 80087d0:	e92d 4ff0 	stmdb	sp!, {r4, r5, r6, r7, r8, r9, sl, fp, lr}
 80087d4:	460d      	mov	r5, r1
 80087d6:	b09d      	sub	sp, #116	@ 0x74
 80087d8:	4614      	mov	r4, r2
 80087da:	4698      	mov	r8, r3
 80087dc:	4606      	mov	r6, r0
 80087de:	b118      	cbz	r0, 80087e8 <_vfiprintf_r+0x18>
 80087e0:	6a03      	ldr	r3, [r0, #32]
 80087e2:	b90b      	cbnz	r3, 80087e8 <_vfiprintf_r+0x18>
 80087e4:	f7fe fc60 	bl	80070a8 <__sinit>
 80087e8:	6e6b      	ldr	r3, [r5, #100]	@ 0x64
 80087ea:	07d9      	lsls	r1, r3, #31
 80087ec:	d405      	bmi.n	80087fa <_vfiprintf_r+0x2a>
 80087ee:	89ab      	ldrh	r3, [r5, #12]
 80087f0:	059a      	lsls	r2, r3, #22
 80087f2:	d402      	bmi.n	80087fa <_vfiprintf_r+0x2a>
 80087f4:	6da8      	ldr	r0, [r5, #88]	@ 0x58
 80087f6:	f7fe fe0a 	bl	800740e <__retarget_lock_acquire_recursive>
 80087fa:	89ab      	ldrh	r3, [r5, #12]
 80087fc:	071b      	lsls	r3, r3, #28
 80087fe:	d501      	bpl.n	8008804 <_vfiprintf_r+0x34>
 8008800:	692b      	ldr	r3, [r5, #16]
 8008802:	b99b      	cbnz	r3, 800882c <_vfiprintf_r+0x5c>
 8008804:	4629      	mov	r1, r5
 8008806:	4630      	mov	r0, r6
 8008808:	f000 f938 	bl	8008a7c <__swsetup_r>
 800880c:	b170      	cbz	r0, 800882c <_vfiprintf_r+0x5c>
 800880e:	6e6b      	ldr	r3, [r5, #100]	@ 0x64
 8008810:	07dc      	lsls	r4, r3, #31
 8008812:	d504      	bpl.n	800881e <_vfiprintf_r+0x4e>
 8008814:	f04f 30ff 	mov.w	r0, #4294967295
 8008818:	b01d      	add	sp, #116	@ 0x74
 800881a:	e8bd 8ff0 	ldmia.w	sp!, {r4, r5, r6, r7, r8, r9, sl, fp, pc}
 800881e:	89ab      	ldrh	r3, [r5, #12]
 8008820:	0598      	lsls	r0, r3, #22
 8008822:	d4f7      	bmi.n	8008814 <_vfiprintf_r+0x44>
 8008824:	6da8      	ldr	r0, [r5, #88]	@ 0x58
 8008826:	f7fe fdf3 	bl	8007410 <__retarget_lock_release_recursive>
 800882a:	e7f3      	b.n	8008814 <_vfiprintf_r+0x44>
 800882c:	2300      	movs	r3, #0
 800882e:	9309      	str	r3, [sp, #36]	@ 0x24
 8008830:	2320      	movs	r3, #32
 8008832:	f88d 3029 	strb.w	r3, [sp, #41]	@ 0x29
 8008836:	f8cd 800c 	str.w	r8, [sp, #12]
 800883a:	2330      	movs	r3, #48	@ 0x30
 800883c:	f8df 81ac 	ldr.w	r8, [pc, #428]	@ 80089ec <_vfiprintf_r+0x21c>
 8008840:	f88d 302a 	strb.w	r3, [sp, #42]	@ 0x2a
 8008844:	f04f 0901 	mov.w	r9, #1
 8008848:	4623      	mov	r3, r4
 800884a:	469a      	mov	sl, r3
 800884c:	f813 2b01 	ldrb.w	r2, [r3], #1
 8008850:	b10a      	cbz	r2, 8008856 <_vfiprintf_r+0x86>
 8008852:	2a25      	cmp	r2, #37	@ 0x25
 8008854:	d1f9      	bne.n	800884a <_vfiprintf_r+0x7a>
 8008856:	ebba 0b04 	subs.w	fp, sl, r4
 800885a:	d00b      	beq.n	8008874 <_vfiprintf_r+0xa4>
 800885c:	465b      	mov	r3, fp
 800885e:	4622      	mov	r2, r4
 8008860:	4629      	mov	r1, r5
 8008862:	4630      	mov	r0, r6
 8008864:	f7ff ffa1 	bl	80087aa <__sfputs_r>
 8008868:	3001      	adds	r0, #1
 800886a:	f000 80a7 	beq.w	80089bc <_vfiprintf_r+0x1ec>
 800886e:	9a09      	ldr	r2, [sp, #36]	@ 0x24
 8008870:	445a      	add	r2, fp
 8008872:	9209      	str	r2, [sp, #36]	@ 0x24
 8008874:	f89a 3000 	ldrb.w	r3, [sl]
 8008878:	2b00      	cmp	r3, #0
 800887a:	f000 809f 	beq.w	80089bc <_vfiprintf_r+0x1ec>
 800887e:	2300      	movs	r3, #0
 8008880:	f04f 32ff 	mov.w	r2, #4294967295
 8008884:	e9cd 2305 	strd	r2, r3, [sp, #20]
 8008888:	f10a 0a01 	add.w	sl, sl, #1
 800888c:	9304      	str	r3, [sp, #16]
 800888e:	9307      	str	r3, [sp, #28]
 8008890:	f88d 3053 	strb.w	r3, [sp, #83]	@ 0x53
 8008894:	931a      	str	r3, [sp, #104]	@ 0x68
 8008896:	4654      	mov	r4, sl
 8008898:	2205      	movs	r2, #5
 800889a:	f814 1b01 	ldrb.w	r1, [r4], #1
 800889e:	4853      	ldr	r0, [pc, #332]	@ (80089ec <_vfiprintf_r+0x21c>)
 80088a0:	f7f7 fcae 	bl	8000200 <memchr>
 80088a4:	9a04      	ldr	r2, [sp, #16]
 80088a6:	b9d8      	cbnz	r0, 80088e0 <_vfiprintf_r+0x110>
 80088a8:	06d1      	lsls	r1, r2, #27
 80088aa:	bf44      	itt	mi
 80088ac:	2320      	movmi	r3, #32
 80088ae:	f88d 3053 	strbmi.w	r3, [sp, #83]	@ 0x53
 80088b2:	0713      	lsls	r3, r2, #28
 80088b4:	bf44      	itt	mi
 80088b6:	232b      	movmi	r3, #43	@ 0x2b
 80088b8:	f88d 3053 	strbmi.w	r3, [sp, #83]	@ 0x53
 80088bc:	f89a 3000 	ldrb.w	r3, [sl]
 80088c0:	2b2a      	cmp	r3, #42	@ 0x2a
 80088c2:	d015      	beq.n	80088f0 <_vfiprintf_r+0x120>
 80088c4:	9a07      	ldr	r2, [sp, #28]
 80088c6:	4654      	mov	r4, sl
 80088c8:	2000      	movs	r0, #0
 80088ca:	f04f 0c0a 	mov.w	ip, #10
 80088ce:	4621      	mov	r1, r4
 80088d0:	f811 3b01 	ldrb.w	r3, [r1], #1
 80088d4:	3b30      	subs	r3, #48	@ 0x30
 80088d6:	2b09      	cmp	r3, #9
 80088d8:	d94b      	bls.n	8008972 <_vfiprintf_r+0x1a2>
 80088da:	b1b0      	cbz	r0, 800890a <_vfiprintf_r+0x13a>
 80088dc:	9207      	str	r2, [sp, #28]
 80088de:	e014      	b.n	800890a <_vfiprintf_r+0x13a>
 80088e0:	eba0 0308 	sub.w	r3, r0, r8
 80088e4:	fa09 f303 	lsl.w	r3, r9, r3
 80088e8:	4313      	orrs	r3, r2
 80088ea:	9304      	str	r3, [sp, #16]
 80088ec:	46a2      	mov	sl, r4
 80088ee:	e7d2      	b.n	8008896 <_vfiprintf_r+0xc6>
 80088f0:	9b03      	ldr	r3, [sp, #12]
 80088f2:	1d19      	adds	r1, r3, #4
 80088f4:	681b      	ldr	r3, [r3, #0]
 80088f6:	9103      	str	r1, [sp, #12]
 80088f8:	2b00      	cmp	r3, #0
 80088fa:	bfbb      	ittet	lt
 80088fc:	425b      	neglt	r3, r3
 80088fe:	f042 0202 	orrlt.w	r2, r2, #2
 8008902:	9307      	strge	r3, [sp, #28]
 8008904:	9307      	strlt	r3, [sp, #28]
 8008906:	bfb8      	it	lt
 8008908:	9204      	strlt	r2, [sp, #16]
 800890a:	7823      	ldrb	r3, [r4, #0]
 800890c:	2b2e      	cmp	r3, #46	@ 0x2e
 800890e:	d10a      	bne.n	8008926 <_vfiprintf_r+0x156>
 8008910:	7863      	ldrb	r3, [r4, #1]
 8008912:	2b2a      	cmp	r3, #42	@ 0x2a
 8008914:	d132      	bne.n	800897c <_vfiprintf_r+0x1ac>
 8008916:	9b03      	ldr	r3, [sp, #12]
 8008918:	1d1a      	adds	r2, r3, #4
 800891a:	681b      	ldr	r3, [r3, #0]
 800891c:	9203      	str	r2, [sp, #12]
 800891e:	ea43 73e3 	orr.w	r3, r3, r3, asr #31
 8008922:	3402      	adds	r4, #2
 8008924:	9305      	str	r3, [sp, #20]
 8008926:	f8df a0d4 	ldr.w	sl, [pc, #212]	@ 80089fc <_vfiprintf_r+0x22c>
 800892a:	7821      	ldrb	r1, [r4, #0]
 800892c:	2203      	movs	r2, #3
 800892e:	4650      	mov	r0, sl
 8008930:	f7f7 fc66 	bl	8000200 <memchr>
 8008934:	b138      	cbz	r0, 8008946 <_vfiprintf_r+0x176>
 8008936:	9b04      	ldr	r3, [sp, #16]
 8008938:	eba0 000a 	sub.w	r0, r0, sl
 800893c:	2240      	movs	r2, #64	@ 0x40
 800893e:	4082      	lsls	r2, r0
 8008940:	4313      	orrs	r3, r2
 8008942:	3401      	adds	r4, #1
 8008944:	9304      	str	r3, [sp, #16]
 8008946:	f814 1b01 	ldrb.w	r1, [r4], #1
 800894a:	4829      	ldr	r0, [pc, #164]	@ (80089f0 <_vfiprintf_r+0x220>)
 800894c:	f88d 1028 	strb.w	r1, [sp, #40]	@ 0x28
 8008950:	2206      	movs	r2, #6
 8008952:	f7f7 fc55 	bl	8000200 <memchr>
 8008956:	2800      	cmp	r0, #0
 8008958:	d03f      	beq.n	80089da <_vfiprintf_r+0x20a>
 800895a:	4b26      	ldr	r3, [pc, #152]	@ (80089f4 <_vfiprintf_r+0x224>)
 800895c:	bb1b      	cbnz	r3, 80089a6 <_vfiprintf_r+0x1d6>
 800895e:	9b03      	ldr	r3, [sp, #12]
 8008960:	3307      	adds	r3, #7
 8008962:	f023 0307 	bic.w	r3, r3, #7
 8008966:	3308      	adds	r3, #8
 8008968:	9303      	str	r3, [sp, #12]
 800896a:	9b09      	ldr	r3, [sp, #36]	@ 0x24
 800896c:	443b      	add	r3, r7
 800896e:	9309      	str	r3, [sp, #36]	@ 0x24
 8008970:	e76a      	b.n	8008848 <_vfiprintf_r+0x78>
 8008972:	fb0c 3202 	mla	r2, ip, r2, r3
 8008976:	460c      	mov	r4, r1
 8008978:	2001      	movs	r0, #1
 800897a:	e7a8      	b.n	80088ce <_vfiprintf_r+0xfe>
 800897c:	2300      	movs	r3, #0
 800897e:	3401      	adds	r4, #1
 8008980:	9305      	str	r3, [sp, #20]
 8008982:	4619      	mov	r1, r3
 8008984:	f04f 0c0a 	mov.w	ip, #10
 8008988:	4620      	mov	r0, r4
 800898a:	f810 2b01 	ldrb.w	r2, [r0], #1
 800898e:	3a30      	subs	r2, #48	@ 0x30
 8008990:	2a09      	cmp	r2, #9
 8008992:	d903      	bls.n	800899c <_vfiprintf_r+0x1cc>
 8008994:	2b00      	cmp	r3, #0
 8008996:	d0c6      	beq.n	8008926 <_vfiprintf_r+0x156>
 8008998:	9105      	str	r1, [sp, #20]
 800899a:	e7c4      	b.n	8008926 <_vfiprintf_r+0x156>
 800899c:	fb0c 2101 	mla	r1, ip, r1, r2
 80089a0:	4604      	mov	r4, r0
 80089a2:	2301      	movs	r3, #1
 80089a4:	e7f0      	b.n	8008988 <_vfiprintf_r+0x1b8>
 80089a6:	ab03      	add	r3, sp, #12
 80089a8:	9300      	str	r3, [sp, #0]
 80089aa:	462a      	mov	r2, r5
 80089ac:	4b12      	ldr	r3, [pc, #72]	@ (80089f8 <_vfiprintf_r+0x228>)
 80089ae:	a904      	add	r1, sp, #16
 80089b0:	4630      	mov	r0, r6
 80089b2:	f3af 8000 	nop.w
 80089b6:	4607      	mov	r7, r0
 80089b8:	1c78      	adds	r0, r7, #1
 80089ba:	d1d6      	bne.n	800896a <_vfiprintf_r+0x19a>
 80089bc:	6e6b      	ldr	r3, [r5, #100]	@ 0x64
 80089be:	07d9      	lsls	r1, r3, #31
 80089c0:	d405      	bmi.n	80089ce <_vfiprintf_r+0x1fe>
 80089c2:	89ab      	ldrh	r3, [r5, #12]
 80089c4:	059a      	lsls	r2, r3, #22
 80089c6:	d402      	bmi.n	80089ce <_vfiprintf_r+0x1fe>
 80089c8:	6da8      	ldr	r0, [r5, #88]	@ 0x58
 80089ca:	f7fe fd21 	bl	8007410 <__retarget_lock_release_recursive>
 80089ce:	89ab      	ldrh	r3, [r5, #12]
 80089d0:	065b      	lsls	r3, r3, #25
 80089d2:	f53f af1f 	bmi.w	8008814 <_vfiprintf_r+0x44>
 80089d6:	9809      	ldr	r0, [sp, #36]	@ 0x24
 80089d8:	e71e      	b.n	8008818 <_vfiprintf_r+0x48>
 80089da:	ab03      	add	r3, sp, #12
 80089dc:	9300      	str	r3, [sp, #0]
 80089de:	462a      	mov	r2, r5
 80089e0:	4b05      	ldr	r3, [pc, #20]	@ (80089f8 <_vfiprintf_r+0x228>)
 80089e2:	a904      	add	r1, sp, #16
 80089e4:	4630      	mov	r0, r6
 80089e6:	f7ff f9df 	bl	8007da8 <_printf_i>
 80089ea:	e7e4      	b.n	80089b6 <_vfiprintf_r+0x1e6>
 80089ec:	08008fee 	.word	0x08008fee
 80089f0:	08008ff8 	.word	0x08008ff8
 80089f4:	00000000 	.word	0x00000000
 80089f8:	080087ab 	.word	0x080087ab
 80089fc:	08008ff4 	.word	0x08008ff4

08008a00 <__swbuf_r>:
 8008a00:	b5f8      	push	{r3, r4, r5, r6, r7, lr}
 8008a02:	460e      	mov	r6, r1
 8008a04:	4614      	mov	r4, r2
 8008a06:	4605      	mov	r5, r0
 8008a08:	b118      	cbz	r0, 8008a12 <__swbuf_r+0x12>
 8008a0a:	6a03      	ldr	r3, [r0, #32]
 8008a0c:	b90b      	cbnz	r3, 8008a12 <__swbuf_r+0x12>
 8008a0e:	f7fe fb4b 	bl	80070a8 <__sinit>
 8008a12:	69a3      	ldr	r3, [r4, #24]
 8008a14:	60a3      	str	r3, [r4, #8]
 8008a16:	89a3      	ldrh	r3, [r4, #12]
 8008a18:	071a      	lsls	r2, r3, #28
 8008a1a:	d501      	bpl.n	8008a20 <__swbuf_r+0x20>
 8008a1c:	6923      	ldr	r3, [r4, #16]
 8008a1e:	b943      	cbnz	r3, 8008a32 <__swbuf_r+0x32>
 8008a20:	4621      	mov	r1, r4
 8008a22:	4628      	mov	r0, r5
 8008a24:	f000 f82a 	bl	8008a7c <__swsetup_r>
 8008a28:	b118      	cbz	r0, 8008a32 <__swbuf_r+0x32>
 8008a2a:	f04f 37ff 	mov.w	r7, #4294967295
 8008a2e:	4638      	mov	r0, r7
 8008a30:	bdf8      	pop	{r3, r4, r5, r6, r7, pc}
 8008a32:	6823      	ldr	r3, [r4, #0]
 8008a34:	6922      	ldr	r2, [r4, #16]
 8008a36:	1a98      	subs	r0, r3, r2
 8008a38:	6963      	ldr	r3, [r4, #20]
 8008a3a:	b2f6      	uxtb	r6, r6
 8008a3c:	4283      	cmp	r3, r0
 8008a3e:	4637      	mov	r7, r6
 8008a40:	dc05      	bgt.n	8008a4e <__swbuf_r+0x4e>
 8008a42:	4621      	mov	r1, r4
 8008a44:	4628      	mov	r0, r5
 8008a46:	f7ff fc9f 	bl	8008388 <_fflush_r>
 8008a4a:	2800      	cmp	r0, #0
 8008a4c:	d1ed      	bne.n	8008a2a <__swbuf_r+0x2a>
 8008a4e:	68a3      	ldr	r3, [r4, #8]
 8008a50:	3b01      	subs	r3, #1
 8008a52:	60a3      	str	r3, [r4, #8]
 8008a54:	6823      	ldr	r3, [r4, #0]
 8008a56:	1c5a      	adds	r2, r3, #1
 8008a58:	6022      	str	r2, [r4, #0]
 8008a5a:	701e      	strb	r6, [r3, #0]
 8008a5c:	6962      	ldr	r2, [r4, #20]
 8008a5e:	1c43      	adds	r3, r0, #1
 8008a60:	429a      	cmp	r2, r3
 8008a62:	d004      	beq.n	8008a6e <__swbuf_r+0x6e>
 8008a64:	89a3      	ldrh	r3, [r4, #12]
 8008a66:	07db      	lsls	r3, r3, #31
 8008a68:	d5e1      	bpl.n	8008a2e <__swbuf_r+0x2e>
 8008a6a:	2e0a      	cmp	r6, #10
 8008a6c:	d1df      	bne.n	8008a2e <__swbuf_r+0x2e>
 8008a6e:	4621      	mov	r1, r4
 8008a70:	4628      	mov	r0, r5
 8008a72:	f7ff fc89 	bl	8008388 <_fflush_r>
 8008a76:	2800      	cmp	r0, #0
 8008a78:	d0d9      	beq.n	8008a2e <__swbuf_r+0x2e>
 8008a7a:	e7d6      	b.n	8008a2a <__swbuf_r+0x2a>

08008a7c <__swsetup_r>:
 8008a7c:	b538      	push	{r3, r4, r5, lr}
 8008a7e:	4b29      	ldr	r3, [pc, #164]	@ (8008b24 <__swsetup_r+0xa8>)
 8008a80:	4605      	mov	r5, r0
 8008a82:	6818      	ldr	r0, [r3, #0]
 8008a84:	460c      	mov	r4, r1
 8008a86:	b118      	cbz	r0, 8008a90 <__swsetup_r+0x14>
 8008a88:	6a03      	ldr	r3, [r0, #32]
 8008a8a:	b90b      	cbnz	r3, 8008a90 <__swsetup_r+0x14>
 8008a8c:	f7fe fb0c 	bl	80070a8 <__sinit>
 8008a90:	f9b4 300c 	ldrsh.w	r3, [r4, #12]
 8008a94:	0719      	lsls	r1, r3, #28
 8008a96:	d422      	bmi.n	8008ade <__swsetup_r+0x62>
 8008a98:	06da      	lsls	r2, r3, #27
 8008a9a:	d407      	bmi.n	8008aac <__swsetup_r+0x30>
 8008a9c:	2209      	movs	r2, #9
 8008a9e:	602a      	str	r2, [r5, #0]
 8008aa0:	f043 0340 	orr.w	r3, r3, #64	@ 0x40
 8008aa4:	81a3      	strh	r3, [r4, #12]
 8008aa6:	f04f 30ff 	mov.w	r0, #4294967295
 8008aaa:	e033      	b.n	8008b14 <__swsetup_r+0x98>
 8008aac:	0758      	lsls	r0, r3, #29
 8008aae:	d512      	bpl.n	8008ad6 <__swsetup_r+0x5a>
 8008ab0:	6b61      	ldr	r1, [r4, #52]	@ 0x34
 8008ab2:	b141      	cbz	r1, 8008ac6 <__swsetup_r+0x4a>
 8008ab4:	f104 0344 	add.w	r3, r4, #68	@ 0x44
 8008ab8:	4299      	cmp	r1, r3
 8008aba:	d002      	beq.n	8008ac2 <__swsetup_r+0x46>
 8008abc:	4628      	mov	r0, r5
 8008abe:	f7fe fcdd 	bl	800747c <_free_r>
 8008ac2:	2300      	movs	r3, #0
 8008ac4:	6363      	str	r3, [r4, #52]	@ 0x34
 8008ac6:	89a3      	ldrh	r3, [r4, #12]
 8008ac8:	f023 0324 	bic.w	r3, r3, #36	@ 0x24
 8008acc:	81a3      	strh	r3, [r4, #12]
 8008ace:	2300      	movs	r3, #0
 8008ad0:	6063      	str	r3, [r4, #4]
 8008ad2:	6923      	ldr	r3, [r4, #16]
 8008ad4:	6023      	str	r3, [r4, #0]
 8008ad6:	89a3      	ldrh	r3, [r4, #12]
 8008ad8:	f043 0308 	orr.w	r3, r3, #8
 8008adc:	81a3      	strh	r3, [r4, #12]
 8008ade:	6923      	ldr	r3, [r4, #16]
 8008ae0:	b94b      	cbnz	r3, 8008af6 <__swsetup_r+0x7a>
 8008ae2:	89a3      	ldrh	r3, [r4, #12]
 8008ae4:	f403 7320 	and.w	r3, r3, #640	@ 0x280
 8008ae8:	f5b3 7f00 	cmp.w	r3, #512	@ 0x200
 8008aec:	d003      	beq.n	8008af6 <__swsetup_r+0x7a>
 8008aee:	4621      	mov	r1, r4
 8008af0:	4628      	mov	r0, r5
 8008af2:	f000 f88b 	bl	8008c0c <__smakebuf_r>
 8008af6:	f9b4 300c 	ldrsh.w	r3, [r4, #12]
 8008afa:	f013 0201 	ands.w	r2, r3, #1
 8008afe:	d00a      	beq.n	8008b16 <__swsetup_r+0x9a>
 8008b00:	2200      	movs	r2, #0
 8008b02:	60a2      	str	r2, [r4, #8]
 8008b04:	6962      	ldr	r2, [r4, #20]
 8008b06:	4252      	negs	r2, r2
 8008b08:	61a2      	str	r2, [r4, #24]
 8008b0a:	6922      	ldr	r2, [r4, #16]
 8008b0c:	b942      	cbnz	r2, 8008b20 <__swsetup_r+0xa4>
 8008b0e:	f013 0080 	ands.w	r0, r3, #128	@ 0x80
 8008b12:	d1c5      	bne.n	8008aa0 <__swsetup_r+0x24>
 8008b14:	bd38      	pop	{r3, r4, r5, pc}
 8008b16:	0799      	lsls	r1, r3, #30
 8008b18:	bf58      	it	pl
 8008b1a:	6962      	ldrpl	r2, [r4, #20]
 8008b1c:	60a2      	str	r2, [r4, #8]
 8008b1e:	e7f4      	b.n	8008b0a <__swsetup_r+0x8e>
 8008b20:	2000      	movs	r0, #0
 8008b22:	e7f7      	b.n	8008b14 <__swsetup_r+0x98>
 8008b24:	2000042c 	.word	0x2000042c

08008b28 <_raise_r>:
 8008b28:	291f      	cmp	r1, #31
 8008b2a:	b538      	push	{r3, r4, r5, lr}
 8008b2c:	4605      	mov	r5, r0
 8008b2e:	460c      	mov	r4, r1
 8008b30:	d904      	bls.n	8008b3c <_raise_r+0x14>
 8008b32:	2316      	movs	r3, #22
 8008b34:	6003      	str	r3, [r0, #0]
 8008b36:	f04f 30ff 	mov.w	r0, #4294967295
 8008b3a:	bd38      	pop	{r3, r4, r5, pc}
 8008b3c:	6bc2      	ldr	r2, [r0, #60]	@ 0x3c
 8008b3e:	b112      	cbz	r2, 8008b46 <_raise_r+0x1e>
 8008b40:	f852 3021 	ldr.w	r3, [r2, r1, lsl #2]
 8008b44:	b94b      	cbnz	r3, 8008b5a <_raise_r+0x32>
 8008b46:	4628      	mov	r0, r5
 8008b48:	f000 f830 	bl	8008bac <_getpid_r>
 8008b4c:	4622      	mov	r2, r4
 8008b4e:	4601      	mov	r1, r0
 8008b50:	4628      	mov	r0, r5
 8008b52:	e8bd 4038 	ldmia.w	sp!, {r3, r4, r5, lr}
 8008b56:	f000 b817 	b.w	8008b88 <_kill_r>
 8008b5a:	2b01      	cmp	r3, #1
 8008b5c:	d00a      	beq.n	8008b74 <_raise_r+0x4c>
 8008b5e:	1c59      	adds	r1, r3, #1
 8008b60:	d103      	bne.n	8008b6a <_raise_r+0x42>
 8008b62:	2316      	movs	r3, #22
 8008b64:	6003      	str	r3, [r0, #0]
 8008b66:	2001      	movs	r0, #1
 8008b68:	e7e7      	b.n	8008b3a <_raise_r+0x12>
 8008b6a:	2100      	movs	r1, #0
 8008b6c:	f842 1024 	str.w	r1, [r2, r4, lsl #2]
 8008b70:	4620      	mov	r0, r4
 8008b72:	4798      	blx	r3
 8008b74:	2000      	movs	r0, #0
 8008b76:	e7e0      	b.n	8008b3a <_raise_r+0x12>

08008b78 <raise>:
 8008b78:	4b02      	ldr	r3, [pc, #8]	@ (8008b84 <raise+0xc>)
 8008b7a:	4601      	mov	r1, r0
 8008b7c:	6818      	ldr	r0, [r3, #0]
 8008b7e:	f7ff bfd3 	b.w	8008b28 <_raise_r>
 8008b82:	bf00      	nop
 8008b84:	2000042c 	.word	0x2000042c

08008b88 <_kill_r>:
 8008b88:	b538      	push	{r3, r4, r5, lr}
 8008b8a:	4d07      	ldr	r5, [pc, #28]	@ (8008ba8 <_kill_r+0x20>)
 8008b8c:	2300      	movs	r3, #0
 8008b8e:	4604      	mov	r4, r0
 8008b90:	4608      	mov	r0, r1
 8008b92:	4611      	mov	r1, r2
 8008b94:	602b      	str	r3, [r5, #0]
 8008b96:	f7f9 f929 	bl	8001dec <_kill>
 8008b9a:	1c43      	adds	r3, r0, #1
 8008b9c:	d102      	bne.n	8008ba4 <_kill_r+0x1c>
 8008b9e:	682b      	ldr	r3, [r5, #0]
 8008ba0:	b103      	cbz	r3, 8008ba4 <_kill_r+0x1c>
 8008ba2:	6023      	str	r3, [r4, #0]
 8008ba4:	bd38      	pop	{r3, r4, r5, pc}
 8008ba6:	bf00      	nop
 8008ba8:	20009418 	.word	0x20009418

08008bac <_getpid_r>:
 8008bac:	f7f9 b91c 	b.w	8001de8 <_getpid>

08008bb0 <_malloc_usable_size_r>:
 8008bb0:	f851 3c04 	ldr.w	r3, [r1, #-4]
 8008bb4:	1f18      	subs	r0, r3, #4
 8008bb6:	2b00      	cmp	r3, #0
 8008bb8:	bfbc      	itt	lt
 8008bba:	580b      	ldrlt	r3, [r1, r0]
 8008bbc:	18c0      	addlt	r0, r0, r3
 8008bbe:	4770      	bx	lr

08008bc0 <__swhatbuf_r>:
 8008bc0:	b570      	push	{r4, r5, r6, lr}
 8008bc2:	460c      	mov	r4, r1
 8008bc4:	f9b1 100e 	ldrsh.w	r1, [r1, #14]
 8008bc8:	2900      	cmp	r1, #0
 8008bca:	b096      	sub	sp, #88	@ 0x58
 8008bcc:	4615      	mov	r5, r2
 8008bce:	461e      	mov	r6, r3
 8008bd0:	da0d      	bge.n	8008bee <__swhatbuf_r+0x2e>
 8008bd2:	89a3      	ldrh	r3, [r4, #12]
 8008bd4:	f013 0f80 	tst.w	r3, #128	@ 0x80
 8008bd8:	f04f 0100 	mov.w	r1, #0
 8008bdc:	bf14      	ite	ne
 8008bde:	2340      	movne	r3, #64	@ 0x40
 8008be0:	f44f 6380 	moveq.w	r3, #1024	@ 0x400
 8008be4:	2000      	movs	r0, #0
 8008be6:	6031      	str	r1, [r6, #0]
 8008be8:	602b      	str	r3, [r5, #0]
 8008bea:	b016      	add	sp, #88	@ 0x58
 8008bec:	bd70      	pop	{r4, r5, r6, pc}
 8008bee:	466a      	mov	r2, sp
 8008bf0:	f000 f848 	bl	8008c84 <_fstat_r>
 8008bf4:	2800      	cmp	r0, #0
 8008bf6:	dbec      	blt.n	8008bd2 <__swhatbuf_r+0x12>
 8008bf8:	9901      	ldr	r1, [sp, #4]
 8008bfa:	f401 4170 	and.w	r1, r1, #61440	@ 0xf000
 8008bfe:	f5a1 5300 	sub.w	r3, r1, #8192	@ 0x2000
 8008c02:	4259      	negs	r1, r3
 8008c04:	4159      	adcs	r1, r3
 8008c06:	f44f 6380 	mov.w	r3, #1024	@ 0x400
 8008c0a:	e7eb      	b.n	8008be4 <__swhatbuf_r+0x24>

08008c0c <__smakebuf_r>:
 8008c0c:	898b      	ldrh	r3, [r1, #12]
 8008c0e:	b5f7      	push	{r0, r1, r2, r4, r5, r6, r7, lr}
 8008c10:	079d      	lsls	r5, r3, #30
 8008c12:	4606      	mov	r6, r0
 8008c14:	460c      	mov	r4, r1
 8008c16:	d507      	bpl.n	8008c28 <__smakebuf_r+0x1c>
 8008c18:	f104 0347 	add.w	r3, r4, #71	@ 0x47
 8008c1c:	6023      	str	r3, [r4, #0]
 8008c1e:	6123      	str	r3, [r4, #16]
 8008c20:	2301      	movs	r3, #1
 8008c22:	6163      	str	r3, [r4, #20]
 8008c24:	b003      	add	sp, #12
 8008c26:	bdf0      	pop	{r4, r5, r6, r7, pc}
 8008c28:	ab01      	add	r3, sp, #4
 8008c2a:	466a      	mov	r2, sp
 8008c2c:	f7ff ffc8 	bl	8008bc0 <__swhatbuf_r>
 8008c30:	9f00      	ldr	r7, [sp, #0]
 8008c32:	4605      	mov	r5, r0
 8008c34:	4639      	mov	r1, r7
 8008c36:	4630      	mov	r0, r6
 8008c38:	f7fe fc94 	bl	8007564 <_malloc_r>
 8008c3c:	b948      	cbnz	r0, 8008c52 <__smakebuf_r+0x46>
 8008c3e:	f9b4 300c 	ldrsh.w	r3, [r4, #12]
 8008c42:	059a      	lsls	r2, r3, #22
 8008c44:	d4ee      	bmi.n	8008c24 <__smakebuf_r+0x18>
 8008c46:	f023 0303 	bic.w	r3, r3, #3
 8008c4a:	f043 0302 	orr.w	r3, r3, #2
 8008c4e:	81a3      	strh	r3, [r4, #12]
 8008c50:	e7e2      	b.n	8008c18 <__smakebuf_r+0xc>
 8008c52:	89a3      	ldrh	r3, [r4, #12]
 8008c54:	6020      	str	r0, [r4, #0]
 8008c56:	f043 0380 	orr.w	r3, r3, #128	@ 0x80
 8008c5a:	81a3      	strh	r3, [r4, #12]
 8008c5c:	9b01      	ldr	r3, [sp, #4]
 8008c5e:	e9c4 0704 	strd	r0, r7, [r4, #16]
 8008c62:	b15b      	cbz	r3, 8008c7c <__smakebuf_r+0x70>
 8008c64:	f9b4 100e 	ldrsh.w	r1, [r4, #14]
 8008c68:	4630      	mov	r0, r6
 8008c6a:	f000 f81d 	bl	8008ca8 <_isatty_r>
 8008c6e:	b128      	cbz	r0, 8008c7c <__smakebuf_r+0x70>
 8008c70:	89a3      	ldrh	r3, [r4, #12]
 8008c72:	f023 0303 	bic.w	r3, r3, #3
 8008c76:	f043 0301 	orr.w	r3, r3, #1
 8008c7a:	81a3      	strh	r3, [r4, #12]
 8008c7c:	89a3      	ldrh	r3, [r4, #12]
 8008c7e:	431d      	orrs	r5, r3
 8008c80:	81a5      	strh	r5, [r4, #12]
 8008c82:	e7cf      	b.n	8008c24 <__smakebuf_r+0x18>

08008c84 <_fstat_r>:
 8008c84:	b538      	push	{r3, r4, r5, lr}
 8008c86:	4d07      	ldr	r5, [pc, #28]	@ (8008ca4 <_fstat_r+0x20>)
 8008c88:	2300      	movs	r3, #0
 8008c8a:	4604      	mov	r4, r0
 8008c8c:	4608      	mov	r0, r1
 8008c8e:	4611      	mov	r1, r2
 8008c90:	602b      	str	r3, [r5, #0]
 8008c92:	f7f9 f8d8 	bl	8001e46 <_fstat>
 8008c96:	1c43      	adds	r3, r0, #1
 8008c98:	d102      	bne.n	8008ca0 <_fstat_r+0x1c>
 8008c9a:	682b      	ldr	r3, [r5, #0]
 8008c9c:	b103      	cbz	r3, 8008ca0 <_fstat_r+0x1c>
 8008c9e:	6023      	str	r3, [r4, #0]
 8008ca0:	bd38      	pop	{r3, r4, r5, pc}
 8008ca2:	bf00      	nop
 8008ca4:	20009418 	.word	0x20009418

08008ca8 <_isatty_r>:
 8008ca8:	b538      	push	{r3, r4, r5, lr}
 8008caa:	4d06      	ldr	r5, [pc, #24]	@ (8008cc4 <_isatty_r+0x1c>)
 8008cac:	2300      	movs	r3, #0
 8008cae:	4604      	mov	r4, r0
 8008cb0:	4608      	mov	r0, r1
 8008cb2:	602b      	str	r3, [r5, #0]
 8008cb4:	f7f9 f8cc 	bl	8001e50 <_isatty>
 8008cb8:	1c43      	adds	r3, r0, #1
 8008cba:	d102      	bne.n	8008cc2 <_isatty_r+0x1a>
 8008cbc:	682b      	ldr	r3, [r5, #0]
 8008cbe:	b103      	cbz	r3, 8008cc2 <_isatty_r+0x1a>
 8008cc0:	6023      	str	r3, [r4, #0]
 8008cc2:	bd38      	pop	{r3, r4, r5, pc}
 8008cc4:	20009418 	.word	0x20009418

08008cc8 <_init>:
 8008cc8:	b5f8      	push	{r3, r4, r5, r6, r7, lr}
 8008cca:	bf00      	nop
 8008ccc:	bcf8      	pop	{r3, r4, r5, r6, r7}
 8008cce:	bc08      	pop	{r3}
 8008cd0:	469e      	mov	lr, r3
 8008cd2:	4770      	bx	lr

08008cd4 <_fini>:
 8008cd4:	b5f8      	push	{r3, r4, r5, r6, r7, lr}
 8008cd6:	bf00      	nop
 8008cd8:	bcf8      	pop	{r3, r4, r5, r6, r7}
 8008cda:	bc08      	pop	{r3}
 8008cdc:	469e      	mov	lr, r3
 8008cde:	4770      	bx	lr
